
RTC.elf:     file format elf32-littlearm

Sections:
Idx Name          Size      VMA       LMA       File off  Algn
  0 .isr_vector   000001e4  08000000  08000000  00010000  2**0
                  CONTENTS, ALLOC, LOAD, READONLY, DATA
  1 .text         0000c2c4  080001e8  080001e8  000101e8  2**3
                  CONTENTS, ALLOC, LOAD, READONLY, CODE
  2 .rodata       00001d44  0800c4b0  0800c4b0  0001c4b0  2**3
                  CONTENTS, ALLOC, LOAD, READONLY, DATA
  3 .ARM.extab    00000000  0800e1f4  0800e1f4  000201e8  2**0
                  CONTENTS
  4 .ARM          00000000  0800e1f4  0800e1f4  000201e8  2**0
                  CONTENTS
  5 .preinit_array 00000000  0800e1f4  0800e1f4  000201e8  2**0
                  CONTENTS, ALLOC, LOAD, DATA
  6 .init_array   00000004  0800e1f4  0800e1f4  0001e1f4  2**2
                  CONTENTS, ALLOC, LOAD, DATA
  7 .fini_array   00000004  0800e1f8  0800e1f8  0001e1f8  2**2
                  CONTENTS, ALLOC, LOAD, DATA
  8 .data         000001e8  20000000  0800e1fc  00020000  2**2
                  CONTENTS, ALLOC, LOAD, DATA
  9 .bss          00000154  200001e8  0800e3e4  000201e8  2**2
                  ALLOC
 10 ._user_heap_stack 00000604  2000033c  0800e3e4  0002033c  2**0
                  ALLOC
 11 .ARM.attributes 00000029  00000000  00000000  000201e8  2**0
                  CONTENTS, READONLY
 12 .debug_info   000107ec  00000000  00000000  00020211  2**0
                  CONTENTS, READONLY, DEBUGGING, OCTETS
 13 .debug_abbrev 0000321d  00000000  00000000  000309fd  2**0
                  CONTENTS, READONLY, DEBUGGING, OCTETS
 14 .debug_aranges 00000f30  00000000  00000000  00033c20  2**3
                  CONTENTS, READONLY, DEBUGGING, OCTETS
 15 .debug_ranges 00000dc8  00000000  00000000  00034b50  2**3
                  CONTENTS, READONLY, DEBUGGING, OCTETS
 16 .debug_macro  0001c94a  00000000  00000000  00035918  2**0
                  CONTENTS, READONLY, DEBUGGING, OCTETS
 17 .debug_line   00013ffe  00000000  00000000  00052262  2**0
                  CONTENTS, READONLY, DEBUGGING, OCTETS
 18 .debug_str    0009a22d  00000000  00000000  00066260  2**0
                  CONTENTS, READONLY, DEBUGGING, OCTETS
 19 .comment      00000050  00000000  00000000  0010048d  2**0
                  CONTENTS, READONLY
 20 .debug_frame  00005190  00000000  00000000  001004e0  2**2
                  CONTENTS, READONLY, DEBUGGING, OCTETS

Disassembly of section .text:

080001e8 <__do_global_dtors_aux>:
 80001e8:	b510      	push	{r4, lr}
 80001ea:	4c05      	ldr	r4, [pc, #20]	; (8000200 <__do_global_dtors_aux+0x18>)
 80001ec:	7823      	ldrb	r3, [r4, #0]
 80001ee:	b933      	cbnz	r3, 80001fe <__do_global_dtors_aux+0x16>
 80001f0:	4b04      	ldr	r3, [pc, #16]	; (8000204 <__do_global_dtors_aux+0x1c>)
 80001f2:	b113      	cbz	r3, 80001fa <__do_global_dtors_aux+0x12>
 80001f4:	4804      	ldr	r0, [pc, #16]	; (8000208 <__do_global_dtors_aux+0x20>)
 80001f6:	f3af 8000 	nop.w
 80001fa:	2301      	movs	r3, #1
 80001fc:	7023      	strb	r3, [r4, #0]
 80001fe:	bd10      	pop	{r4, pc}
 8000200:	200001e8 	.word	0x200001e8
 8000204:	00000000 	.word	0x00000000
 8000208:	0800c494 	.word	0x0800c494

0800020c <frame_dummy>:
 800020c:	b508      	push	{r3, lr}
 800020e:	4b03      	ldr	r3, [pc, #12]	; (800021c <frame_dummy+0x10>)
 8000210:	b11b      	cbz	r3, 800021a <frame_dummy+0xe>
 8000212:	4903      	ldr	r1, [pc, #12]	; (8000220 <frame_dummy+0x14>)
 8000214:	4803      	ldr	r0, [pc, #12]	; (8000224 <frame_dummy+0x18>)
 8000216:	f3af 8000 	nop.w
 800021a:	bd08      	pop	{r3, pc}
 800021c:	00000000 	.word	0x00000000
 8000220:	200001ec 	.word	0x200001ec
 8000224:	0800c494 	.word	0x0800c494

08000228 <strlen>:
 8000228:	4603      	mov	r3, r0
 800022a:	f813 2b01 	ldrb.w	r2, [r3], #1
 800022e:	2a00      	cmp	r2, #0
 8000230:	d1fb      	bne.n	800022a <strlen+0x2>
 8000232:	1a18      	subs	r0, r3, r0
 8000234:	3801      	subs	r0, #1
 8000236:	4770      	bx	lr

08000238 <__aeabi_drsub>:
 8000238:	f081 4100 	eor.w	r1, r1, #2147483648	; 0x80000000
 800023c:	e002      	b.n	8000244 <__adddf3>
 800023e:	bf00      	nop

08000240 <__aeabi_dsub>:
 8000240:	f083 4300 	eor.w	r3, r3, #2147483648	; 0x80000000

08000244 <__adddf3>:
 8000244:	b530      	push	{r4, r5, lr}
 8000246:	ea4f 0441 	mov.w	r4, r1, lsl #1
 800024a:	ea4f 0543 	mov.w	r5, r3, lsl #1
 800024e:	ea94 0f05 	teq	r4, r5
 8000252:	bf08      	it	eq
 8000254:	ea90 0f02 	teqeq	r0, r2
 8000258:	bf1f      	itttt	ne
 800025a:	ea54 0c00 	orrsne.w	ip, r4, r0
 800025e:	ea55 0c02 	orrsne.w	ip, r5, r2
 8000262:	ea7f 5c64 	mvnsne.w	ip, r4, asr #21
 8000266:	ea7f 5c65 	mvnsne.w	ip, r5, asr #21
 800026a:	f000 80e2 	beq.w	8000432 <__adddf3+0x1ee>
 800026e:	ea4f 5454 	mov.w	r4, r4, lsr #21
 8000272:	ebd4 5555 	rsbs	r5, r4, r5, lsr #21
 8000276:	bfb8      	it	lt
 8000278:	426d      	neglt	r5, r5
 800027a:	dd0c      	ble.n	8000296 <__adddf3+0x52>
 800027c:	442c      	add	r4, r5
 800027e:	ea80 0202 	eor.w	r2, r0, r2
 8000282:	ea81 0303 	eor.w	r3, r1, r3
 8000286:	ea82 0000 	eor.w	r0, r2, r0
 800028a:	ea83 0101 	eor.w	r1, r3, r1
 800028e:	ea80 0202 	eor.w	r2, r0, r2
 8000292:	ea81 0303 	eor.w	r3, r1, r3
 8000296:	2d36      	cmp	r5, #54	; 0x36
 8000298:	bf88      	it	hi
 800029a:	bd30      	pophi	{r4, r5, pc}
 800029c:	f011 4f00 	tst.w	r1, #2147483648	; 0x80000000
 80002a0:	ea4f 3101 	mov.w	r1, r1, lsl #12
 80002a4:	f44f 1c80 	mov.w	ip, #1048576	; 0x100000
 80002a8:	ea4c 3111 	orr.w	r1, ip, r1, lsr #12
 80002ac:	d002      	beq.n	80002b4 <__adddf3+0x70>
 80002ae:	4240      	negs	r0, r0
 80002b0:	eb61 0141 	sbc.w	r1, r1, r1, lsl #1
 80002b4:	f013 4f00 	tst.w	r3, #2147483648	; 0x80000000
 80002b8:	ea4f 3303 	mov.w	r3, r3, lsl #12
 80002bc:	ea4c 3313 	orr.w	r3, ip, r3, lsr #12
 80002c0:	d002      	beq.n	80002c8 <__adddf3+0x84>
 80002c2:	4252      	negs	r2, r2
 80002c4:	eb63 0343 	sbc.w	r3, r3, r3, lsl #1
 80002c8:	ea94 0f05 	teq	r4, r5
 80002cc:	f000 80a7 	beq.w	800041e <__adddf3+0x1da>
 80002d0:	f1a4 0401 	sub.w	r4, r4, #1
 80002d4:	f1d5 0e20 	rsbs	lr, r5, #32
 80002d8:	db0d      	blt.n	80002f6 <__adddf3+0xb2>
 80002da:	fa02 fc0e 	lsl.w	ip, r2, lr
 80002de:	fa22 f205 	lsr.w	r2, r2, r5
 80002e2:	1880      	adds	r0, r0, r2
 80002e4:	f141 0100 	adc.w	r1, r1, #0
 80002e8:	fa03 f20e 	lsl.w	r2, r3, lr
 80002ec:	1880      	adds	r0, r0, r2
 80002ee:	fa43 f305 	asr.w	r3, r3, r5
 80002f2:	4159      	adcs	r1, r3
 80002f4:	e00e      	b.n	8000314 <__adddf3+0xd0>
 80002f6:	f1a5 0520 	sub.w	r5, r5, #32
 80002fa:	f10e 0e20 	add.w	lr, lr, #32
 80002fe:	2a01      	cmp	r2, #1
 8000300:	fa03 fc0e 	lsl.w	ip, r3, lr
 8000304:	bf28      	it	cs
 8000306:	f04c 0c02 	orrcs.w	ip, ip, #2
 800030a:	fa43 f305 	asr.w	r3, r3, r5
 800030e:	18c0      	adds	r0, r0, r3
 8000310:	eb51 71e3 	adcs.w	r1, r1, r3, asr #31
 8000314:	f001 4500 	and.w	r5, r1, #2147483648	; 0x80000000
 8000318:	d507      	bpl.n	800032a <__adddf3+0xe6>
 800031a:	f04f 0e00 	mov.w	lr, #0
 800031e:	f1dc 0c00 	rsbs	ip, ip, #0
 8000322:	eb7e 0000 	sbcs.w	r0, lr, r0
 8000326:	eb6e 0101 	sbc.w	r1, lr, r1
 800032a:	f5b1 1f80 	cmp.w	r1, #1048576	; 0x100000
 800032e:	d31b      	bcc.n	8000368 <__adddf3+0x124>
 8000330:	f5b1 1f00 	cmp.w	r1, #2097152	; 0x200000
 8000334:	d30c      	bcc.n	8000350 <__adddf3+0x10c>
 8000336:	0849      	lsrs	r1, r1, #1
 8000338:	ea5f 0030 	movs.w	r0, r0, rrx
 800033c:	ea4f 0c3c 	mov.w	ip, ip, rrx
 8000340:	f104 0401 	add.w	r4, r4, #1
 8000344:	ea4f 5244 	mov.w	r2, r4, lsl #21
 8000348:	f512 0f80 	cmn.w	r2, #4194304	; 0x400000
 800034c:	f080 809a 	bcs.w	8000484 <__adddf3+0x240>
 8000350:	f1bc 4f00 	cmp.w	ip, #2147483648	; 0x80000000
 8000354:	bf08      	it	eq
 8000356:	ea5f 0c50 	movseq.w	ip, r0, lsr #1
 800035a:	f150 0000 	adcs.w	r0, r0, #0
 800035e:	eb41 5104 	adc.w	r1, r1, r4, lsl #20
 8000362:	ea41 0105 	orr.w	r1, r1, r5
 8000366:	bd30      	pop	{r4, r5, pc}
 8000368:	ea5f 0c4c 	movs.w	ip, ip, lsl #1
 800036c:	4140      	adcs	r0, r0
 800036e:	eb41 0101 	adc.w	r1, r1, r1
 8000372:	3c01      	subs	r4, #1
 8000374:	bf28      	it	cs
 8000376:	f5b1 1f80 	cmpcs.w	r1, #1048576	; 0x100000
 800037a:	d2e9      	bcs.n	8000350 <__adddf3+0x10c>
 800037c:	f091 0f00 	teq	r1, #0
 8000380:	bf04      	itt	eq
 8000382:	4601      	moveq	r1, r0
 8000384:	2000      	moveq	r0, #0
 8000386:	fab1 f381 	clz	r3, r1
 800038a:	bf08      	it	eq
 800038c:	3320      	addeq	r3, #32
 800038e:	f1a3 030b 	sub.w	r3, r3, #11
 8000392:	f1b3 0220 	subs.w	r2, r3, #32
 8000396:	da0c      	bge.n	80003b2 <__adddf3+0x16e>
 8000398:	320c      	adds	r2, #12
 800039a:	dd08      	ble.n	80003ae <__adddf3+0x16a>
 800039c:	f102 0c14 	add.w	ip, r2, #20
 80003a0:	f1c2 020c 	rsb	r2, r2, #12
 80003a4:	fa01 f00c 	lsl.w	r0, r1, ip
 80003a8:	fa21 f102 	lsr.w	r1, r1, r2
 80003ac:	e00c      	b.n	80003c8 <__adddf3+0x184>
 80003ae:	f102 0214 	add.w	r2, r2, #20
 80003b2:	bfd8      	it	le
 80003b4:	f1c2 0c20 	rsble	ip, r2, #32
 80003b8:	fa01 f102 	lsl.w	r1, r1, r2
 80003bc:	fa20 fc0c 	lsr.w	ip, r0, ip
 80003c0:	bfdc      	itt	le
 80003c2:	ea41 010c 	orrle.w	r1, r1, ip
 80003c6:	4090      	lslle	r0, r2
 80003c8:	1ae4      	subs	r4, r4, r3
 80003ca:	bfa2      	ittt	ge
 80003cc:	eb01 5104 	addge.w	r1, r1, r4, lsl #20
 80003d0:	4329      	orrge	r1, r5
 80003d2:	bd30      	popge	{r4, r5, pc}
 80003d4:	ea6f 0404 	mvn.w	r4, r4
 80003d8:	3c1f      	subs	r4, #31
 80003da:	da1c      	bge.n	8000416 <__adddf3+0x1d2>
 80003dc:	340c      	adds	r4, #12
 80003de:	dc0e      	bgt.n	80003fe <__adddf3+0x1ba>
 80003e0:	f104 0414 	add.w	r4, r4, #20
 80003e4:	f1c4 0220 	rsb	r2, r4, #32
 80003e8:	fa20 f004 	lsr.w	r0, r0, r4
 80003ec:	fa01 f302 	lsl.w	r3, r1, r2
 80003f0:	ea40 0003 	orr.w	r0, r0, r3
 80003f4:	fa21 f304 	lsr.w	r3, r1, r4
 80003f8:	ea45 0103 	orr.w	r1, r5, r3
 80003fc:	bd30      	pop	{r4, r5, pc}
 80003fe:	f1c4 040c 	rsb	r4, r4, #12
 8000402:	f1c4 0220 	rsb	r2, r4, #32
 8000406:	fa20 f002 	lsr.w	r0, r0, r2
 800040a:	fa01 f304 	lsl.w	r3, r1, r4
 800040e:	ea40 0003 	orr.w	r0, r0, r3
 8000412:	4629      	mov	r1, r5
 8000414:	bd30      	pop	{r4, r5, pc}
 8000416:	fa21 f004 	lsr.w	r0, r1, r4
 800041a:	4629      	mov	r1, r5
 800041c:	bd30      	pop	{r4, r5, pc}
 800041e:	f094 0f00 	teq	r4, #0
 8000422:	f483 1380 	eor.w	r3, r3, #1048576	; 0x100000
 8000426:	bf06      	itte	eq
 8000428:	f481 1180 	eoreq.w	r1, r1, #1048576	; 0x100000
 800042c:	3401      	addeq	r4, #1
 800042e:	3d01      	subne	r5, #1
 8000430:	e74e      	b.n	80002d0 <__adddf3+0x8c>
 8000432:	ea7f 5c64 	mvns.w	ip, r4, asr #21
 8000436:	bf18      	it	ne
 8000438:	ea7f 5c65 	mvnsne.w	ip, r5, asr #21
 800043c:	d029      	beq.n	8000492 <__adddf3+0x24e>
 800043e:	ea94 0f05 	teq	r4, r5
 8000442:	bf08      	it	eq
 8000444:	ea90 0f02 	teqeq	r0, r2
 8000448:	d005      	beq.n	8000456 <__adddf3+0x212>
 800044a:	ea54 0c00 	orrs.w	ip, r4, r0
 800044e:	bf04      	itt	eq
 8000450:	4619      	moveq	r1, r3
 8000452:	4610      	moveq	r0, r2
 8000454:	bd30      	pop	{r4, r5, pc}
 8000456:	ea91 0f03 	teq	r1, r3
 800045a:	bf1e      	ittt	ne
 800045c:	2100      	movne	r1, #0
 800045e:	2000      	movne	r0, #0
 8000460:	bd30      	popne	{r4, r5, pc}
 8000462:	ea5f 5c54 	movs.w	ip, r4, lsr #21
 8000466:	d105      	bne.n	8000474 <__adddf3+0x230>
 8000468:	0040      	lsls	r0, r0, #1
 800046a:	4149      	adcs	r1, r1
 800046c:	bf28      	it	cs
 800046e:	f041 4100 	orrcs.w	r1, r1, #2147483648	; 0x80000000
 8000472:	bd30      	pop	{r4, r5, pc}
 8000474:	f514 0480 	adds.w	r4, r4, #4194304	; 0x400000
 8000478:	bf3c      	itt	cc
 800047a:	f501 1180 	addcc.w	r1, r1, #1048576	; 0x100000
 800047e:	bd30      	popcc	{r4, r5, pc}
 8000480:	f001 4500 	and.w	r5, r1, #2147483648	; 0x80000000
 8000484:	f045 41fe 	orr.w	r1, r5, #2130706432	; 0x7f000000
 8000488:	f441 0170 	orr.w	r1, r1, #15728640	; 0xf00000
 800048c:	f04f 0000 	mov.w	r0, #0
 8000490:	bd30      	pop	{r4, r5, pc}
 8000492:	ea7f 5c64 	mvns.w	ip, r4, asr #21
 8000496:	bf1a      	itte	ne
 8000498:	4619      	movne	r1, r3
 800049a:	4610      	movne	r0, r2
 800049c:	ea7f 5c65 	mvnseq.w	ip, r5, asr #21
 80004a0:	bf1c      	itt	ne
 80004a2:	460b      	movne	r3, r1
 80004a4:	4602      	movne	r2, r0
 80004a6:	ea50 3401 	orrs.w	r4, r0, r1, lsl #12
 80004aa:	bf06      	itte	eq
 80004ac:	ea52 3503 	orrseq.w	r5, r2, r3, lsl #12
 80004b0:	ea91 0f03 	teqeq	r1, r3
 80004b4:	f441 2100 	orrne.w	r1, r1, #524288	; 0x80000
 80004b8:	bd30      	pop	{r4, r5, pc}
 80004ba:	bf00      	nop

080004bc <__aeabi_ui2d>:
 80004bc:	f090 0f00 	teq	r0, #0
 80004c0:	bf04      	itt	eq
 80004c2:	2100      	moveq	r1, #0
 80004c4:	4770      	bxeq	lr
 80004c6:	b530      	push	{r4, r5, lr}
 80004c8:	f44f 6480 	mov.w	r4, #1024	; 0x400
 80004cc:	f104 0432 	add.w	r4, r4, #50	; 0x32
 80004d0:	f04f 0500 	mov.w	r5, #0
 80004d4:	f04f 0100 	mov.w	r1, #0
 80004d8:	e750      	b.n	800037c <__adddf3+0x138>
 80004da:	bf00      	nop

080004dc <__aeabi_i2d>:
 80004dc:	f090 0f00 	teq	r0, #0
 80004e0:	bf04      	itt	eq
 80004e2:	2100      	moveq	r1, #0
 80004e4:	4770      	bxeq	lr
 80004e6:	b530      	push	{r4, r5, lr}
 80004e8:	f44f 6480 	mov.w	r4, #1024	; 0x400
 80004ec:	f104 0432 	add.w	r4, r4, #50	; 0x32
 80004f0:	f010 4500 	ands.w	r5, r0, #2147483648	; 0x80000000
 80004f4:	bf48      	it	mi
 80004f6:	4240      	negmi	r0, r0
 80004f8:	f04f 0100 	mov.w	r1, #0
 80004fc:	e73e      	b.n	800037c <__adddf3+0x138>
 80004fe:	bf00      	nop

08000500 <__aeabi_f2d>:
 8000500:	0042      	lsls	r2, r0, #1
 8000502:	ea4f 01e2 	mov.w	r1, r2, asr #3
 8000506:	ea4f 0131 	mov.w	r1, r1, rrx
 800050a:	ea4f 7002 	mov.w	r0, r2, lsl #28
 800050e:	bf1f      	itttt	ne
 8000510:	f012 437f 	andsne.w	r3, r2, #4278190080	; 0xff000000
 8000514:	f093 4f7f 	teqne	r3, #4278190080	; 0xff000000
 8000518:	f081 5160 	eorne.w	r1, r1, #939524096	; 0x38000000
 800051c:	4770      	bxne	lr
 800051e:	f032 427f 	bics.w	r2, r2, #4278190080	; 0xff000000
 8000522:	bf08      	it	eq
 8000524:	4770      	bxeq	lr
 8000526:	f093 4f7f 	teq	r3, #4278190080	; 0xff000000
 800052a:	bf04      	itt	eq
 800052c:	f441 2100 	orreq.w	r1, r1, #524288	; 0x80000
 8000530:	4770      	bxeq	lr
 8000532:	b530      	push	{r4, r5, lr}
 8000534:	f44f 7460 	mov.w	r4, #896	; 0x380
 8000538:	f001 4500 	and.w	r5, r1, #2147483648	; 0x80000000
 800053c:	f021 4100 	bic.w	r1, r1, #2147483648	; 0x80000000
 8000540:	e71c      	b.n	800037c <__adddf3+0x138>
 8000542:	bf00      	nop

08000544 <__aeabi_ul2d>:
 8000544:	ea50 0201 	orrs.w	r2, r0, r1
 8000548:	bf08      	it	eq
 800054a:	4770      	bxeq	lr
 800054c:	b530      	push	{r4, r5, lr}
 800054e:	f04f 0500 	mov.w	r5, #0
 8000552:	e00a      	b.n	800056a <__aeabi_l2d+0x16>

08000554 <__aeabi_l2d>:
 8000554:	ea50 0201 	orrs.w	r2, r0, r1
 8000558:	bf08      	it	eq
 800055a:	4770      	bxeq	lr
 800055c:	b530      	push	{r4, r5, lr}
 800055e:	f011 4500 	ands.w	r5, r1, #2147483648	; 0x80000000
 8000562:	d502      	bpl.n	800056a <__aeabi_l2d+0x16>
 8000564:	4240      	negs	r0, r0
 8000566:	eb61 0141 	sbc.w	r1, r1, r1, lsl #1
 800056a:	f44f 6480 	mov.w	r4, #1024	; 0x400
 800056e:	f104 0432 	add.w	r4, r4, #50	; 0x32
 8000572:	ea5f 5c91 	movs.w	ip, r1, lsr #22
 8000576:	f43f aed8 	beq.w	800032a <__adddf3+0xe6>
 800057a:	f04f 0203 	mov.w	r2, #3
 800057e:	ea5f 0cdc 	movs.w	ip, ip, lsr #3
 8000582:	bf18      	it	ne
 8000584:	3203      	addne	r2, #3
 8000586:	ea5f 0cdc 	movs.w	ip, ip, lsr #3
 800058a:	bf18      	it	ne
 800058c:	3203      	addne	r2, #3
 800058e:	eb02 02dc 	add.w	r2, r2, ip, lsr #3
 8000592:	f1c2 0320 	rsb	r3, r2, #32
 8000596:	fa00 fc03 	lsl.w	ip, r0, r3
 800059a:	fa20 f002 	lsr.w	r0, r0, r2
 800059e:	fa01 fe03 	lsl.w	lr, r1, r3
 80005a2:	ea40 000e 	orr.w	r0, r0, lr
 80005a6:	fa21 f102 	lsr.w	r1, r1, r2
 80005aa:	4414      	add	r4, r2
 80005ac:	e6bd      	b.n	800032a <__adddf3+0xe6>
 80005ae:	bf00      	nop

080005b0 <__aeabi_dmul>:
 80005b0:	b570      	push	{r4, r5, r6, lr}
 80005b2:	f04f 0cff 	mov.w	ip, #255	; 0xff
 80005b6:	f44c 6ce0 	orr.w	ip, ip, #1792	; 0x700
 80005ba:	ea1c 5411 	ands.w	r4, ip, r1, lsr #20
 80005be:	bf1d      	ittte	ne
 80005c0:	ea1c 5513 	andsne.w	r5, ip, r3, lsr #20
 80005c4:	ea94 0f0c 	teqne	r4, ip
 80005c8:	ea95 0f0c 	teqne	r5, ip
 80005cc:	f000 f8de 	bleq	800078c <__aeabi_dmul+0x1dc>
 80005d0:	442c      	add	r4, r5
 80005d2:	ea81 0603 	eor.w	r6, r1, r3
 80005d6:	ea21 514c 	bic.w	r1, r1, ip, lsl #21
 80005da:	ea23 534c 	bic.w	r3, r3, ip, lsl #21
 80005de:	ea50 3501 	orrs.w	r5, r0, r1, lsl #12
 80005e2:	bf18      	it	ne
 80005e4:	ea52 3503 	orrsne.w	r5, r2, r3, lsl #12
 80005e8:	f441 1180 	orr.w	r1, r1, #1048576	; 0x100000
 80005ec:	f443 1380 	orr.w	r3, r3, #1048576	; 0x100000
 80005f0:	d038      	beq.n	8000664 <__aeabi_dmul+0xb4>
 80005f2:	fba0 ce02 	umull	ip, lr, r0, r2
 80005f6:	f04f 0500 	mov.w	r5, #0
 80005fa:	fbe1 e502 	umlal	lr, r5, r1, r2
 80005fe:	f006 4200 	and.w	r2, r6, #2147483648	; 0x80000000
 8000602:	fbe0 e503 	umlal	lr, r5, r0, r3
 8000606:	f04f 0600 	mov.w	r6, #0
 800060a:	fbe1 5603 	umlal	r5, r6, r1, r3
 800060e:	f09c 0f00 	teq	ip, #0
 8000612:	bf18      	it	ne
 8000614:	f04e 0e01 	orrne.w	lr, lr, #1
 8000618:	f1a4 04ff 	sub.w	r4, r4, #255	; 0xff
 800061c:	f5b6 7f00 	cmp.w	r6, #512	; 0x200
 8000620:	f564 7440 	sbc.w	r4, r4, #768	; 0x300
 8000624:	d204      	bcs.n	8000630 <__aeabi_dmul+0x80>
 8000626:	ea5f 0e4e 	movs.w	lr, lr, lsl #1
 800062a:	416d      	adcs	r5, r5
 800062c:	eb46 0606 	adc.w	r6, r6, r6
 8000630:	ea42 21c6 	orr.w	r1, r2, r6, lsl #11
 8000634:	ea41 5155 	orr.w	r1, r1, r5, lsr #21
 8000638:	ea4f 20c5 	mov.w	r0, r5, lsl #11
 800063c:	ea40 505e 	orr.w	r0, r0, lr, lsr #21
 8000640:	ea4f 2ece 	mov.w	lr, lr, lsl #11
 8000644:	f1b4 0cfd 	subs.w	ip, r4, #253	; 0xfd
 8000648:	bf88      	it	hi
 800064a:	f5bc 6fe0 	cmphi.w	ip, #1792	; 0x700
 800064e:	d81e      	bhi.n	800068e <__aeabi_dmul+0xde>
 8000650:	f1be 4f00 	cmp.w	lr, #2147483648	; 0x80000000
 8000654:	bf08      	it	eq
 8000656:	ea5f 0e50 	movseq.w	lr, r0, lsr #1
 800065a:	f150 0000 	adcs.w	r0, r0, #0
 800065e:	eb41 5104 	adc.w	r1, r1, r4, lsl #20
 8000662:	bd70      	pop	{r4, r5, r6, pc}
 8000664:	f006 4600 	and.w	r6, r6, #2147483648	; 0x80000000
 8000668:	ea46 0101 	orr.w	r1, r6, r1
 800066c:	ea40 0002 	orr.w	r0, r0, r2
 8000670:	ea81 0103 	eor.w	r1, r1, r3
 8000674:	ebb4 045c 	subs.w	r4, r4, ip, lsr #1
 8000678:	bfc2      	ittt	gt
 800067a:	ebd4 050c 	rsbsgt	r5, r4, ip
 800067e:	ea41 5104 	orrgt.w	r1, r1, r4, lsl #20
 8000682:	bd70      	popgt	{r4, r5, r6, pc}
 8000684:	f441 1180 	orr.w	r1, r1, #1048576	; 0x100000
 8000688:	f04f 0e00 	mov.w	lr, #0
 800068c:	3c01      	subs	r4, #1
 800068e:	f300 80ab 	bgt.w	80007e8 <__aeabi_dmul+0x238>
 8000692:	f114 0f36 	cmn.w	r4, #54	; 0x36
 8000696:	bfde      	ittt	le
 8000698:	2000      	movle	r0, #0
 800069a:	f001 4100 	andle.w	r1, r1, #2147483648	; 0x80000000
 800069e:	bd70      	pople	{r4, r5, r6, pc}
 80006a0:	f1c4 0400 	rsb	r4, r4, #0
 80006a4:	3c20      	subs	r4, #32
 80006a6:	da35      	bge.n	8000714 <__aeabi_dmul+0x164>
 80006a8:	340c      	adds	r4, #12
 80006aa:	dc1b      	bgt.n	80006e4 <__aeabi_dmul+0x134>
 80006ac:	f104 0414 	add.w	r4, r4, #20
 80006b0:	f1c4 0520 	rsb	r5, r4, #32
 80006b4:	fa00 f305 	lsl.w	r3, r0, r5
 80006b8:	fa20 f004 	lsr.w	r0, r0, r4
 80006bc:	fa01 f205 	lsl.w	r2, r1, r5
 80006c0:	ea40 0002 	orr.w	r0, r0, r2
 80006c4:	f001 4200 	and.w	r2, r1, #2147483648	; 0x80000000
 80006c8:	f021 4100 	bic.w	r1, r1, #2147483648	; 0x80000000
 80006cc:	eb10 70d3 	adds.w	r0, r0, r3, lsr #31
 80006d0:	fa21 f604 	lsr.w	r6, r1, r4
 80006d4:	eb42 0106 	adc.w	r1, r2, r6
 80006d8:	ea5e 0e43 	orrs.w	lr, lr, r3, lsl #1
 80006dc:	bf08      	it	eq
 80006de:	ea20 70d3 	biceq.w	r0, r0, r3, lsr #31
 80006e2:	bd70      	pop	{r4, r5, r6, pc}
 80006e4:	f1c4 040c 	rsb	r4, r4, #12
 80006e8:	f1c4 0520 	rsb	r5, r4, #32
 80006ec:	fa00 f304 	lsl.w	r3, r0, r4
 80006f0:	fa20 f005 	lsr.w	r0, r0, r5
 80006f4:	fa01 f204 	lsl.w	r2, r1, r4
 80006f8:	ea40 0002 	orr.w	r0, r0, r2
 80006fc:	f001 4100 	and.w	r1, r1, #2147483648	; 0x80000000
 8000700:	eb10 70d3 	adds.w	r0, r0, r3, lsr #31
 8000704:	f141 0100 	adc.w	r1, r1, #0
 8000708:	ea5e 0e43 	orrs.w	lr, lr, r3, lsl #1
 800070c:	bf08      	it	eq
 800070e:	ea20 70d3 	biceq.w	r0, r0, r3, lsr #31
 8000712:	bd70      	pop	{r4, r5, r6, pc}
 8000714:	f1c4 0520 	rsb	r5, r4, #32
 8000718:	fa00 f205 	lsl.w	r2, r0, r5
 800071c:	ea4e 0e02 	orr.w	lr, lr, r2
 8000720:	fa20 f304 	lsr.w	r3, r0, r4
 8000724:	fa01 f205 	lsl.w	r2, r1, r5
 8000728:	ea43 0302 	orr.w	r3, r3, r2
 800072c:	fa21 f004 	lsr.w	r0, r1, r4
 8000730:	f001 4100 	and.w	r1, r1, #2147483648	; 0x80000000
 8000734:	fa21 f204 	lsr.w	r2, r1, r4
 8000738:	ea20 0002 	bic.w	r0, r0, r2
 800073c:	eb00 70d3 	add.w	r0, r0, r3, lsr #31
 8000740:	ea5e 0e43 	orrs.w	lr, lr, r3, lsl #1
 8000744:	bf08      	it	eq
 8000746:	ea20 70d3 	biceq.w	r0, r0, r3, lsr #31
 800074a:	bd70      	pop	{r4, r5, r6, pc}
 800074c:	f094 0f00 	teq	r4, #0
 8000750:	d10f      	bne.n	8000772 <__aeabi_dmul+0x1c2>
 8000752:	f001 4600 	and.w	r6, r1, #2147483648	; 0x80000000
 8000756:	0040      	lsls	r0, r0, #1
 8000758:	eb41 0101 	adc.w	r1, r1, r1
 800075c:	f411 1f80 	tst.w	r1, #1048576	; 0x100000
 8000760:	bf08      	it	eq
 8000762:	3c01      	subeq	r4, #1
 8000764:	d0f7      	beq.n	8000756 <__aeabi_dmul+0x1a6>
 8000766:	ea41 0106 	orr.w	r1, r1, r6
 800076a:	f095 0f00 	teq	r5, #0
 800076e:	bf18      	it	ne
 8000770:	4770      	bxne	lr
 8000772:	f003 4600 	and.w	r6, r3, #2147483648	; 0x80000000
 8000776:	0052      	lsls	r2, r2, #1
 8000778:	eb43 0303 	adc.w	r3, r3, r3
 800077c:	f413 1f80 	tst.w	r3, #1048576	; 0x100000
 8000780:	bf08      	it	eq
 8000782:	3d01      	subeq	r5, #1
 8000784:	d0f7      	beq.n	8000776 <__aeabi_dmul+0x1c6>
 8000786:	ea43 0306 	orr.w	r3, r3, r6
 800078a:	4770      	bx	lr
 800078c:	ea94 0f0c 	teq	r4, ip
 8000790:	ea0c 5513 	and.w	r5, ip, r3, lsr #20
 8000794:	bf18      	it	ne
 8000796:	ea95 0f0c 	teqne	r5, ip
 800079a:	d00c      	beq.n	80007b6 <__aeabi_dmul+0x206>
 800079c:	ea50 0641 	orrs.w	r6, r0, r1, lsl #1
 80007a0:	bf18      	it	ne
 80007a2:	ea52 0643 	orrsne.w	r6, r2, r3, lsl #1
 80007a6:	d1d1      	bne.n	800074c <__aeabi_dmul+0x19c>
 80007a8:	ea81 0103 	eor.w	r1, r1, r3
 80007ac:	f001 4100 	and.w	r1, r1, #2147483648	; 0x80000000
 80007b0:	f04f 0000 	mov.w	r0, #0
 80007b4:	bd70      	pop	{r4, r5, r6, pc}
 80007b6:	ea50 0641 	orrs.w	r6, r0, r1, lsl #1
 80007ba:	bf06      	itte	eq
 80007bc:	4610      	moveq	r0, r2
 80007be:	4619      	moveq	r1, r3
 80007c0:	ea52 0643 	orrsne.w	r6, r2, r3, lsl #1
 80007c4:	d019      	beq.n	80007fa <__aeabi_dmul+0x24a>
 80007c6:	ea94 0f0c 	teq	r4, ip
 80007ca:	d102      	bne.n	80007d2 <__aeabi_dmul+0x222>
 80007cc:	ea50 3601 	orrs.w	r6, r0, r1, lsl #12
 80007d0:	d113      	bne.n	80007fa <__aeabi_dmul+0x24a>
 80007d2:	ea95 0f0c 	teq	r5, ip
 80007d6:	d105      	bne.n	80007e4 <__aeabi_dmul+0x234>
 80007d8:	ea52 3603 	orrs.w	r6, r2, r3, lsl #12
 80007dc:	bf1c      	itt	ne
 80007de:	4610      	movne	r0, r2
 80007e0:	4619      	movne	r1, r3
 80007e2:	d10a      	bne.n	80007fa <__aeabi_dmul+0x24a>
 80007e4:	ea81 0103 	eor.w	r1, r1, r3
 80007e8:	f001 4100 	and.w	r1, r1, #2147483648	; 0x80000000
 80007ec:	f041 41fe 	orr.w	r1, r1, #2130706432	; 0x7f000000
 80007f0:	f441 0170 	orr.w	r1, r1, #15728640	; 0xf00000
 80007f4:	f04f 0000 	mov.w	r0, #0
 80007f8:	bd70      	pop	{r4, r5, r6, pc}
 80007fa:	f041 41fe 	orr.w	r1, r1, #2130706432	; 0x7f000000
 80007fe:	f441 0178 	orr.w	r1, r1, #16252928	; 0xf80000
 8000802:	bd70      	pop	{r4, r5, r6, pc}

08000804 <__aeabi_ddiv>:
 8000804:	b570      	push	{r4, r5, r6, lr}
 8000806:	f04f 0cff 	mov.w	ip, #255	; 0xff
 800080a:	f44c 6ce0 	orr.w	ip, ip, #1792	; 0x700
 800080e:	ea1c 5411 	ands.w	r4, ip, r1, lsr #20
 8000812:	bf1d      	ittte	ne
 8000814:	ea1c 5513 	andsne.w	r5, ip, r3, lsr #20
 8000818:	ea94 0f0c 	teqne	r4, ip
 800081c:	ea95 0f0c 	teqne	r5, ip
 8000820:	f000 f8a7 	bleq	8000972 <__aeabi_ddiv+0x16e>
 8000824:	eba4 0405 	sub.w	r4, r4, r5
 8000828:	ea81 0e03 	eor.w	lr, r1, r3
 800082c:	ea52 3503 	orrs.w	r5, r2, r3, lsl #12
 8000830:	ea4f 3101 	mov.w	r1, r1, lsl #12
 8000834:	f000 8088 	beq.w	8000948 <__aeabi_ddiv+0x144>
 8000838:	ea4f 3303 	mov.w	r3, r3, lsl #12
 800083c:	f04f 5580 	mov.w	r5, #268435456	; 0x10000000
 8000840:	ea45 1313 	orr.w	r3, r5, r3, lsr #4
 8000844:	ea43 6312 	orr.w	r3, r3, r2, lsr #24
 8000848:	ea4f 2202 	mov.w	r2, r2, lsl #8
 800084c:	ea45 1511 	orr.w	r5, r5, r1, lsr #4
 8000850:	ea45 6510 	orr.w	r5, r5, r0, lsr #24
 8000854:	ea4f 2600 	mov.w	r6, r0, lsl #8
 8000858:	f00e 4100 	and.w	r1, lr, #2147483648	; 0x80000000
 800085c:	429d      	cmp	r5, r3
 800085e:	bf08      	it	eq
 8000860:	4296      	cmpeq	r6, r2
 8000862:	f144 04fd 	adc.w	r4, r4, #253	; 0xfd
 8000866:	f504 7440 	add.w	r4, r4, #768	; 0x300
 800086a:	d202      	bcs.n	8000872 <__aeabi_ddiv+0x6e>
 800086c:	085b      	lsrs	r3, r3, #1
 800086e:	ea4f 0232 	mov.w	r2, r2, rrx
 8000872:	1ab6      	subs	r6, r6, r2
 8000874:	eb65 0503 	sbc.w	r5, r5, r3
 8000878:	085b      	lsrs	r3, r3, #1
 800087a:	ea4f 0232 	mov.w	r2, r2, rrx
 800087e:	f44f 1080 	mov.w	r0, #1048576	; 0x100000
 8000882:	f44f 2c00 	mov.w	ip, #524288	; 0x80000
 8000886:	ebb6 0e02 	subs.w	lr, r6, r2
 800088a:	eb75 0e03 	sbcs.w	lr, r5, r3
 800088e:	bf22      	ittt	cs
 8000890:	1ab6      	subcs	r6, r6, r2
 8000892:	4675      	movcs	r5, lr
 8000894:	ea40 000c 	orrcs.w	r0, r0, ip
 8000898:	085b      	lsrs	r3, r3, #1
 800089a:	ea4f 0232 	mov.w	r2, r2, rrx
 800089e:	ebb6 0e02 	subs.w	lr, r6, r2
 80008a2:	eb75 0e03 	sbcs.w	lr, r5, r3
 80008a6:	bf22      	ittt	cs
 80008a8:	1ab6      	subcs	r6, r6, r2
 80008aa:	4675      	movcs	r5, lr
 80008ac:	ea40 005c 	orrcs.w	r0, r0, ip, lsr #1
 80008b0:	085b      	lsrs	r3, r3, #1
 80008b2:	ea4f 0232 	mov.w	r2, r2, rrx
 80008b6:	ebb6 0e02 	subs.w	lr, r6, r2
 80008ba:	eb75 0e03 	sbcs.w	lr, r5, r3
 80008be:	bf22      	ittt	cs
 80008c0:	1ab6      	subcs	r6, r6, r2
 80008c2:	4675      	movcs	r5, lr
 80008c4:	ea40 009c 	orrcs.w	r0, r0, ip, lsr #2
 80008c8:	085b      	lsrs	r3, r3, #1
 80008ca:	ea4f 0232 	mov.w	r2, r2, rrx
 80008ce:	ebb6 0e02 	subs.w	lr, r6, r2
 80008d2:	eb75 0e03 	sbcs.w	lr, r5, r3
 80008d6:	bf22      	ittt	cs
 80008d8:	1ab6      	subcs	r6, r6, r2
 80008da:	4675      	movcs	r5, lr
 80008dc:	ea40 00dc 	orrcs.w	r0, r0, ip, lsr #3
 80008e0:	ea55 0e06 	orrs.w	lr, r5, r6
 80008e4:	d018      	beq.n	8000918 <__aeabi_ddiv+0x114>
 80008e6:	ea4f 1505 	mov.w	r5, r5, lsl #4
 80008ea:	ea45 7516 	orr.w	r5, r5, r6, lsr #28
 80008ee:	ea4f 1606 	mov.w	r6, r6, lsl #4
 80008f2:	ea4f 03c3 	mov.w	r3, r3, lsl #3
 80008f6:	ea43 7352 	orr.w	r3, r3, r2, lsr #29
 80008fa:	ea4f 02c2 	mov.w	r2, r2, lsl #3
 80008fe:	ea5f 1c1c 	movs.w	ip, ip, lsr #4
 8000902:	d1c0      	bne.n	8000886 <__aeabi_ddiv+0x82>
 8000904:	f411 1f80 	tst.w	r1, #1048576	; 0x100000
 8000908:	d10b      	bne.n	8000922 <__aeabi_ddiv+0x11e>
 800090a:	ea41 0100 	orr.w	r1, r1, r0
 800090e:	f04f 0000 	mov.w	r0, #0
 8000912:	f04f 4c00 	mov.w	ip, #2147483648	; 0x80000000
 8000916:	e7b6      	b.n	8000886 <__aeabi_ddiv+0x82>
 8000918:	f411 1f80 	tst.w	r1, #1048576	; 0x100000
 800091c:	bf04      	itt	eq
 800091e:	4301      	orreq	r1, r0
 8000920:	2000      	moveq	r0, #0
 8000922:	f1b4 0cfd 	subs.w	ip, r4, #253	; 0xfd
 8000926:	bf88      	it	hi
 8000928:	f5bc 6fe0 	cmphi.w	ip, #1792	; 0x700
 800092c:	f63f aeaf 	bhi.w	800068e <__aeabi_dmul+0xde>
 8000930:	ebb5 0c03 	subs.w	ip, r5, r3
 8000934:	bf04      	itt	eq
 8000936:	ebb6 0c02 	subseq.w	ip, r6, r2
 800093a:	ea5f 0c50 	movseq.w	ip, r0, lsr #1
 800093e:	f150 0000 	adcs.w	r0, r0, #0
 8000942:	eb41 5104 	adc.w	r1, r1, r4, lsl #20
 8000946:	bd70      	pop	{r4, r5, r6, pc}
 8000948:	f00e 4e00 	and.w	lr, lr, #2147483648	; 0x80000000
 800094c:	ea4e 3111 	orr.w	r1, lr, r1, lsr #12
 8000950:	eb14 045c 	adds.w	r4, r4, ip, lsr #1
 8000954:	bfc2      	ittt	gt
 8000956:	ebd4 050c 	rsbsgt	r5, r4, ip
 800095a:	ea41 5104 	orrgt.w	r1, r1, r4, lsl #20
 800095e:	bd70      	popgt	{r4, r5, r6, pc}
 8000960:	f441 1180 	orr.w	r1, r1, #1048576	; 0x100000
 8000964:	f04f 0e00 	mov.w	lr, #0
 8000968:	3c01      	subs	r4, #1
 800096a:	e690      	b.n	800068e <__aeabi_dmul+0xde>
 800096c:	ea45 0e06 	orr.w	lr, r5, r6
 8000970:	e68d      	b.n	800068e <__aeabi_dmul+0xde>
 8000972:	ea0c 5513 	and.w	r5, ip, r3, lsr #20
 8000976:	ea94 0f0c 	teq	r4, ip
 800097a:	bf08      	it	eq
 800097c:	ea95 0f0c 	teqeq	r5, ip
 8000980:	f43f af3b 	beq.w	80007fa <__aeabi_dmul+0x24a>
 8000984:	ea94 0f0c 	teq	r4, ip
 8000988:	d10a      	bne.n	80009a0 <__aeabi_ddiv+0x19c>
 800098a:	ea50 3401 	orrs.w	r4, r0, r1, lsl #12
 800098e:	f47f af34 	bne.w	80007fa <__aeabi_dmul+0x24a>
 8000992:	ea95 0f0c 	teq	r5, ip
 8000996:	f47f af25 	bne.w	80007e4 <__aeabi_dmul+0x234>
 800099a:	4610      	mov	r0, r2
 800099c:	4619      	mov	r1, r3
 800099e:	e72c      	b.n	80007fa <__aeabi_dmul+0x24a>
 80009a0:	ea95 0f0c 	teq	r5, ip
 80009a4:	d106      	bne.n	80009b4 <__aeabi_ddiv+0x1b0>
 80009a6:	ea52 3503 	orrs.w	r5, r2, r3, lsl #12
 80009aa:	f43f aefd 	beq.w	80007a8 <__aeabi_dmul+0x1f8>
 80009ae:	4610      	mov	r0, r2
 80009b0:	4619      	mov	r1, r3
 80009b2:	e722      	b.n	80007fa <__aeabi_dmul+0x24a>
 80009b4:	ea50 0641 	orrs.w	r6, r0, r1, lsl #1
 80009b8:	bf18      	it	ne
 80009ba:	ea52 0643 	orrsne.w	r6, r2, r3, lsl #1
 80009be:	f47f aec5 	bne.w	800074c <__aeabi_dmul+0x19c>
 80009c2:	ea50 0441 	orrs.w	r4, r0, r1, lsl #1
 80009c6:	f47f af0d 	bne.w	80007e4 <__aeabi_dmul+0x234>
 80009ca:	ea52 0543 	orrs.w	r5, r2, r3, lsl #1
 80009ce:	f47f aeeb 	bne.w	80007a8 <__aeabi_dmul+0x1f8>
 80009d2:	e712      	b.n	80007fa <__aeabi_dmul+0x24a>

080009d4 <__gedf2>:
 80009d4:	f04f 3cff 	mov.w	ip, #4294967295
 80009d8:	e006      	b.n	80009e8 <__cmpdf2+0x4>
 80009da:	bf00      	nop

080009dc <__ledf2>:
 80009dc:	f04f 0c01 	mov.w	ip, #1
 80009e0:	e002      	b.n	80009e8 <__cmpdf2+0x4>
 80009e2:	bf00      	nop

080009e4 <__cmpdf2>:
 80009e4:	f04f 0c01 	mov.w	ip, #1
 80009e8:	f84d cd04 	str.w	ip, [sp, #-4]!
 80009ec:	ea4f 0c41 	mov.w	ip, r1, lsl #1
 80009f0:	ea7f 5c6c 	mvns.w	ip, ip, asr #21
 80009f4:	ea4f 0c43 	mov.w	ip, r3, lsl #1
 80009f8:	bf18      	it	ne
 80009fa:	ea7f 5c6c 	mvnsne.w	ip, ip, asr #21
 80009fe:	d01b      	beq.n	8000a38 <__cmpdf2+0x54>
 8000a00:	b001      	add	sp, #4
 8000a02:	ea50 0c41 	orrs.w	ip, r0, r1, lsl #1
 8000a06:	bf0c      	ite	eq
 8000a08:	ea52 0c43 	orrseq.w	ip, r2, r3, lsl #1
 8000a0c:	ea91 0f03 	teqne	r1, r3
 8000a10:	bf02      	ittt	eq
 8000a12:	ea90 0f02 	teqeq	r0, r2
 8000a16:	2000      	moveq	r0, #0
 8000a18:	4770      	bxeq	lr
 8000a1a:	f110 0f00 	cmn.w	r0, #0
 8000a1e:	ea91 0f03 	teq	r1, r3
 8000a22:	bf58      	it	pl
 8000a24:	4299      	cmppl	r1, r3
 8000a26:	bf08      	it	eq
 8000a28:	4290      	cmpeq	r0, r2
 8000a2a:	bf2c      	ite	cs
 8000a2c:	17d8      	asrcs	r0, r3, #31
 8000a2e:	ea6f 70e3 	mvncc.w	r0, r3, asr #31
 8000a32:	f040 0001 	orr.w	r0, r0, #1
 8000a36:	4770      	bx	lr
 8000a38:	ea4f 0c41 	mov.w	ip, r1, lsl #1
 8000a3c:	ea7f 5c6c 	mvns.w	ip, ip, asr #21
 8000a40:	d102      	bne.n	8000a48 <__cmpdf2+0x64>
 8000a42:	ea50 3c01 	orrs.w	ip, r0, r1, lsl #12
 8000a46:	d107      	bne.n	8000a58 <__cmpdf2+0x74>
 8000a48:	ea4f 0c43 	mov.w	ip, r3, lsl #1
 8000a4c:	ea7f 5c6c 	mvns.w	ip, ip, asr #21
 8000a50:	d1d6      	bne.n	8000a00 <__cmpdf2+0x1c>
 8000a52:	ea52 3c03 	orrs.w	ip, r2, r3, lsl #12
 8000a56:	d0d3      	beq.n	8000a00 <__cmpdf2+0x1c>
 8000a58:	f85d 0b04 	ldr.w	r0, [sp], #4
 8000a5c:	4770      	bx	lr
 8000a5e:	bf00      	nop

08000a60 <__aeabi_cdrcmple>:
 8000a60:	4684      	mov	ip, r0
 8000a62:	4610      	mov	r0, r2
 8000a64:	4662      	mov	r2, ip
 8000a66:	468c      	mov	ip, r1
 8000a68:	4619      	mov	r1, r3
 8000a6a:	4663      	mov	r3, ip
 8000a6c:	e000      	b.n	8000a70 <__aeabi_cdcmpeq>
 8000a6e:	bf00      	nop

08000a70 <__aeabi_cdcmpeq>:
 8000a70:	b501      	push	{r0, lr}
 8000a72:	f7ff ffb7 	bl	80009e4 <__cmpdf2>
 8000a76:	2800      	cmp	r0, #0
 8000a78:	bf48      	it	mi
 8000a7a:	f110 0f00 	cmnmi.w	r0, #0
 8000a7e:	bd01      	pop	{r0, pc}

08000a80 <__aeabi_dcmpeq>:
 8000a80:	f84d ed08 	str.w	lr, [sp, #-8]!
 8000a84:	f7ff fff4 	bl	8000a70 <__aeabi_cdcmpeq>
 8000a88:	bf0c      	ite	eq
 8000a8a:	2001      	moveq	r0, #1
 8000a8c:	2000      	movne	r0, #0
 8000a8e:	f85d fb08 	ldr.w	pc, [sp], #8
 8000a92:	bf00      	nop

08000a94 <__aeabi_dcmplt>:
 8000a94:	f84d ed08 	str.w	lr, [sp, #-8]!
 8000a98:	f7ff ffea 	bl	8000a70 <__aeabi_cdcmpeq>
 8000a9c:	bf34      	ite	cc
 8000a9e:	2001      	movcc	r0, #1
 8000aa0:	2000      	movcs	r0, #0
 8000aa2:	f85d fb08 	ldr.w	pc, [sp], #8
 8000aa6:	bf00      	nop

08000aa8 <__aeabi_dcmple>:
 8000aa8:	f84d ed08 	str.w	lr, [sp, #-8]!
 8000aac:	f7ff ffe0 	bl	8000a70 <__aeabi_cdcmpeq>
 8000ab0:	bf94      	ite	ls
 8000ab2:	2001      	movls	r0, #1
 8000ab4:	2000      	movhi	r0, #0
 8000ab6:	f85d fb08 	ldr.w	pc, [sp], #8
 8000aba:	bf00      	nop

08000abc <__aeabi_dcmpge>:
 8000abc:	f84d ed08 	str.w	lr, [sp, #-8]!
 8000ac0:	f7ff ffce 	bl	8000a60 <__aeabi_cdrcmple>
 8000ac4:	bf94      	ite	ls
 8000ac6:	2001      	movls	r0, #1
 8000ac8:	2000      	movhi	r0, #0
 8000aca:	f85d fb08 	ldr.w	pc, [sp], #8
 8000ace:	bf00      	nop

08000ad0 <__aeabi_dcmpgt>:
 8000ad0:	f84d ed08 	str.w	lr, [sp, #-8]!
 8000ad4:	f7ff ffc4 	bl	8000a60 <__aeabi_cdrcmple>
 8000ad8:	bf34      	ite	cc
 8000ada:	2001      	movcc	r0, #1
 8000adc:	2000      	movcs	r0, #0
 8000ade:	f85d fb08 	ldr.w	pc, [sp], #8
 8000ae2:	bf00      	nop

08000ae4 <__aeabi_dcmpun>:
 8000ae4:	ea4f 0c41 	mov.w	ip, r1, lsl #1
 8000ae8:	ea7f 5c6c 	mvns.w	ip, ip, asr #21
 8000aec:	d102      	bne.n	8000af4 <__aeabi_dcmpun+0x10>
 8000aee:	ea50 3c01 	orrs.w	ip, r0, r1, lsl #12
 8000af2:	d10a      	bne.n	8000b0a <__aeabi_dcmpun+0x26>
 8000af4:	ea4f 0c43 	mov.w	ip, r3, lsl #1
 8000af8:	ea7f 5c6c 	mvns.w	ip, ip, asr #21
 8000afc:	d102      	bne.n	8000b04 <__aeabi_dcmpun+0x20>
 8000afe:	ea52 3c03 	orrs.w	ip, r2, r3, lsl #12
 8000b02:	d102      	bne.n	8000b0a <__aeabi_dcmpun+0x26>
 8000b04:	f04f 0000 	mov.w	r0, #0
 8000b08:	4770      	bx	lr
 8000b0a:	f04f 0001 	mov.w	r0, #1
 8000b0e:	4770      	bx	lr

08000b10 <__aeabi_d2iz>:
 8000b10:	ea4f 0241 	mov.w	r2, r1, lsl #1
 8000b14:	f512 1200 	adds.w	r2, r2, #2097152	; 0x200000
 8000b18:	d215      	bcs.n	8000b46 <__aeabi_d2iz+0x36>
 8000b1a:	d511      	bpl.n	8000b40 <__aeabi_d2iz+0x30>
 8000b1c:	f46f 7378 	mvn.w	r3, #992	; 0x3e0
 8000b20:	ebb3 5262 	subs.w	r2, r3, r2, asr #21
 8000b24:	d912      	bls.n	8000b4c <__aeabi_d2iz+0x3c>
 8000b26:	ea4f 23c1 	mov.w	r3, r1, lsl #11
 8000b2a:	f043 4300 	orr.w	r3, r3, #2147483648	; 0x80000000
 8000b2e:	ea43 5350 	orr.w	r3, r3, r0, lsr #21
 8000b32:	f011 4f00 	tst.w	r1, #2147483648	; 0x80000000
 8000b36:	fa23 f002 	lsr.w	r0, r3, r2
 8000b3a:	bf18      	it	ne
 8000b3c:	4240      	negne	r0, r0
 8000b3e:	4770      	bx	lr
 8000b40:	f04f 0000 	mov.w	r0, #0
 8000b44:	4770      	bx	lr
 8000b46:	ea50 3001 	orrs.w	r0, r0, r1, lsl #12
 8000b4a:	d105      	bne.n	8000b58 <__aeabi_d2iz+0x48>
 8000b4c:	f011 4000 	ands.w	r0, r1, #2147483648	; 0x80000000
 8000b50:	bf08      	it	eq
 8000b52:	f06f 4000 	mvneq.w	r0, #2147483648	; 0x80000000
 8000b56:	4770      	bx	lr
 8000b58:	f04f 0000 	mov.w	r0, #0
 8000b5c:	4770      	bx	lr
 8000b5e:	bf00      	nop

08000b60 <__aeabi_d2uiz>:
 8000b60:	004a      	lsls	r2, r1, #1
 8000b62:	d211      	bcs.n	8000b88 <__aeabi_d2uiz+0x28>
 8000b64:	f512 1200 	adds.w	r2, r2, #2097152	; 0x200000
 8000b68:	d211      	bcs.n	8000b8e <__aeabi_d2uiz+0x2e>
 8000b6a:	d50d      	bpl.n	8000b88 <__aeabi_d2uiz+0x28>
 8000b6c:	f46f 7378 	mvn.w	r3, #992	; 0x3e0
 8000b70:	ebb3 5262 	subs.w	r2, r3, r2, asr #21
 8000b74:	d40e      	bmi.n	8000b94 <__aeabi_d2uiz+0x34>
 8000b76:	ea4f 23c1 	mov.w	r3, r1, lsl #11
 8000b7a:	f043 4300 	orr.w	r3, r3, #2147483648	; 0x80000000
 8000b7e:	ea43 5350 	orr.w	r3, r3, r0, lsr #21
 8000b82:	fa23 f002 	lsr.w	r0, r3, r2
 8000b86:	4770      	bx	lr
 8000b88:	f04f 0000 	mov.w	r0, #0
 8000b8c:	4770      	bx	lr
 8000b8e:	ea50 3001 	orrs.w	r0, r0, r1, lsl #12
 8000b92:	d102      	bne.n	8000b9a <__aeabi_d2uiz+0x3a>
 8000b94:	f04f 30ff 	mov.w	r0, #4294967295
 8000b98:	4770      	bx	lr
 8000b9a:	f04f 0000 	mov.w	r0, #0
 8000b9e:	4770      	bx	lr

08000ba0 <__aeabi_d2f>:
 8000ba0:	ea4f 0241 	mov.w	r2, r1, lsl #1
 8000ba4:	f1b2 43e0 	subs.w	r3, r2, #1879048192	; 0x70000000
 8000ba8:	bf24      	itt	cs
 8000baa:	f5b3 1c00 	subscs.w	ip, r3, #2097152	; 0x200000
 8000bae:	f1dc 5cfe 	rsbscs	ip, ip, #532676608	; 0x1fc00000
 8000bb2:	d90d      	bls.n	8000bd0 <__aeabi_d2f+0x30>
 8000bb4:	f001 4c00 	and.w	ip, r1, #2147483648	; 0x80000000
 8000bb8:	ea4f 02c0 	mov.w	r2, r0, lsl #3
 8000bbc:	ea4c 7050 	orr.w	r0, ip, r0, lsr #29
 8000bc0:	f1b2 4f00 	cmp.w	r2, #2147483648	; 0x80000000
 8000bc4:	eb40 0083 	adc.w	r0, r0, r3, lsl #2
 8000bc8:	bf08      	it	eq
 8000bca:	f020 0001 	biceq.w	r0, r0, #1
 8000bce:	4770      	bx	lr
 8000bd0:	f011 4f80 	tst.w	r1, #1073741824	; 0x40000000
 8000bd4:	d121      	bne.n	8000c1a <__aeabi_d2f+0x7a>
 8000bd6:	f113 7238 	adds.w	r2, r3, #48234496	; 0x2e00000
 8000bda:	bfbc      	itt	lt
 8000bdc:	f001 4000 	andlt.w	r0, r1, #2147483648	; 0x80000000
 8000be0:	4770      	bxlt	lr
 8000be2:	f441 1180 	orr.w	r1, r1, #1048576	; 0x100000
 8000be6:	ea4f 5252 	mov.w	r2, r2, lsr #21
 8000bea:	f1c2 0218 	rsb	r2, r2, #24
 8000bee:	f1c2 0c20 	rsb	ip, r2, #32
 8000bf2:	fa10 f30c 	lsls.w	r3, r0, ip
 8000bf6:	fa20 f002 	lsr.w	r0, r0, r2
 8000bfa:	bf18      	it	ne
 8000bfc:	f040 0001 	orrne.w	r0, r0, #1
 8000c00:	ea4f 23c1 	mov.w	r3, r1, lsl #11
 8000c04:	ea4f 23d3 	mov.w	r3, r3, lsr #11
 8000c08:	fa03 fc0c 	lsl.w	ip, r3, ip
 8000c0c:	ea40 000c 	orr.w	r0, r0, ip
 8000c10:	fa23 f302 	lsr.w	r3, r3, r2
 8000c14:	ea4f 0343 	mov.w	r3, r3, lsl #1
 8000c18:	e7cc      	b.n	8000bb4 <__aeabi_d2f+0x14>
 8000c1a:	ea7f 5362 	mvns.w	r3, r2, asr #21
 8000c1e:	d107      	bne.n	8000c30 <__aeabi_d2f+0x90>
 8000c20:	ea50 3301 	orrs.w	r3, r0, r1, lsl #12
 8000c24:	bf1e      	ittt	ne
 8000c26:	f04f 40fe 	movne.w	r0, #2130706432	; 0x7f000000
 8000c2a:	f440 0040 	orrne.w	r0, r0, #12582912	; 0xc00000
 8000c2e:	4770      	bxne	lr
 8000c30:	f001 4000 	and.w	r0, r1, #2147483648	; 0x80000000
 8000c34:	f040 40fe 	orr.w	r0, r0, #2130706432	; 0x7f000000
 8000c38:	f440 0000 	orr.w	r0, r0, #8388608	; 0x800000
 8000c3c:	4770      	bx	lr
 8000c3e:	bf00      	nop

08000c40 <__aeabi_d2lz>:
 8000c40:	b538      	push	{r3, r4, r5, lr}
 8000c42:	4605      	mov	r5, r0
 8000c44:	460c      	mov	r4, r1
 8000c46:	2200      	movs	r2, #0
 8000c48:	2300      	movs	r3, #0
 8000c4a:	4628      	mov	r0, r5
 8000c4c:	4621      	mov	r1, r4
 8000c4e:	f7ff ff21 	bl	8000a94 <__aeabi_dcmplt>
 8000c52:	b928      	cbnz	r0, 8000c60 <__aeabi_d2lz+0x20>
 8000c54:	4628      	mov	r0, r5
 8000c56:	4621      	mov	r1, r4
 8000c58:	e8bd 4038 	ldmia.w	sp!, {r3, r4, r5, lr}
 8000c5c:	f000 b80a 	b.w	8000c74 <__aeabi_d2ulz>
 8000c60:	4628      	mov	r0, r5
 8000c62:	f104 4100 	add.w	r1, r4, #2147483648	; 0x80000000
 8000c66:	f000 f805 	bl	8000c74 <__aeabi_d2ulz>
 8000c6a:	4240      	negs	r0, r0
 8000c6c:	eb61 0141 	sbc.w	r1, r1, r1, lsl #1
 8000c70:	bd38      	pop	{r3, r4, r5, pc}
 8000c72:	bf00      	nop

08000c74 <__aeabi_d2ulz>:
 8000c74:	b5d0      	push	{r4, r6, r7, lr}
 8000c76:	2200      	movs	r2, #0
 8000c78:	4b0b      	ldr	r3, [pc, #44]	; (8000ca8 <__aeabi_d2ulz+0x34>)
 8000c7a:	4606      	mov	r6, r0
 8000c7c:	460f      	mov	r7, r1
 8000c7e:	f7ff fc97 	bl	80005b0 <__aeabi_dmul>
 8000c82:	f7ff ff6d 	bl	8000b60 <__aeabi_d2uiz>
 8000c86:	4604      	mov	r4, r0
 8000c88:	f7ff fc18 	bl	80004bc <__aeabi_ui2d>
 8000c8c:	2200      	movs	r2, #0
 8000c8e:	4b07      	ldr	r3, [pc, #28]	; (8000cac <__aeabi_d2ulz+0x38>)
 8000c90:	f7ff fc8e 	bl	80005b0 <__aeabi_dmul>
 8000c94:	4602      	mov	r2, r0
 8000c96:	460b      	mov	r3, r1
 8000c98:	4630      	mov	r0, r6
 8000c9a:	4639      	mov	r1, r7
 8000c9c:	f7ff fad0 	bl	8000240 <__aeabi_dsub>
 8000ca0:	f7ff ff5e 	bl	8000b60 <__aeabi_d2uiz>
 8000ca4:	4621      	mov	r1, r4
 8000ca6:	bdd0      	pop	{r4, r6, r7, pc}
 8000ca8:	3df00000 	.word	0x3df00000
 8000cac:	41f00000 	.word	0x41f00000

08000cb0 <delay_us>:
 8000cb0:	b580      	push	{r7, lr}
 8000cb2:	b086      	sub	sp, #24
 8000cb4:	af00      	add	r7, sp, #0
 8000cb6:	6078      	str	r0, [r7, #4]
 8000cb8:	4b1c      	ldr	r3, [pc, #112]	; (8000d2c <delay_us+0x7c>)
 8000cba:	689b      	ldr	r3, [r3, #8]
 8000cbc:	617b      	str	r3, [r7, #20]
 8000cbe:	f004 f853 	bl	8004d68 <HAL_GetTick>
 8000cc2:	6138      	str	r0, [r7, #16]
 8000cc4:	687a      	ldr	r2, [r7, #4]
 8000cc6:	4613      	mov	r3, r2
 8000cc8:	00db      	lsls	r3, r3, #3
 8000cca:	4413      	add	r3, r2
 8000ccc:	00db      	lsls	r3, r3, #3
 8000cce:	60fb      	str	r3, [r7, #12]
 8000cd0:	68fa      	ldr	r2, [r7, #12]
 8000cd2:	697b      	ldr	r3, [r7, #20]
 8000cd4:	429a      	cmp	r2, r3
 8000cd6:	d915      	bls.n	8000d04 <delay_us+0x54>
 8000cd8:	bf00      	nop
 8000cda:	f004 f845 	bl	8004d68 <HAL_GetTick>
 8000cde:	4602      	mov	r2, r0
 8000ce0:	693b      	ldr	r3, [r7, #16]
 8000ce2:	4293      	cmp	r3, r2
 8000ce4:	d0f9      	beq.n	8000cda <delay_us+0x2a>
 8000ce6:	697a      	ldr	r2, [r7, #20]
 8000ce8:	68fb      	ldr	r3, [r7, #12]
 8000cea:	1ad3      	subs	r3, r2, r3
 8000cec:	f503 338c 	add.w	r3, r3, #71680	; 0x11800
 8000cf0:	f503 73a0 	add.w	r3, r3, #320	; 0x140
 8000cf4:	60bb      	str	r3, [r7, #8]
 8000cf6:	bf00      	nop
 8000cf8:	4b0c      	ldr	r3, [pc, #48]	; (8000d2c <delay_us+0x7c>)
 8000cfa:	689b      	ldr	r3, [r3, #8]
 8000cfc:	68ba      	ldr	r2, [r7, #8]
 8000cfe:	429a      	cmp	r2, r3
 8000d00:	d3fa      	bcc.n	8000cf8 <delay_us+0x48>
 8000d02:	e00f      	b.n	8000d24 <delay_us+0x74>
 8000d04:	697a      	ldr	r2, [r7, #20]
 8000d06:	68fb      	ldr	r3, [r7, #12]
 8000d08:	1ad3      	subs	r3, r2, r3
 8000d0a:	60bb      	str	r3, [r7, #8]
 8000d0c:	bf00      	nop
 8000d0e:	4b07      	ldr	r3, [pc, #28]	; (8000d2c <delay_us+0x7c>)
 8000d10:	689b      	ldr	r3, [r3, #8]
 8000d12:	68ba      	ldr	r2, [r7, #8]
 8000d14:	429a      	cmp	r2, r3
 8000d16:	d205      	bcs.n	8000d24 <delay_us+0x74>
 8000d18:	f004 f826 	bl	8004d68 <HAL_GetTick>
 8000d1c:	4602      	mov	r2, r0
 8000d1e:	693b      	ldr	r3, [r7, #16]
 8000d20:	4293      	cmp	r3, r2
 8000d22:	d0f4      	beq.n	8000d0e <delay_us+0x5e>
 8000d24:	bf00      	nop
 8000d26:	3718      	adds	r7, #24
 8000d28:	46bd      	mov	sp, r7
 8000d2a:	bd80      	pop	{r7, pc}
 8000d2c:	e000e010 	.word	0xe000e010

08000d30 <delay_ms>:
 8000d30:	b580      	push	{r7, lr}
 8000d32:	b082      	sub	sp, #8
 8000d34:	af00      	add	r7, sp, #0
 8000d36:	6078      	str	r0, [r7, #4]
 8000d38:	6878      	ldr	r0, [r7, #4]
 8000d3a:	f004 f81f 	bl	8004d7c <HAL_Delay>
 8000d3e:	bf00      	nop
 8000d40:	3708      	adds	r7, #8
 8000d42:	46bd      	mov	sp, r7
 8000d44:	bd80      	pop	{r7, pc}
	...

08000d48 <LCD_WR_REG>:
 8000d48:	b480      	push	{r7}
 8000d4a:	b083      	sub	sp, #12
 8000d4c:	af00      	add	r7, sp, #0
 8000d4e:	4603      	mov	r3, r0
 8000d50:	80fb      	strh	r3, [r7, #6]
 8000d52:	88fb      	ldrh	r3, [r7, #6]
 8000d54:	b29b      	uxth	r3, r3
 8000d56:	80fb      	strh	r3, [r7, #6]
 8000d58:	4b04      	ldr	r3, [pc, #16]	; (8000d6c <LCD_WR_REG+0x24>)
 8000d5a:	88fa      	ldrh	r2, [r7, #6]
 8000d5c:	b292      	uxth	r2, r2
 8000d5e:	801a      	strh	r2, [r3, #0]
 8000d60:	bf00      	nop
 8000d62:	370c      	adds	r7, #12
 8000d64:	46bd      	mov	sp, r7
 8000d66:	bc80      	pop	{r7}
 8000d68:	4770      	bx	lr
 8000d6a:	bf00      	nop
 8000d6c:	6c0007fe 	.word	0x6c0007fe

08000d70 <LCD_WR_DATA>:
 8000d70:	b480      	push	{r7}
 8000d72:	b083      	sub	sp, #12
 8000d74:	af00      	add	r7, sp, #0
 8000d76:	4603      	mov	r3, r0
 8000d78:	80fb      	strh	r3, [r7, #6]
 8000d7a:	88fb      	ldrh	r3, [r7, #6]
 8000d7c:	b29b      	uxth	r3, r3
 8000d7e:	80fb      	strh	r3, [r7, #6]
 8000d80:	4b04      	ldr	r3, [pc, #16]	; (8000d94 <LCD_WR_DATA+0x24>)
 8000d82:	88fa      	ldrh	r2, [r7, #6]
 8000d84:	b292      	uxth	r2, r2
 8000d86:	805a      	strh	r2, [r3, #2]
 8000d88:	bf00      	nop
 8000d8a:	370c      	adds	r7, #12
 8000d8c:	46bd      	mov	sp, r7
 8000d8e:	bc80      	pop	{r7}
 8000d90:	4770      	bx	lr
 8000d92:	bf00      	nop
 8000d94:	6c0007fe 	.word	0x6c0007fe

08000d98 <LCD_RD_DATA>:
 8000d98:	b480      	push	{r7}
 8000d9a:	b083      	sub	sp, #12
 8000d9c:	af00      	add	r7, sp, #0
 8000d9e:	4b05      	ldr	r3, [pc, #20]	; (8000db4 <LCD_RD_DATA+0x1c>)
 8000da0:	885b      	ldrh	r3, [r3, #2]
 8000da2:	b29b      	uxth	r3, r3
 8000da4:	80fb      	strh	r3, [r7, #6]
 8000da6:	88fb      	ldrh	r3, [r7, #6]
 8000da8:	b29b      	uxth	r3, r3
 8000daa:	4618      	mov	r0, r3
 8000dac:	370c      	adds	r7, #12
 8000dae:	46bd      	mov	sp, r7
 8000db0:	bc80      	pop	{r7}
 8000db2:	4770      	bx	lr
 8000db4:	6c0007fe 	.word	0x6c0007fe

08000db8 <LCD_WriteReg>:
 8000db8:	b480      	push	{r7}
 8000dba:	b083      	sub	sp, #12
 8000dbc:	af00      	add	r7, sp, #0
 8000dbe:	4603      	mov	r3, r0
 8000dc0:	460a      	mov	r2, r1
 8000dc2:	80fb      	strh	r3, [r7, #6]
 8000dc4:	4613      	mov	r3, r2
 8000dc6:	80bb      	strh	r3, [r7, #4]
 8000dc8:	4a05      	ldr	r2, [pc, #20]	; (8000de0 <LCD_WriteReg+0x28>)
 8000dca:	88fb      	ldrh	r3, [r7, #6]
 8000dcc:	8013      	strh	r3, [r2, #0]
 8000dce:	4a04      	ldr	r2, [pc, #16]	; (8000de0 <LCD_WriteReg+0x28>)
 8000dd0:	88bb      	ldrh	r3, [r7, #4]
 8000dd2:	8053      	strh	r3, [r2, #2]
 8000dd4:	bf00      	nop
 8000dd6:	370c      	adds	r7, #12
 8000dd8:	46bd      	mov	sp, r7
 8000dda:	bc80      	pop	{r7}
 8000ddc:	4770      	bx	lr
 8000dde:	bf00      	nop
 8000de0:	6c0007fe 	.word	0x6c0007fe

08000de4 <LCD_WriteRAM_Prepare>:
 8000de4:	b480      	push	{r7}
 8000de6:	af00      	add	r7, sp, #0
 8000de8:	4b03      	ldr	r3, [pc, #12]	; (8000df8 <LCD_WriteRAM_Prepare+0x14>)
 8000dea:	4a04      	ldr	r2, [pc, #16]	; (8000dfc <LCD_WriteRAM_Prepare+0x18>)
 8000dec:	8912      	ldrh	r2, [r2, #8]
 8000dee:	801a      	strh	r2, [r3, #0]
 8000df0:	bf00      	nop
 8000df2:	46bd      	mov	sp, r7
 8000df4:	bc80      	pop	{r7}
 8000df6:	4770      	bx	lr
 8000df8:	6c0007fe 	.word	0x6c0007fe
 8000dfc:	20000204 	.word	0x20000204

08000e00 <LCD_SetCursor>:
 8000e00:	b580      	push	{r7, lr}
 8000e02:	b082      	sub	sp, #8
 8000e04:	af00      	add	r7, sp, #0
 8000e06:	4603      	mov	r3, r0
 8000e08:	460a      	mov	r2, r1
 8000e0a:	80fb      	strh	r3, [r7, #6]
 8000e0c:	4613      	mov	r3, r2
 8000e0e:	80bb      	strh	r3, [r7, #4]
 8000e10:	4b65      	ldr	r3, [pc, #404]	; (8000fa8 <LCD_SetCursor+0x1a8>)
 8000e12:	889b      	ldrh	r3, [r3, #4]
 8000e14:	f641 1263 	movw	r2, #6499	; 0x1963
 8000e18:	4293      	cmp	r3, r2
 8000e1a:	d167      	bne.n	8000eec <LCD_SetCursor+0xec>
 8000e1c:	4b62      	ldr	r3, [pc, #392]	; (8000fa8 <LCD_SetCursor+0x1a8>)
 8000e1e:	799b      	ldrb	r3, [r3, #6]
 8000e20:	2b00      	cmp	r3, #0
 8000e22:	d11e      	bne.n	8000e62 <LCD_SetCursor+0x62>
 8000e24:	4b60      	ldr	r3, [pc, #384]	; (8000fa8 <LCD_SetCursor+0x1a8>)
 8000e26:	881a      	ldrh	r2, [r3, #0]
 8000e28:	88fb      	ldrh	r3, [r7, #6]
 8000e2a:	1ad3      	subs	r3, r2, r3
 8000e2c:	b29b      	uxth	r3, r3
 8000e2e:	3b01      	subs	r3, #1
 8000e30:	80fb      	strh	r3, [r7, #6]
 8000e32:	4b5d      	ldr	r3, [pc, #372]	; (8000fa8 <LCD_SetCursor+0x1a8>)
 8000e34:	895b      	ldrh	r3, [r3, #10]
 8000e36:	4618      	mov	r0, r3
 8000e38:	f7ff ff86 	bl	8000d48 <LCD_WR_REG>
 8000e3c:	2000      	movs	r0, #0
 8000e3e:	f7ff ff97 	bl	8000d70 <LCD_WR_DATA>
 8000e42:	2000      	movs	r0, #0
 8000e44:	f7ff ff94 	bl	8000d70 <LCD_WR_DATA>
 8000e48:	88fb      	ldrh	r3, [r7, #6]
 8000e4a:	0a1b      	lsrs	r3, r3, #8
 8000e4c:	b29b      	uxth	r3, r3
 8000e4e:	4618      	mov	r0, r3
 8000e50:	f7ff ff8e 	bl	8000d70 <LCD_WR_DATA>
 8000e54:	88fb      	ldrh	r3, [r7, #6]
 8000e56:	b2db      	uxtb	r3, r3
 8000e58:	b29b      	uxth	r3, r3
 8000e5a:	4618      	mov	r0, r3
 8000e5c:	f7ff ff88 	bl	8000d70 <LCD_WR_DATA>
 8000e60:	e021      	b.n	8000ea6 <LCD_SetCursor+0xa6>
 8000e62:	4b51      	ldr	r3, [pc, #324]	; (8000fa8 <LCD_SetCursor+0x1a8>)
 8000e64:	895b      	ldrh	r3, [r3, #10]
 8000e66:	4618      	mov	r0, r3
 8000e68:	f7ff ff6e 	bl	8000d48 <LCD_WR_REG>
 8000e6c:	88fb      	ldrh	r3, [r7, #6]
 8000e6e:	0a1b      	lsrs	r3, r3, #8
 8000e70:	b29b      	uxth	r3, r3
 8000e72:	4618      	mov	r0, r3
 8000e74:	f7ff ff7c 	bl	8000d70 <LCD_WR_DATA>
 8000e78:	88fb      	ldrh	r3, [r7, #6]
 8000e7a:	b2db      	uxtb	r3, r3
 8000e7c:	b29b      	uxth	r3, r3
 8000e7e:	4618      	mov	r0, r3
 8000e80:	f7ff ff76 	bl	8000d70 <LCD_WR_DATA>
 8000e84:	4b48      	ldr	r3, [pc, #288]	; (8000fa8 <LCD_SetCursor+0x1a8>)
 8000e86:	881b      	ldrh	r3, [r3, #0]
 8000e88:	3b01      	subs	r3, #1
 8000e8a:	121b      	asrs	r3, r3, #8
 8000e8c:	b29b      	uxth	r3, r3
 8000e8e:	4618      	mov	r0, r3
 8000e90:	f7ff ff6e 	bl	8000d70 <LCD_WR_DATA>
 8000e94:	4b44      	ldr	r3, [pc, #272]	; (8000fa8 <LCD_SetCursor+0x1a8>)
 8000e96:	881b      	ldrh	r3, [r3, #0]
 8000e98:	3b01      	subs	r3, #1
 8000e9a:	b29b      	uxth	r3, r3
 8000e9c:	b2db      	uxtb	r3, r3
 8000e9e:	b29b      	uxth	r3, r3
 8000ea0:	4618      	mov	r0, r3
 8000ea2:	f7ff ff65 	bl	8000d70 <LCD_WR_DATA>
 8000ea6:	4b40      	ldr	r3, [pc, #256]	; (8000fa8 <LCD_SetCursor+0x1a8>)
 8000ea8:	899b      	ldrh	r3, [r3, #12]
 8000eaa:	4618      	mov	r0, r3
 8000eac:	f7ff ff4c 	bl	8000d48 <LCD_WR_REG>
 8000eb0:	88bb      	ldrh	r3, [r7, #4]
 8000eb2:	0a1b      	lsrs	r3, r3, #8
 8000eb4:	b29b      	uxth	r3, r3
 8000eb6:	4618      	mov	r0, r3
 8000eb8:	f7ff ff5a 	bl	8000d70 <LCD_WR_DATA>
 8000ebc:	88bb      	ldrh	r3, [r7, #4]
 8000ebe:	b2db      	uxtb	r3, r3
 8000ec0:	b29b      	uxth	r3, r3
 8000ec2:	4618      	mov	r0, r3
 8000ec4:	f7ff ff54 	bl	8000d70 <LCD_WR_DATA>
 8000ec8:	4b37      	ldr	r3, [pc, #220]	; (8000fa8 <LCD_SetCursor+0x1a8>)
 8000eca:	885b      	ldrh	r3, [r3, #2]
 8000ecc:	3b01      	subs	r3, #1
 8000ece:	121b      	asrs	r3, r3, #8
 8000ed0:	b29b      	uxth	r3, r3
 8000ed2:	4618      	mov	r0, r3
 8000ed4:	f7ff ff4c 	bl	8000d70 <LCD_WR_DATA>
 8000ed8:	4b33      	ldr	r3, [pc, #204]	; (8000fa8 <LCD_SetCursor+0x1a8>)
 8000eda:	885b      	ldrh	r3, [r3, #2]
 8000edc:	3b01      	subs	r3, #1
 8000ede:	b29b      	uxth	r3, r3
 8000ee0:	b2db      	uxtb	r3, r3
 8000ee2:	b29b      	uxth	r3, r3
 8000ee4:	4618      	mov	r0, r3
 8000ee6:	f7ff ff43 	bl	8000d70 <LCD_WR_DATA>
 8000eea:	e058      	b.n	8000f9e <LCD_SetCursor+0x19e>
 8000eec:	4b2e      	ldr	r3, [pc, #184]	; (8000fa8 <LCD_SetCursor+0x1a8>)
 8000eee:	889b      	ldrh	r3, [r3, #4]
 8000ef0:	f245 5210 	movw	r2, #21776	; 0x5510
 8000ef4:	4293      	cmp	r3, r2
 8000ef6:	d130      	bne.n	8000f5a <LCD_SetCursor+0x15a>
 8000ef8:	4b2b      	ldr	r3, [pc, #172]	; (8000fa8 <LCD_SetCursor+0x1a8>)
 8000efa:	895b      	ldrh	r3, [r3, #10]
 8000efc:	4618      	mov	r0, r3
 8000efe:	f7ff ff23 	bl	8000d48 <LCD_WR_REG>
 8000f02:	88fb      	ldrh	r3, [r7, #6]
 8000f04:	0a1b      	lsrs	r3, r3, #8
 8000f06:	b29b      	uxth	r3, r3
 8000f08:	4618      	mov	r0, r3
 8000f0a:	f7ff ff31 	bl	8000d70 <LCD_WR_DATA>
 8000f0e:	4b26      	ldr	r3, [pc, #152]	; (8000fa8 <LCD_SetCursor+0x1a8>)
 8000f10:	895b      	ldrh	r3, [r3, #10]
 8000f12:	3301      	adds	r3, #1
 8000f14:	b29b      	uxth	r3, r3
 8000f16:	4618      	mov	r0, r3
 8000f18:	f7ff ff16 	bl	8000d48 <LCD_WR_REG>
 8000f1c:	88fb      	ldrh	r3, [r7, #6]
 8000f1e:	b2db      	uxtb	r3, r3
 8000f20:	b29b      	uxth	r3, r3
 8000f22:	4618      	mov	r0, r3
 8000f24:	f7ff ff24 	bl	8000d70 <LCD_WR_DATA>
 8000f28:	4b1f      	ldr	r3, [pc, #124]	; (8000fa8 <LCD_SetCursor+0x1a8>)
 8000f2a:	899b      	ldrh	r3, [r3, #12]
 8000f2c:	4618      	mov	r0, r3
 8000f2e:	f7ff ff0b 	bl	8000d48 <LCD_WR_REG>
 8000f32:	88bb      	ldrh	r3, [r7, #4]
 8000f34:	0a1b      	lsrs	r3, r3, #8
 8000f36:	b29b      	uxth	r3, r3
 8000f38:	4618      	mov	r0, r3
 8000f3a:	f7ff ff19 	bl	8000d70 <LCD_WR_DATA>
 8000f3e:	4b1a      	ldr	r3, [pc, #104]	; (8000fa8 <LCD_SetCursor+0x1a8>)
 8000f40:	899b      	ldrh	r3, [r3, #12]
 8000f42:	3301      	adds	r3, #1
 8000f44:	b29b      	uxth	r3, r3
 8000f46:	4618      	mov	r0, r3
 8000f48:	f7ff fefe 	bl	8000d48 <LCD_WR_REG>
 8000f4c:	88bb      	ldrh	r3, [r7, #4]
 8000f4e:	b2db      	uxtb	r3, r3
 8000f50:	b29b      	uxth	r3, r3
 8000f52:	4618      	mov	r0, r3
 8000f54:	f7ff ff0c 	bl	8000d70 <LCD_WR_DATA>
 8000f58:	e021      	b.n	8000f9e <LCD_SetCursor+0x19e>
 8000f5a:	4b13      	ldr	r3, [pc, #76]	; (8000fa8 <LCD_SetCursor+0x1a8>)
 8000f5c:	895b      	ldrh	r3, [r3, #10]
 8000f5e:	4618      	mov	r0, r3
 8000f60:	f7ff fef2 	bl	8000d48 <LCD_WR_REG>
 8000f64:	88fb      	ldrh	r3, [r7, #6]
 8000f66:	0a1b      	lsrs	r3, r3, #8
 8000f68:	b29b      	uxth	r3, r3
 8000f6a:	4618      	mov	r0, r3
 8000f6c:	f7ff ff00 	bl	8000d70 <LCD_WR_DATA>
 8000f70:	88fb      	ldrh	r3, [r7, #6]
 8000f72:	b2db      	uxtb	r3, r3
 8000f74:	b29b      	uxth	r3, r3
 8000f76:	4618      	mov	r0, r3
 8000f78:	f7ff fefa 	bl	8000d70 <LCD_WR_DATA>
 8000f7c:	4b0a      	ldr	r3, [pc, #40]	; (8000fa8 <LCD_SetCursor+0x1a8>)
 8000f7e:	899b      	ldrh	r3, [r3, #12]
 8000f80:	4618      	mov	r0, r3
 8000f82:	f7ff fee1 	bl	8000d48 <LCD_WR_REG>
 8000f86:	88bb      	ldrh	r3, [r7, #4]
 8000f88:	0a1b      	lsrs	r3, r3, #8
 8000f8a:	b29b      	uxth	r3, r3
 8000f8c:	4618      	mov	r0, r3
 8000f8e:	f7ff feef 	bl	8000d70 <LCD_WR_DATA>
 8000f92:	88bb      	ldrh	r3, [r7, #4]
 8000f94:	b2db      	uxtb	r3, r3
 8000f96:	b29b      	uxth	r3, r3
 8000f98:	4618      	mov	r0, r3
 8000f9a:	f7ff fee9 	bl	8000d70 <LCD_WR_DATA>
 8000f9e:	bf00      	nop
 8000fa0:	3708      	adds	r7, #8
 8000fa2:	46bd      	mov	sp, r7
 8000fa4:	bd80      	pop	{r7, pc}
 8000fa6:	bf00      	nop
 8000fa8:	20000204 	.word	0x20000204

08000fac <LCD_Scan_Dir>:
 8000fac:	b580      	push	{r7, lr}
 8000fae:	b084      	sub	sp, #16
 8000fb0:	af00      	add	r7, sp, #0
 8000fb2:	4603      	mov	r3, r0
 8000fb4:	71fb      	strb	r3, [r7, #7]
 8000fb6:	2300      	movs	r3, #0
 8000fb8:	81fb      	strh	r3, [r7, #14]
 8000fba:	2300      	movs	r3, #0
 8000fbc:	81bb      	strh	r3, [r7, #12]
 8000fbe:	4b9a      	ldr	r3, [pc, #616]	; (8001228 <LCD_Scan_Dir+0x27c>)
 8000fc0:	799b      	ldrb	r3, [r3, #6]
 8000fc2:	2b01      	cmp	r3, #1
 8000fc4:	d105      	bne.n	8000fd2 <LCD_Scan_Dir+0x26>
 8000fc6:	4b98      	ldr	r3, [pc, #608]	; (8001228 <LCD_Scan_Dir+0x27c>)
 8000fc8:	889b      	ldrh	r3, [r3, #4]
 8000fca:	f641 1263 	movw	r2, #6499	; 0x1963
 8000fce:	4293      	cmp	r3, r2
 8000fd0:	d109      	bne.n	8000fe6 <LCD_Scan_Dir+0x3a>
 8000fd2:	4b95      	ldr	r3, [pc, #596]	; (8001228 <LCD_Scan_Dir+0x27c>)
 8000fd4:	799b      	ldrb	r3, [r3, #6]
 8000fd6:	2b00      	cmp	r3, #0
 8000fd8:	d134      	bne.n	8001044 <LCD_Scan_Dir+0x98>
 8000fda:	4b93      	ldr	r3, [pc, #588]	; (8001228 <LCD_Scan_Dir+0x27c>)
 8000fdc:	889b      	ldrh	r3, [r3, #4]
 8000fde:	f641 1263 	movw	r2, #6499	; 0x1963
 8000fe2:	4293      	cmp	r3, r2
 8000fe4:	d12e      	bne.n	8001044 <LCD_Scan_Dir+0x98>
 8000fe6:	79fb      	ldrb	r3, [r7, #7]
 8000fe8:	2b07      	cmp	r3, #7
 8000fea:	d82c      	bhi.n	8001046 <LCD_Scan_Dir+0x9a>
 8000fec:	a201      	add	r2, pc, #4	; (adr r2, 8000ff4 <LCD_Scan_Dir+0x48>)
 8000fee:	f852 f023 	ldr.w	pc, [r2, r3, lsl #2]
 8000ff2:	bf00      	nop
 8000ff4:	08001015 	.word	0x08001015
 8000ff8:	0800101b 	.word	0x0800101b
 8000ffc:	08001021 	.word	0x08001021
 8001000:	08001027 	.word	0x08001027
 8001004:	0800102d 	.word	0x0800102d
 8001008:	08001033 	.word	0x08001033
 800100c:	08001039 	.word	0x08001039
 8001010:	0800103f 	.word	0x0800103f
 8001014:	2306      	movs	r3, #6
 8001016:	71fb      	strb	r3, [r7, #7]
 8001018:	e015      	b.n	8001046 <LCD_Scan_Dir+0x9a>
 800101a:	2307      	movs	r3, #7
 800101c:	71fb      	strb	r3, [r7, #7]
 800101e:	e012      	b.n	8001046 <LCD_Scan_Dir+0x9a>
 8001020:	2304      	movs	r3, #4
 8001022:	71fb      	strb	r3, [r7, #7]
 8001024:	e00f      	b.n	8001046 <LCD_Scan_Dir+0x9a>
 8001026:	2305      	movs	r3, #5
 8001028:	71fb      	strb	r3, [r7, #7]
 800102a:	e00c      	b.n	8001046 <LCD_Scan_Dir+0x9a>
 800102c:	2301      	movs	r3, #1
 800102e:	71fb      	strb	r3, [r7, #7]
 8001030:	e009      	b.n	8001046 <LCD_Scan_Dir+0x9a>
 8001032:	2300      	movs	r3, #0
 8001034:	71fb      	strb	r3, [r7, #7]
 8001036:	e006      	b.n	8001046 <LCD_Scan_Dir+0x9a>
 8001038:	2303      	movs	r3, #3
 800103a:	71fb      	strb	r3, [r7, #7]
 800103c:	e003      	b.n	8001046 <LCD_Scan_Dir+0x9a>
 800103e:	2302      	movs	r3, #2
 8001040:	71fb      	strb	r3, [r7, #7]
 8001042:	e000      	b.n	8001046 <LCD_Scan_Dir+0x9a>
 8001044:	bf00      	nop
 8001046:	79fb      	ldrb	r3, [r7, #7]
 8001048:	2b07      	cmp	r3, #7
 800104a:	d836      	bhi.n	80010ba <LCD_Scan_Dir+0x10e>
 800104c:	a201      	add	r2, pc, #4	; (adr r2, 8001054 <LCD_Scan_Dir+0xa8>)
 800104e:	f852 f023 	ldr.w	pc, [r2, r3, lsl #2]
 8001052:	bf00      	nop
 8001054:	080010bb 	.word	0x080010bb
 8001058:	08001075 	.word	0x08001075
 800105c:	0800107f 	.word	0x0800107f
 8001060:	08001089 	.word	0x08001089
 8001064:	08001093 	.word	0x08001093
 8001068:	0800109d 	.word	0x0800109d
 800106c:	080010a7 	.word	0x080010a7
 8001070:	080010b1 	.word	0x080010b1
 8001074:	89fb      	ldrh	r3, [r7, #14]
 8001076:	f043 0380 	orr.w	r3, r3, #128	; 0x80
 800107a:	81fb      	strh	r3, [r7, #14]
 800107c:	e01d      	b.n	80010ba <LCD_Scan_Dir+0x10e>
 800107e:	89fb      	ldrh	r3, [r7, #14]
 8001080:	f043 0340 	orr.w	r3, r3, #64	; 0x40
 8001084:	81fb      	strh	r3, [r7, #14]
 8001086:	e018      	b.n	80010ba <LCD_Scan_Dir+0x10e>
 8001088:	89fb      	ldrh	r3, [r7, #14]
 800108a:	f043 03c0 	orr.w	r3, r3, #192	; 0xc0
 800108e:	81fb      	strh	r3, [r7, #14]
 8001090:	e013      	b.n	80010ba <LCD_Scan_Dir+0x10e>
 8001092:	89fb      	ldrh	r3, [r7, #14]
 8001094:	f043 0320 	orr.w	r3, r3, #32
 8001098:	81fb      	strh	r3, [r7, #14]
 800109a:	e00e      	b.n	80010ba <LCD_Scan_Dir+0x10e>
 800109c:	89fb      	ldrh	r3, [r7, #14]
 800109e:	f043 0360 	orr.w	r3, r3, #96	; 0x60
 80010a2:	81fb      	strh	r3, [r7, #14]
 80010a4:	e009      	b.n	80010ba <LCD_Scan_Dir+0x10e>
 80010a6:	89fb      	ldrh	r3, [r7, #14]
 80010a8:	f043 03a0 	orr.w	r3, r3, #160	; 0xa0
 80010ac:	81fb      	strh	r3, [r7, #14]
 80010ae:	e004      	b.n	80010ba <LCD_Scan_Dir+0x10e>
 80010b0:	89fb      	ldrh	r3, [r7, #14]
 80010b2:	f043 03e0 	orr.w	r3, r3, #224	; 0xe0
 80010b6:	81fb      	strh	r3, [r7, #14]
 80010b8:	bf00      	nop
 80010ba:	4b5b      	ldr	r3, [pc, #364]	; (8001228 <LCD_Scan_Dir+0x27c>)
 80010bc:	889b      	ldrh	r3, [r3, #4]
 80010be:	f245 5210 	movw	r2, #21776	; 0x5510
 80010c2:	4293      	cmp	r3, r2
 80010c4:	d103      	bne.n	80010ce <LCD_Scan_Dir+0x122>
 80010c6:	f44f 5358 	mov.w	r3, #13824	; 0x3600
 80010ca:	81bb      	strh	r3, [r7, #12]
 80010cc:	e001      	b.n	80010d2 <LCD_Scan_Dir+0x126>
 80010ce:	2336      	movs	r3, #54	; 0x36
 80010d0:	81bb      	strh	r3, [r7, #12]
 80010d2:	4b55      	ldr	r3, [pc, #340]	; (8001228 <LCD_Scan_Dir+0x27c>)
 80010d4:	889b      	ldrh	r3, [r3, #4]
 80010d6:	f249 3241 	movw	r2, #37697	; 0x9341
 80010da:	4293      	cmp	r3, r2
 80010dc:	d005      	beq.n	80010ea <LCD_Scan_Dir+0x13e>
 80010de:	4b52      	ldr	r3, [pc, #328]	; (8001228 <LCD_Scan_Dir+0x27c>)
 80010e0:	889b      	ldrh	r3, [r3, #4]
 80010e2:	f247 7289 	movw	r2, #30601	; 0x7789
 80010e6:	4293      	cmp	r3, r2
 80010e8:	d103      	bne.n	80010f2 <LCD_Scan_Dir+0x146>
 80010ea:	89fb      	ldrh	r3, [r7, #14]
 80010ec:	f043 0308 	orr.w	r3, r3, #8
 80010f0:	81fb      	strh	r3, [r7, #14]
 80010f2:	89fa      	ldrh	r2, [r7, #14]
 80010f4:	89bb      	ldrh	r3, [r7, #12]
 80010f6:	4611      	mov	r1, r2
 80010f8:	4618      	mov	r0, r3
 80010fa:	f7ff fe5d 	bl	8000db8 <LCD_WriteReg>
 80010fe:	4b4a      	ldr	r3, [pc, #296]	; (8001228 <LCD_Scan_Dir+0x27c>)
 8001100:	889b      	ldrh	r3, [r3, #4]
 8001102:	f641 1263 	movw	r2, #6499	; 0x1963
 8001106:	4293      	cmp	r3, r2
 8001108:	d025      	beq.n	8001156 <LCD_Scan_Dir+0x1aa>
 800110a:	89fb      	ldrh	r3, [r7, #14]
 800110c:	f003 0320 	and.w	r3, r3, #32
 8001110:	2b00      	cmp	r3, #0
 8001112:	d010      	beq.n	8001136 <LCD_Scan_Dir+0x18a>
 8001114:	4b44      	ldr	r3, [pc, #272]	; (8001228 <LCD_Scan_Dir+0x27c>)
 8001116:	881a      	ldrh	r2, [r3, #0]
 8001118:	4b43      	ldr	r3, [pc, #268]	; (8001228 <LCD_Scan_Dir+0x27c>)
 800111a:	885b      	ldrh	r3, [r3, #2]
 800111c:	429a      	cmp	r2, r3
 800111e:	d21a      	bcs.n	8001156 <LCD_Scan_Dir+0x1aa>
 8001120:	4b41      	ldr	r3, [pc, #260]	; (8001228 <LCD_Scan_Dir+0x27c>)
 8001122:	881b      	ldrh	r3, [r3, #0]
 8001124:	817b      	strh	r3, [r7, #10]
 8001126:	4b40      	ldr	r3, [pc, #256]	; (8001228 <LCD_Scan_Dir+0x27c>)
 8001128:	885a      	ldrh	r2, [r3, #2]
 800112a:	4b3f      	ldr	r3, [pc, #252]	; (8001228 <LCD_Scan_Dir+0x27c>)
 800112c:	801a      	strh	r2, [r3, #0]
 800112e:	4a3e      	ldr	r2, [pc, #248]	; (8001228 <LCD_Scan_Dir+0x27c>)
 8001130:	897b      	ldrh	r3, [r7, #10]
 8001132:	8053      	strh	r3, [r2, #2]
 8001134:	e00f      	b.n	8001156 <LCD_Scan_Dir+0x1aa>
 8001136:	4b3c      	ldr	r3, [pc, #240]	; (8001228 <LCD_Scan_Dir+0x27c>)
 8001138:	881a      	ldrh	r2, [r3, #0]
 800113a:	4b3b      	ldr	r3, [pc, #236]	; (8001228 <LCD_Scan_Dir+0x27c>)
 800113c:	885b      	ldrh	r3, [r3, #2]
 800113e:	429a      	cmp	r2, r3
 8001140:	d909      	bls.n	8001156 <LCD_Scan_Dir+0x1aa>
 8001142:	4b39      	ldr	r3, [pc, #228]	; (8001228 <LCD_Scan_Dir+0x27c>)
 8001144:	881b      	ldrh	r3, [r3, #0]
 8001146:	817b      	strh	r3, [r7, #10]
 8001148:	4b37      	ldr	r3, [pc, #220]	; (8001228 <LCD_Scan_Dir+0x27c>)
 800114a:	885a      	ldrh	r2, [r3, #2]
 800114c:	4b36      	ldr	r3, [pc, #216]	; (8001228 <LCD_Scan_Dir+0x27c>)
 800114e:	801a      	strh	r2, [r3, #0]
 8001150:	4a35      	ldr	r2, [pc, #212]	; (8001228 <LCD_Scan_Dir+0x27c>)
 8001152:	897b      	ldrh	r3, [r7, #10]
 8001154:	8053      	strh	r3, [r2, #2]
 8001156:	4b34      	ldr	r3, [pc, #208]	; (8001228 <LCD_Scan_Dir+0x27c>)
 8001158:	889b      	ldrh	r3, [r3, #4]
 800115a:	f245 5210 	movw	r2, #21776	; 0x5510
 800115e:	4293      	cmp	r3, r2
 8001160:	d164      	bne.n	800122c <LCD_Scan_Dir+0x280>
 8001162:	4b31      	ldr	r3, [pc, #196]	; (8001228 <LCD_Scan_Dir+0x27c>)
 8001164:	895b      	ldrh	r3, [r3, #10]
 8001166:	4618      	mov	r0, r3
 8001168:	f7ff fdee 	bl	8000d48 <LCD_WR_REG>
 800116c:	2000      	movs	r0, #0
 800116e:	f7ff fdff 	bl	8000d70 <LCD_WR_DATA>
 8001172:	4b2d      	ldr	r3, [pc, #180]	; (8001228 <LCD_Scan_Dir+0x27c>)
 8001174:	895b      	ldrh	r3, [r3, #10]
 8001176:	3301      	adds	r3, #1
 8001178:	b29b      	uxth	r3, r3
 800117a:	4618      	mov	r0, r3
 800117c:	f7ff fde4 	bl	8000d48 <LCD_WR_REG>
 8001180:	2000      	movs	r0, #0
 8001182:	f7ff fdf5 	bl	8000d70 <LCD_WR_DATA>
 8001186:	4b28      	ldr	r3, [pc, #160]	; (8001228 <LCD_Scan_Dir+0x27c>)
 8001188:	895b      	ldrh	r3, [r3, #10]
 800118a:	3302      	adds	r3, #2
 800118c:	b29b      	uxth	r3, r3
 800118e:	4618      	mov	r0, r3
 8001190:	f7ff fdda 	bl	8000d48 <LCD_WR_REG>
 8001194:	4b24      	ldr	r3, [pc, #144]	; (8001228 <LCD_Scan_Dir+0x27c>)
 8001196:	881b      	ldrh	r3, [r3, #0]
 8001198:	3b01      	subs	r3, #1
 800119a:	121b      	asrs	r3, r3, #8
 800119c:	b29b      	uxth	r3, r3
 800119e:	4618      	mov	r0, r3
 80011a0:	f7ff fde6 	bl	8000d70 <LCD_WR_DATA>
 80011a4:	4b20      	ldr	r3, [pc, #128]	; (8001228 <LCD_Scan_Dir+0x27c>)
 80011a6:	895b      	ldrh	r3, [r3, #10]
 80011a8:	3303      	adds	r3, #3
 80011aa:	b29b      	uxth	r3, r3
 80011ac:	4618      	mov	r0, r3
 80011ae:	f7ff fdcb 	bl	8000d48 <LCD_WR_REG>
 80011b2:	4b1d      	ldr	r3, [pc, #116]	; (8001228 <LCD_Scan_Dir+0x27c>)
 80011b4:	881b      	ldrh	r3, [r3, #0]
 80011b6:	3b01      	subs	r3, #1
 80011b8:	b29b      	uxth	r3, r3
 80011ba:	b2db      	uxtb	r3, r3
 80011bc:	b29b      	uxth	r3, r3
 80011be:	4618      	mov	r0, r3
 80011c0:	f7ff fdd6 	bl	8000d70 <LCD_WR_DATA>
 80011c4:	4b18      	ldr	r3, [pc, #96]	; (8001228 <LCD_Scan_Dir+0x27c>)
 80011c6:	899b      	ldrh	r3, [r3, #12]
 80011c8:	4618      	mov	r0, r3
 80011ca:	f7ff fdbd 	bl	8000d48 <LCD_WR_REG>
 80011ce:	2000      	movs	r0, #0
 80011d0:	f7ff fdce 	bl	8000d70 <LCD_WR_DATA>
 80011d4:	4b14      	ldr	r3, [pc, #80]	; (8001228 <LCD_Scan_Dir+0x27c>)
 80011d6:	899b      	ldrh	r3, [r3, #12]
 80011d8:	3301      	adds	r3, #1
 80011da:	b29b      	uxth	r3, r3
 80011dc:	4618      	mov	r0, r3
 80011de:	f7ff fdb3 	bl	8000d48 <LCD_WR_REG>
 80011e2:	2000      	movs	r0, #0
 80011e4:	f7ff fdc4 	bl	8000d70 <LCD_WR_DATA>
 80011e8:	4b0f      	ldr	r3, [pc, #60]	; (8001228 <LCD_Scan_Dir+0x27c>)
 80011ea:	899b      	ldrh	r3, [r3, #12]
 80011ec:	3302      	adds	r3, #2
 80011ee:	b29b      	uxth	r3, r3
 80011f0:	4618      	mov	r0, r3
 80011f2:	f7ff fda9 	bl	8000d48 <LCD_WR_REG>
 80011f6:	4b0c      	ldr	r3, [pc, #48]	; (8001228 <LCD_Scan_Dir+0x27c>)
 80011f8:	885b      	ldrh	r3, [r3, #2]
 80011fa:	3b01      	subs	r3, #1
 80011fc:	121b      	asrs	r3, r3, #8
 80011fe:	b29b      	uxth	r3, r3
 8001200:	4618      	mov	r0, r3
 8001202:	f7ff fdb5 	bl	8000d70 <LCD_WR_DATA>
 8001206:	4b08      	ldr	r3, [pc, #32]	; (8001228 <LCD_Scan_Dir+0x27c>)
 8001208:	899b      	ldrh	r3, [r3, #12]
 800120a:	3303      	adds	r3, #3
 800120c:	b29b      	uxth	r3, r3
 800120e:	4618      	mov	r0, r3
 8001210:	f7ff fd9a 	bl	8000d48 <LCD_WR_REG>
 8001214:	4b04      	ldr	r3, [pc, #16]	; (8001228 <LCD_Scan_Dir+0x27c>)
 8001216:	885b      	ldrh	r3, [r3, #2]
 8001218:	3b01      	subs	r3, #1
 800121a:	b29b      	uxth	r3, r3
 800121c:	b2db      	uxtb	r3, r3
 800121e:	b29b      	uxth	r3, r3
 8001220:	4618      	mov	r0, r3
 8001222:	f7ff fda5 	bl	8000d70 <LCD_WR_DATA>
 8001226:	e039      	b.n	800129c <LCD_Scan_Dir+0x2f0>
 8001228:	20000204 	.word	0x20000204
 800122c:	4b1d      	ldr	r3, [pc, #116]	; (80012a4 <LCD_Scan_Dir+0x2f8>)
 800122e:	895b      	ldrh	r3, [r3, #10]
 8001230:	4618      	mov	r0, r3
 8001232:	f7ff fd89 	bl	8000d48 <LCD_WR_REG>
 8001236:	2000      	movs	r0, #0
 8001238:	f7ff fd9a 	bl	8000d70 <LCD_WR_DATA>
 800123c:	2000      	movs	r0, #0
 800123e:	f7ff fd97 	bl	8000d70 <LCD_WR_DATA>
 8001242:	4b18      	ldr	r3, [pc, #96]	; (80012a4 <LCD_Scan_Dir+0x2f8>)
 8001244:	881b      	ldrh	r3, [r3, #0]
 8001246:	3b01      	subs	r3, #1
 8001248:	121b      	asrs	r3, r3, #8
 800124a:	b29b      	uxth	r3, r3
 800124c:	4618      	mov	r0, r3
 800124e:	f7ff fd8f 	bl	8000d70 <LCD_WR_DATA>
 8001252:	4b14      	ldr	r3, [pc, #80]	; (80012a4 <LCD_Scan_Dir+0x2f8>)
 8001254:	881b      	ldrh	r3, [r3, #0]
 8001256:	3b01      	subs	r3, #1
 8001258:	b29b      	uxth	r3, r3
 800125a:	b2db      	uxtb	r3, r3
 800125c:	b29b      	uxth	r3, r3
 800125e:	4618      	mov	r0, r3
 8001260:	f7ff fd86 	bl	8000d70 <LCD_WR_DATA>
 8001264:	4b0f      	ldr	r3, [pc, #60]	; (80012a4 <LCD_Scan_Dir+0x2f8>)
 8001266:	899b      	ldrh	r3, [r3, #12]
 8001268:	4618      	mov	r0, r3
 800126a:	f7ff fd6d 	bl	8000d48 <LCD_WR_REG>
 800126e:	2000      	movs	r0, #0
 8001270:	f7ff fd7e 	bl	8000d70 <LCD_WR_DATA>
 8001274:	2000      	movs	r0, #0
 8001276:	f7ff fd7b 	bl	8000d70 <LCD_WR_DATA>
 800127a:	4b0a      	ldr	r3, [pc, #40]	; (80012a4 <LCD_Scan_Dir+0x2f8>)
 800127c:	885b      	ldrh	r3, [r3, #2]
 800127e:	3b01      	subs	r3, #1
 8001280:	121b      	asrs	r3, r3, #8
 8001282:	b29b      	uxth	r3, r3
 8001284:	4618      	mov	r0, r3
 8001286:	f7ff fd73 	bl	8000d70 <LCD_WR_DATA>
 800128a:	4b06      	ldr	r3, [pc, #24]	; (80012a4 <LCD_Scan_Dir+0x2f8>)
 800128c:	885b      	ldrh	r3, [r3, #2]
 800128e:	3b01      	subs	r3, #1
 8001290:	b29b      	uxth	r3, r3
 8001292:	b2db      	uxtb	r3, r3
 8001294:	b29b      	uxth	r3, r3
 8001296:	4618      	mov	r0, r3
 8001298:	f7ff fd6a 	bl	8000d70 <LCD_WR_DATA>
 800129c:	bf00      	nop
 800129e:	3710      	adds	r7, #16
 80012a0:	46bd      	mov	sp, r7
 80012a2:	bd80      	pop	{r7, pc}
 80012a4:	20000204 	.word	0x20000204

080012a8 <LCD_Fast_DrawPoint>:
 80012a8:	b580      	push	{r7, lr}
 80012aa:	b082      	sub	sp, #8
 80012ac:	af00      	add	r7, sp, #0
 80012ae:	4603      	mov	r3, r0
 80012b0:	80fb      	strh	r3, [r7, #6]
 80012b2:	460b      	mov	r3, r1
 80012b4:	80bb      	strh	r3, [r7, #4]
 80012b6:	4613      	mov	r3, r2
 80012b8:	807b      	strh	r3, [r7, #2]
 80012ba:	4b58      	ldr	r3, [pc, #352]	; (800141c <LCD_Fast_DrawPoint+0x174>)
 80012bc:	889b      	ldrh	r3, [r3, #4]
 80012be:	f245 5210 	movw	r2, #21776	; 0x5510
 80012c2:	4293      	cmp	r3, r2
 80012c4:	d130      	bne.n	8001328 <LCD_Fast_DrawPoint+0x80>
 80012c6:	4b55      	ldr	r3, [pc, #340]	; (800141c <LCD_Fast_DrawPoint+0x174>)
 80012c8:	895b      	ldrh	r3, [r3, #10]
 80012ca:	4618      	mov	r0, r3
 80012cc:	f7ff fd3c 	bl	8000d48 <LCD_WR_REG>
 80012d0:	88fb      	ldrh	r3, [r7, #6]
 80012d2:	0a1b      	lsrs	r3, r3, #8
 80012d4:	b29b      	uxth	r3, r3
 80012d6:	4618      	mov	r0, r3
 80012d8:	f7ff fd4a 	bl	8000d70 <LCD_WR_DATA>
 80012dc:	4b4f      	ldr	r3, [pc, #316]	; (800141c <LCD_Fast_DrawPoint+0x174>)
 80012de:	895b      	ldrh	r3, [r3, #10]
 80012e0:	3301      	adds	r3, #1
 80012e2:	b29b      	uxth	r3, r3
 80012e4:	4618      	mov	r0, r3
 80012e6:	f7ff fd2f 	bl	8000d48 <LCD_WR_REG>
 80012ea:	88fb      	ldrh	r3, [r7, #6]
 80012ec:	b2db      	uxtb	r3, r3
 80012ee:	b29b      	uxth	r3, r3
 80012f0:	4618      	mov	r0, r3
 80012f2:	f7ff fd3d 	bl	8000d70 <LCD_WR_DATA>
 80012f6:	4b49      	ldr	r3, [pc, #292]	; (800141c <LCD_Fast_DrawPoint+0x174>)
 80012f8:	899b      	ldrh	r3, [r3, #12]
 80012fa:	4618      	mov	r0, r3
 80012fc:	f7ff fd24 	bl	8000d48 <LCD_WR_REG>
 8001300:	88bb      	ldrh	r3, [r7, #4]
 8001302:	0a1b      	lsrs	r3, r3, #8
 8001304:	b29b      	uxth	r3, r3
 8001306:	4618      	mov	r0, r3
 8001308:	f7ff fd32 	bl	8000d70 <LCD_WR_DATA>
 800130c:	4b43      	ldr	r3, [pc, #268]	; (800141c <LCD_Fast_DrawPoint+0x174>)
 800130e:	899b      	ldrh	r3, [r3, #12]
 8001310:	3301      	adds	r3, #1
 8001312:	b29b      	uxth	r3, r3
 8001314:	4618      	mov	r0, r3
 8001316:	f7ff fd17 	bl	8000d48 <LCD_WR_REG>
 800131a:	88bb      	ldrh	r3, [r7, #4]
 800131c:	b2db      	uxtb	r3, r3
 800131e:	b29b      	uxth	r3, r3
 8001320:	4618      	mov	r0, r3
 8001322:	f7ff fd25 	bl	8000d70 <LCD_WR_DATA>
 8001326:	e06d      	b.n	8001404 <LCD_Fast_DrawPoint+0x15c>
 8001328:	4b3c      	ldr	r3, [pc, #240]	; (800141c <LCD_Fast_DrawPoint+0x174>)
 800132a:	889b      	ldrh	r3, [r3, #4]
 800132c:	f641 1263 	movw	r2, #6499	; 0x1963
 8001330:	4293      	cmp	r3, r2
 8001332:	d145      	bne.n	80013c0 <LCD_Fast_DrawPoint+0x118>
 8001334:	4b39      	ldr	r3, [pc, #228]	; (800141c <LCD_Fast_DrawPoint+0x174>)
 8001336:	799b      	ldrb	r3, [r3, #6]
 8001338:	2b00      	cmp	r3, #0
 800133a:	d106      	bne.n	800134a <LCD_Fast_DrawPoint+0xa2>
 800133c:	4b37      	ldr	r3, [pc, #220]	; (800141c <LCD_Fast_DrawPoint+0x174>)
 800133e:	881a      	ldrh	r2, [r3, #0]
 8001340:	88fb      	ldrh	r3, [r7, #6]
 8001342:	1ad3      	subs	r3, r2, r3
 8001344:	b29b      	uxth	r3, r3
 8001346:	3b01      	subs	r3, #1
 8001348:	80fb      	strh	r3, [r7, #6]
 800134a:	4b34      	ldr	r3, [pc, #208]	; (800141c <LCD_Fast_DrawPoint+0x174>)
 800134c:	895b      	ldrh	r3, [r3, #10]
 800134e:	4618      	mov	r0, r3
 8001350:	f7ff fcfa 	bl	8000d48 <LCD_WR_REG>
 8001354:	88fb      	ldrh	r3, [r7, #6]
 8001356:	0a1b      	lsrs	r3, r3, #8
 8001358:	b29b      	uxth	r3, r3
 800135a:	4618      	mov	r0, r3
 800135c:	f7ff fd08 	bl	8000d70 <LCD_WR_DATA>
 8001360:	88fb      	ldrh	r3, [r7, #6]
 8001362:	b2db      	uxtb	r3, r3
 8001364:	b29b      	uxth	r3, r3
 8001366:	4618      	mov	r0, r3
 8001368:	f7ff fd02 	bl	8000d70 <LCD_WR_DATA>
 800136c:	88fb      	ldrh	r3, [r7, #6]
 800136e:	0a1b      	lsrs	r3, r3, #8
 8001370:	b29b      	uxth	r3, r3
 8001372:	4618      	mov	r0, r3
 8001374:	f7ff fcfc 	bl	8000d70 <LCD_WR_DATA>
 8001378:	88fb      	ldrh	r3, [r7, #6]
 800137a:	b2db      	uxtb	r3, r3
 800137c:	b29b      	uxth	r3, r3
 800137e:	4618      	mov	r0, r3
 8001380:	f7ff fcf6 	bl	8000d70 <LCD_WR_DATA>
 8001384:	4b25      	ldr	r3, [pc, #148]	; (800141c <LCD_Fast_DrawPoint+0x174>)
 8001386:	899b      	ldrh	r3, [r3, #12]
 8001388:	4618      	mov	r0, r3
 800138a:	f7ff fcdd 	bl	8000d48 <LCD_WR_REG>
 800138e:	88bb      	ldrh	r3, [r7, #4]
 8001390:	0a1b      	lsrs	r3, r3, #8
 8001392:	b29b      	uxth	r3, r3
 8001394:	4618      	mov	r0, r3
 8001396:	f7ff fceb 	bl	8000d70 <LCD_WR_DATA>
 800139a:	88bb      	ldrh	r3, [r7, #4]
 800139c:	b2db      	uxtb	r3, r3
 800139e:	b29b      	uxth	r3, r3
 80013a0:	4618      	mov	r0, r3
 80013a2:	f7ff fce5 	bl	8000d70 <LCD_WR_DATA>
 80013a6:	88bb      	ldrh	r3, [r7, #4]
 80013a8:	0a1b      	lsrs	r3, r3, #8
 80013aa:	b29b      	uxth	r3, r3
 80013ac:	4618      	mov	r0, r3
 80013ae:	f7ff fcdf 	bl	8000d70 <LCD_WR_DATA>
 80013b2:	88bb      	ldrh	r3, [r7, #4]
 80013b4:	b2db      	uxtb	r3, r3
 80013b6:	b29b      	uxth	r3, r3
 80013b8:	4618      	mov	r0, r3
 80013ba:	f7ff fcd9 	bl	8000d70 <LCD_WR_DATA>
 80013be:	e021      	b.n	8001404 <LCD_Fast_DrawPoint+0x15c>
 80013c0:	4b16      	ldr	r3, [pc, #88]	; (800141c <LCD_Fast_DrawPoint+0x174>)
 80013c2:	895b      	ldrh	r3, [r3, #10]
 80013c4:	4618      	mov	r0, r3
 80013c6:	f7ff fcbf 	bl	8000d48 <LCD_WR_REG>
 80013ca:	88fb      	ldrh	r3, [r7, #6]
 80013cc:	0a1b      	lsrs	r3, r3, #8
 80013ce:	b29b      	uxth	r3, r3
 80013d0:	4618      	mov	r0, r3
 80013d2:	f7ff fccd 	bl	8000d70 <LCD_WR_DATA>
 80013d6:	88fb      	ldrh	r3, [r7, #6]
 80013d8:	b2db      	uxtb	r3, r3
 80013da:	b29b      	uxth	r3, r3
 80013dc:	4618      	mov	r0, r3
 80013de:	f7ff fcc7 	bl	8000d70 <LCD_WR_DATA>
 80013e2:	4b0e      	ldr	r3, [pc, #56]	; (800141c <LCD_Fast_DrawPoint+0x174>)
 80013e4:	899b      	ldrh	r3, [r3, #12]
 80013e6:	4618      	mov	r0, r3
 80013e8:	f7ff fcae 	bl	8000d48 <LCD_WR_REG>
 80013ec:	88bb      	ldrh	r3, [r7, #4]
 80013ee:	0a1b      	lsrs	r3, r3, #8
 80013f0:	b29b      	uxth	r3, r3
 80013f2:	4618      	mov	r0, r3
 80013f4:	f7ff fcbc 	bl	8000d70 <LCD_WR_DATA>
 80013f8:	88bb      	ldrh	r3, [r7, #4]
 80013fa:	b2db      	uxtb	r3, r3
 80013fc:	b29b      	uxth	r3, r3
 80013fe:	4618      	mov	r0, r3
 8001400:	f7ff fcb6 	bl	8000d70 <LCD_WR_DATA>
 8001404:	4b06      	ldr	r3, [pc, #24]	; (8001420 <LCD_Fast_DrawPoint+0x178>)
 8001406:	4a05      	ldr	r2, [pc, #20]	; (800141c <LCD_Fast_DrawPoint+0x174>)
 8001408:	8912      	ldrh	r2, [r2, #8]
 800140a:	801a      	strh	r2, [r3, #0]
 800140c:	4a04      	ldr	r2, [pc, #16]	; (8001420 <LCD_Fast_DrawPoint+0x178>)
 800140e:	887b      	ldrh	r3, [r7, #2]
 8001410:	8053      	strh	r3, [r2, #2]
 8001412:	bf00      	nop
 8001414:	3708      	adds	r7, #8
 8001416:	46bd      	mov	sp, r7
 8001418:	bd80      	pop	{r7, pc}
 800141a:	bf00      	nop
 800141c:	20000204 	.word	0x20000204
 8001420:	6c0007fe 	.word	0x6c0007fe
 8001424:	00000000 	.word	0x00000000

08001428 <LCD_SSD_BackLightSet>:
 8001428:	b580      	push	{r7, lr}
 800142a:	b082      	sub	sp, #8
 800142c:	af00      	add	r7, sp, #0
 800142e:	4603      	mov	r3, r0
 8001430:	71fb      	strb	r3, [r7, #7]
 8001432:	20be      	movs	r0, #190	; 0xbe
 8001434:	f7ff fc88 	bl	8000d48 <LCD_WR_REG>
 8001438:	2005      	movs	r0, #5
 800143a:	f7ff fc99 	bl	8000d70 <LCD_WR_DATA>
 800143e:	79fb      	ldrb	r3, [r7, #7]
 8001440:	4618      	mov	r0, r3
 8001442:	f7ff f84b 	bl	80004dc <__aeabi_i2d>
 8001446:	a310      	add	r3, pc, #64	; (adr r3, 8001488 <LCD_SSD_BackLightSet+0x60>)
 8001448:	e9d3 2300 	ldrd	r2, r3, [r3]
 800144c:	f7ff f8b0 	bl	80005b0 <__aeabi_dmul>
 8001450:	4602      	mov	r2, r0
 8001452:	460b      	mov	r3, r1
 8001454:	4610      	mov	r0, r2
 8001456:	4619      	mov	r1, r3
 8001458:	f7ff fb82 	bl	8000b60 <__aeabi_d2uiz>
 800145c:	4603      	mov	r3, r0
 800145e:	b29b      	uxth	r3, r3
 8001460:	4618      	mov	r0, r3
 8001462:	f7ff fc85 	bl	8000d70 <LCD_WR_DATA>
 8001466:	2001      	movs	r0, #1
 8001468:	f7ff fc82 	bl	8000d70 <LCD_WR_DATA>
 800146c:	20ff      	movs	r0, #255	; 0xff
 800146e:	f7ff fc7f 	bl	8000d70 <LCD_WR_DATA>
 8001472:	2000      	movs	r0, #0
 8001474:	f7ff fc7c 	bl	8000d70 <LCD_WR_DATA>
 8001478:	2000      	movs	r0, #0
 800147a:	f7ff fc79 	bl	8000d70 <LCD_WR_DATA>
 800147e:	bf00      	nop
 8001480:	3708      	adds	r7, #8
 8001482:	46bd      	mov	sp, r7
 8001484:	bd80      	pop	{r7, pc}
 8001486:	bf00      	nop
 8001488:	66666666 	.word	0x66666666
 800148c:	40046666 	.word	0x40046666

08001490 <LCD_Display_Dir>:
 8001490:	b580      	push	{r7, lr}
 8001492:	b082      	sub	sp, #8
 8001494:	af00      	add	r7, sp, #0
 8001496:	4603      	mov	r3, r0
 8001498:	71fb      	strb	r3, [r7, #7]
 800149a:	4a58      	ldr	r2, [pc, #352]	; (80015fc <LCD_Display_Dir+0x16c>)
 800149c:	79fb      	ldrb	r3, [r7, #7]
 800149e:	7193      	strb	r3, [r2, #6]
 80014a0:	79fb      	ldrb	r3, [r7, #7]
 80014a2:	2b00      	cmp	r3, #0
 80014a4:	d151      	bne.n	800154a <LCD_Display_Dir+0xba>
 80014a6:	4b55      	ldr	r3, [pc, #340]	; (80015fc <LCD_Display_Dir+0x16c>)
 80014a8:	22f0      	movs	r2, #240	; 0xf0
 80014aa:	801a      	strh	r2, [r3, #0]
 80014ac:	4b53      	ldr	r3, [pc, #332]	; (80015fc <LCD_Display_Dir+0x16c>)
 80014ae:	f44f 72a0 	mov.w	r2, #320	; 0x140
 80014b2:	805a      	strh	r2, [r3, #2]
 80014b4:	4b51      	ldr	r3, [pc, #324]	; (80015fc <LCD_Display_Dir+0x16c>)
 80014b6:	889b      	ldrh	r3, [r3, #4]
 80014b8:	f245 5210 	movw	r2, #21776	; 0x5510
 80014bc:	4293      	cmp	r3, r2
 80014be:	d114      	bne.n	80014ea <LCD_Display_Dir+0x5a>
 80014c0:	4b4e      	ldr	r3, [pc, #312]	; (80015fc <LCD_Display_Dir+0x16c>)
 80014c2:	f44f 5230 	mov.w	r2, #11264	; 0x2c00
 80014c6:	811a      	strh	r2, [r3, #8]
 80014c8:	4b4c      	ldr	r3, [pc, #304]	; (80015fc <LCD_Display_Dir+0x16c>)
 80014ca:	f44f 5228 	mov.w	r2, #10752	; 0x2a00
 80014ce:	815a      	strh	r2, [r3, #10]
 80014d0:	4b4a      	ldr	r3, [pc, #296]	; (80015fc <LCD_Display_Dir+0x16c>)
 80014d2:	f44f 522c 	mov.w	r2, #11008	; 0x2b00
 80014d6:	819a      	strh	r2, [r3, #12]
 80014d8:	4b48      	ldr	r3, [pc, #288]	; (80015fc <LCD_Display_Dir+0x16c>)
 80014da:	f44f 72f0 	mov.w	r2, #480	; 0x1e0
 80014de:	801a      	strh	r2, [r3, #0]
 80014e0:	4b46      	ldr	r3, [pc, #280]	; (80015fc <LCD_Display_Dir+0x16c>)
 80014e2:	f44f 7248 	mov.w	r2, #800	; 0x320
 80014e6:	805a      	strh	r2, [r3, #2]
 80014e8:	e020      	b.n	800152c <LCD_Display_Dir+0x9c>
 80014ea:	4b44      	ldr	r3, [pc, #272]	; (80015fc <LCD_Display_Dir+0x16c>)
 80014ec:	889b      	ldrh	r3, [r3, #4]
 80014ee:	f641 1263 	movw	r2, #6499	; 0x1963
 80014f2:	4293      	cmp	r3, r2
 80014f4:	d111      	bne.n	800151a <LCD_Display_Dir+0x8a>
 80014f6:	4b41      	ldr	r3, [pc, #260]	; (80015fc <LCD_Display_Dir+0x16c>)
 80014f8:	222c      	movs	r2, #44	; 0x2c
 80014fa:	811a      	strh	r2, [r3, #8]
 80014fc:	4b3f      	ldr	r3, [pc, #252]	; (80015fc <LCD_Display_Dir+0x16c>)
 80014fe:	222b      	movs	r2, #43	; 0x2b
 8001500:	815a      	strh	r2, [r3, #10]
 8001502:	4b3e      	ldr	r3, [pc, #248]	; (80015fc <LCD_Display_Dir+0x16c>)
 8001504:	222a      	movs	r2, #42	; 0x2a
 8001506:	819a      	strh	r2, [r3, #12]
 8001508:	4b3c      	ldr	r3, [pc, #240]	; (80015fc <LCD_Display_Dir+0x16c>)
 800150a:	f44f 72f0 	mov.w	r2, #480	; 0x1e0
 800150e:	801a      	strh	r2, [r3, #0]
 8001510:	4b3a      	ldr	r3, [pc, #232]	; (80015fc <LCD_Display_Dir+0x16c>)
 8001512:	f44f 7248 	mov.w	r2, #800	; 0x320
 8001516:	805a      	strh	r2, [r3, #2]
 8001518:	e008      	b.n	800152c <LCD_Display_Dir+0x9c>
 800151a:	4b38      	ldr	r3, [pc, #224]	; (80015fc <LCD_Display_Dir+0x16c>)
 800151c:	222c      	movs	r2, #44	; 0x2c
 800151e:	811a      	strh	r2, [r3, #8]
 8001520:	4b36      	ldr	r3, [pc, #216]	; (80015fc <LCD_Display_Dir+0x16c>)
 8001522:	222a      	movs	r2, #42	; 0x2a
 8001524:	815a      	strh	r2, [r3, #10]
 8001526:	4b35      	ldr	r3, [pc, #212]	; (80015fc <LCD_Display_Dir+0x16c>)
 8001528:	222b      	movs	r2, #43	; 0x2b
 800152a:	819a      	strh	r2, [r3, #12]
 800152c:	4b33      	ldr	r3, [pc, #204]	; (80015fc <LCD_Display_Dir+0x16c>)
 800152e:	889b      	ldrh	r3, [r3, #4]
 8001530:	f245 3210 	movw	r2, #21264	; 0x5310
 8001534:	4293      	cmp	r3, r2
 8001536:	d159      	bne.n	80015ec <LCD_Display_Dir+0x15c>
 8001538:	4b30      	ldr	r3, [pc, #192]	; (80015fc <LCD_Display_Dir+0x16c>)
 800153a:	f44f 72a0 	mov.w	r2, #320	; 0x140
 800153e:	801a      	strh	r2, [r3, #0]
 8001540:	4b2e      	ldr	r3, [pc, #184]	; (80015fc <LCD_Display_Dir+0x16c>)
 8001542:	f44f 72f0 	mov.w	r2, #480	; 0x1e0
 8001546:	805a      	strh	r2, [r3, #2]
 8001548:	e050      	b.n	80015ec <LCD_Display_Dir+0x15c>
 800154a:	4b2c      	ldr	r3, [pc, #176]	; (80015fc <LCD_Display_Dir+0x16c>)
 800154c:	f44f 72a0 	mov.w	r2, #320	; 0x140
 8001550:	801a      	strh	r2, [r3, #0]
 8001552:	4b2a      	ldr	r3, [pc, #168]	; (80015fc <LCD_Display_Dir+0x16c>)
 8001554:	22f0      	movs	r2, #240	; 0xf0
 8001556:	805a      	strh	r2, [r3, #2]
 8001558:	4b28      	ldr	r3, [pc, #160]	; (80015fc <LCD_Display_Dir+0x16c>)
 800155a:	889b      	ldrh	r3, [r3, #4]
 800155c:	f245 5210 	movw	r2, #21776	; 0x5510
 8001560:	4293      	cmp	r3, r2
 8001562:	d114      	bne.n	800158e <LCD_Display_Dir+0xfe>
 8001564:	4b25      	ldr	r3, [pc, #148]	; (80015fc <LCD_Display_Dir+0x16c>)
 8001566:	f44f 5230 	mov.w	r2, #11264	; 0x2c00
 800156a:	811a      	strh	r2, [r3, #8]
 800156c:	4b23      	ldr	r3, [pc, #140]	; (80015fc <LCD_Display_Dir+0x16c>)
 800156e:	f44f 5228 	mov.w	r2, #10752	; 0x2a00
 8001572:	815a      	strh	r2, [r3, #10]
 8001574:	4b21      	ldr	r3, [pc, #132]	; (80015fc <LCD_Display_Dir+0x16c>)
 8001576:	f44f 522c 	mov.w	r2, #11008	; 0x2b00
 800157a:	819a      	strh	r2, [r3, #12]
 800157c:	4b1f      	ldr	r3, [pc, #124]	; (80015fc <LCD_Display_Dir+0x16c>)
 800157e:	f44f 7248 	mov.w	r2, #800	; 0x320
 8001582:	801a      	strh	r2, [r3, #0]
 8001584:	4b1d      	ldr	r3, [pc, #116]	; (80015fc <LCD_Display_Dir+0x16c>)
 8001586:	f44f 72f0 	mov.w	r2, #480	; 0x1e0
 800158a:	805a      	strh	r2, [r3, #2]
 800158c:	e020      	b.n	80015d0 <LCD_Display_Dir+0x140>
 800158e:	4b1b      	ldr	r3, [pc, #108]	; (80015fc <LCD_Display_Dir+0x16c>)
 8001590:	889b      	ldrh	r3, [r3, #4]
 8001592:	f641 1263 	movw	r2, #6499	; 0x1963
 8001596:	4293      	cmp	r3, r2
 8001598:	d111      	bne.n	80015be <LCD_Display_Dir+0x12e>
 800159a:	4b18      	ldr	r3, [pc, #96]	; (80015fc <LCD_Display_Dir+0x16c>)
 800159c:	222c      	movs	r2, #44	; 0x2c
 800159e:	811a      	strh	r2, [r3, #8]
 80015a0:	4b16      	ldr	r3, [pc, #88]	; (80015fc <LCD_Display_Dir+0x16c>)
 80015a2:	222a      	movs	r2, #42	; 0x2a
 80015a4:	815a      	strh	r2, [r3, #10]
 80015a6:	4b15      	ldr	r3, [pc, #84]	; (80015fc <LCD_Display_Dir+0x16c>)
 80015a8:	222b      	movs	r2, #43	; 0x2b
 80015aa:	819a      	strh	r2, [r3, #12]
 80015ac:	4b13      	ldr	r3, [pc, #76]	; (80015fc <LCD_Display_Dir+0x16c>)
 80015ae:	f44f 7248 	mov.w	r2, #800	; 0x320
 80015b2:	801a      	strh	r2, [r3, #0]
 80015b4:	4b11      	ldr	r3, [pc, #68]	; (80015fc <LCD_Display_Dir+0x16c>)
 80015b6:	f44f 72f0 	mov.w	r2, #480	; 0x1e0
 80015ba:	805a      	strh	r2, [r3, #2]
 80015bc:	e008      	b.n	80015d0 <LCD_Display_Dir+0x140>
 80015be:	4b0f      	ldr	r3, [pc, #60]	; (80015fc <LCD_Display_Dir+0x16c>)
 80015c0:	222c      	movs	r2, #44	; 0x2c
 80015c2:	811a      	strh	r2, [r3, #8]
 80015c4:	4b0d      	ldr	r3, [pc, #52]	; (80015fc <LCD_Display_Dir+0x16c>)
 80015c6:	222a      	movs	r2, #42	; 0x2a
 80015c8:	815a      	strh	r2, [r3, #10]
 80015ca:	4b0c      	ldr	r3, [pc, #48]	; (80015fc <LCD_Display_Dir+0x16c>)
 80015cc:	222b      	movs	r2, #43	; 0x2b
 80015ce:	819a      	strh	r2, [r3, #12]
 80015d0:	4b0a      	ldr	r3, [pc, #40]	; (80015fc <LCD_Display_Dir+0x16c>)
 80015d2:	889b      	ldrh	r3, [r3, #4]
 80015d4:	f245 3210 	movw	r2, #21264	; 0x5310
 80015d8:	4293      	cmp	r3, r2
 80015da:	d107      	bne.n	80015ec <LCD_Display_Dir+0x15c>
 80015dc:	4b07      	ldr	r3, [pc, #28]	; (80015fc <LCD_Display_Dir+0x16c>)
 80015de:	f44f 72f0 	mov.w	r2, #480	; 0x1e0
 80015e2:	801a      	strh	r2, [r3, #0]
 80015e4:	4b05      	ldr	r3, [pc, #20]	; (80015fc <LCD_Display_Dir+0x16c>)
 80015e6:	f44f 72a0 	mov.w	r2, #320	; 0x140
 80015ea:	805a      	strh	r2, [r3, #2]
 80015ec:	2000      	movs	r0, #0
 80015ee:	f7ff fcdd 	bl	8000fac <LCD_Scan_Dir>
 80015f2:	bf00      	nop
 80015f4:	3708      	adds	r7, #8
 80015f6:	46bd      	mov	sp, r7
 80015f8:	bd80      	pop	{r7, pc}
 80015fa:	bf00      	nop
 80015fc:	20000204 	.word	0x20000204

08001600 <LCD_Init>:
 8001600:	b580      	push	{r7, lr}
 8001602:	b086      	sub	sp, #24
 8001604:	af00      	add	r7, sp, #0
 8001606:	4b8c      	ldr	r3, [pc, #560]	; (8001838 <LCD_Init+0x238>)
 8001608:	699b      	ldr	r3, [r3, #24]
 800160a:	4a8b      	ldr	r2, [pc, #556]	; (8001838 <LCD_Init+0x238>)
 800160c:	f043 0308 	orr.w	r3, r3, #8
 8001610:	6193      	str	r3, [r2, #24]
 8001612:	4b89      	ldr	r3, [pc, #548]	; (8001838 <LCD_Init+0x238>)
 8001614:	699b      	ldr	r3, [r3, #24]
 8001616:	f003 0308 	and.w	r3, r3, #8
 800161a:	607b      	str	r3, [r7, #4]
 800161c:	687b      	ldr	r3, [r7, #4]
 800161e:	2301      	movs	r3, #1
 8001620:	60bb      	str	r3, [r7, #8]
 8001622:	2301      	movs	r3, #1
 8001624:	60fb      	str	r3, [r7, #12]
 8001626:	2301      	movs	r3, #1
 8001628:	613b      	str	r3, [r7, #16]
 800162a:	2303      	movs	r3, #3
 800162c:	617b      	str	r3, [r7, #20]
 800162e:	f107 0308 	add.w	r3, r7, #8
 8001632:	4619      	mov	r1, r3
 8001634:	4881      	ldr	r0, [pc, #516]	; (800183c <LCD_Init+0x23c>)
 8001636:	f003 fe15 	bl	8005264 <HAL_GPIO_Init>
 800163a:	2032      	movs	r0, #50	; 0x32
 800163c:	f7ff fb78 	bl	8000d30 <delay_ms>
 8001640:	20d3      	movs	r0, #211	; 0xd3
 8001642:	f7ff fb81 	bl	8000d48 <LCD_WR_REG>
 8001646:	f7ff fba7 	bl	8000d98 <LCD_RD_DATA>
 800164a:	4603      	mov	r3, r0
 800164c:	461a      	mov	r2, r3
 800164e:	4b7c      	ldr	r3, [pc, #496]	; (8001840 <LCD_Init+0x240>)
 8001650:	809a      	strh	r2, [r3, #4]
 8001652:	f7ff fba1 	bl	8000d98 <LCD_RD_DATA>
 8001656:	4603      	mov	r3, r0
 8001658:	461a      	mov	r2, r3
 800165a:	4b79      	ldr	r3, [pc, #484]	; (8001840 <LCD_Init+0x240>)
 800165c:	809a      	strh	r2, [r3, #4]
 800165e:	f7ff fb9b 	bl	8000d98 <LCD_RD_DATA>
 8001662:	4603      	mov	r3, r0
 8001664:	461a      	mov	r2, r3
 8001666:	4b76      	ldr	r3, [pc, #472]	; (8001840 <LCD_Init+0x240>)
 8001668:	809a      	strh	r2, [r3, #4]
 800166a:	4b75      	ldr	r3, [pc, #468]	; (8001840 <LCD_Init+0x240>)
 800166c:	889b      	ldrh	r3, [r3, #4]
 800166e:	021b      	lsls	r3, r3, #8
 8001670:	b29a      	uxth	r2, r3
 8001672:	4b73      	ldr	r3, [pc, #460]	; (8001840 <LCD_Init+0x240>)
 8001674:	809a      	strh	r2, [r3, #4]
 8001676:	f7ff fb8f 	bl	8000d98 <LCD_RD_DATA>
 800167a:	4603      	mov	r3, r0
 800167c:	461a      	mov	r2, r3
 800167e:	4b70      	ldr	r3, [pc, #448]	; (8001840 <LCD_Init+0x240>)
 8001680:	889b      	ldrh	r3, [r3, #4]
 8001682:	4313      	orrs	r3, r2
 8001684:	b29a      	uxth	r2, r3
 8001686:	4b6e      	ldr	r3, [pc, #440]	; (8001840 <LCD_Init+0x240>)
 8001688:	809a      	strh	r2, [r3, #4]
 800168a:	4b6d      	ldr	r3, [pc, #436]	; (8001840 <LCD_Init+0x240>)
 800168c:	889b      	ldrh	r3, [r3, #4]
 800168e:	f249 3241 	movw	r2, #37697	; 0x9341
 8001692:	4293      	cmp	r3, r2
 8001694:	f000 80c7 	beq.w	8001826 <LCD_Init+0x226>
 8001698:	2004      	movs	r0, #4
 800169a:	f7ff fb55 	bl	8000d48 <LCD_WR_REG>
 800169e:	f7ff fb7b 	bl	8000d98 <LCD_RD_DATA>
 80016a2:	4603      	mov	r3, r0
 80016a4:	461a      	mov	r2, r3
 80016a6:	4b66      	ldr	r3, [pc, #408]	; (8001840 <LCD_Init+0x240>)
 80016a8:	809a      	strh	r2, [r3, #4]
 80016aa:	f7ff fb75 	bl	8000d98 <LCD_RD_DATA>
 80016ae:	4603      	mov	r3, r0
 80016b0:	461a      	mov	r2, r3
 80016b2:	4b63      	ldr	r3, [pc, #396]	; (8001840 <LCD_Init+0x240>)
 80016b4:	809a      	strh	r2, [r3, #4]
 80016b6:	f7ff fb6f 	bl	8000d98 <LCD_RD_DATA>
 80016ba:	4603      	mov	r3, r0
 80016bc:	461a      	mov	r2, r3
 80016be:	4b60      	ldr	r3, [pc, #384]	; (8001840 <LCD_Init+0x240>)
 80016c0:	809a      	strh	r2, [r3, #4]
 80016c2:	4b5f      	ldr	r3, [pc, #380]	; (8001840 <LCD_Init+0x240>)
 80016c4:	889b      	ldrh	r3, [r3, #4]
 80016c6:	021b      	lsls	r3, r3, #8
 80016c8:	b29a      	uxth	r2, r3
 80016ca:	4b5d      	ldr	r3, [pc, #372]	; (8001840 <LCD_Init+0x240>)
 80016cc:	809a      	strh	r2, [r3, #4]
 80016ce:	f7ff fb63 	bl	8000d98 <LCD_RD_DATA>
 80016d2:	4603      	mov	r3, r0
 80016d4:	461a      	mov	r2, r3
 80016d6:	4b5a      	ldr	r3, [pc, #360]	; (8001840 <LCD_Init+0x240>)
 80016d8:	889b      	ldrh	r3, [r3, #4]
 80016da:	4313      	orrs	r3, r2
 80016dc:	b29a      	uxth	r2, r3
 80016de:	4b58      	ldr	r3, [pc, #352]	; (8001840 <LCD_Init+0x240>)
 80016e0:	809a      	strh	r2, [r3, #4]
 80016e2:	4b57      	ldr	r3, [pc, #348]	; (8001840 <LCD_Init+0x240>)
 80016e4:	889b      	ldrh	r3, [r3, #4]
 80016e6:	f248 5252 	movw	r2, #34130	; 0x8552
 80016ea:	4293      	cmp	r3, r2
 80016ec:	d103      	bne.n	80016f6 <LCD_Init+0xf6>
 80016ee:	4b54      	ldr	r3, [pc, #336]	; (8001840 <LCD_Init+0x240>)
 80016f0:	f247 7289 	movw	r2, #30601	; 0x7789
 80016f4:	809a      	strh	r2, [r3, #4]
 80016f6:	4b52      	ldr	r3, [pc, #328]	; (8001840 <LCD_Init+0x240>)
 80016f8:	889b      	ldrh	r3, [r3, #4]
 80016fa:	f247 7289 	movw	r2, #30601	; 0x7789
 80016fe:	4293      	cmp	r3, r2
 8001700:	f000 8091 	beq.w	8001826 <LCD_Init+0x226>
 8001704:	20d4      	movs	r0, #212	; 0xd4
 8001706:	f7ff fb1f 	bl	8000d48 <LCD_WR_REG>
 800170a:	f7ff fb45 	bl	8000d98 <LCD_RD_DATA>
 800170e:	4603      	mov	r3, r0
 8001710:	461a      	mov	r2, r3
 8001712:	4b4b      	ldr	r3, [pc, #300]	; (8001840 <LCD_Init+0x240>)
 8001714:	809a      	strh	r2, [r3, #4]
 8001716:	f7ff fb3f 	bl	8000d98 <LCD_RD_DATA>
 800171a:	4603      	mov	r3, r0
 800171c:	461a      	mov	r2, r3
 800171e:	4b48      	ldr	r3, [pc, #288]	; (8001840 <LCD_Init+0x240>)
 8001720:	809a      	strh	r2, [r3, #4]
 8001722:	f7ff fb39 	bl	8000d98 <LCD_RD_DATA>
 8001726:	4603      	mov	r3, r0
 8001728:	461a      	mov	r2, r3
 800172a:	4b45      	ldr	r3, [pc, #276]	; (8001840 <LCD_Init+0x240>)
 800172c:	809a      	strh	r2, [r3, #4]
 800172e:	4b44      	ldr	r3, [pc, #272]	; (8001840 <LCD_Init+0x240>)
 8001730:	889b      	ldrh	r3, [r3, #4]
 8001732:	021b      	lsls	r3, r3, #8
 8001734:	b29a      	uxth	r2, r3
 8001736:	4b42      	ldr	r3, [pc, #264]	; (8001840 <LCD_Init+0x240>)
 8001738:	809a      	strh	r2, [r3, #4]
 800173a:	f7ff fb2d 	bl	8000d98 <LCD_RD_DATA>
 800173e:	4603      	mov	r3, r0
 8001740:	461a      	mov	r2, r3
 8001742:	4b3f      	ldr	r3, [pc, #252]	; (8001840 <LCD_Init+0x240>)
 8001744:	889b      	ldrh	r3, [r3, #4]
 8001746:	4313      	orrs	r3, r2
 8001748:	b29a      	uxth	r2, r3
 800174a:	4b3d      	ldr	r3, [pc, #244]	; (8001840 <LCD_Init+0x240>)
 800174c:	809a      	strh	r2, [r3, #4]
 800174e:	4b3c      	ldr	r3, [pc, #240]	; (8001840 <LCD_Init+0x240>)
 8001750:	889b      	ldrh	r3, [r3, #4]
 8001752:	f245 3210 	movw	r2, #21264	; 0x5310
 8001756:	4293      	cmp	r3, r2
 8001758:	d065      	beq.n	8001826 <LCD_Init+0x226>
 800175a:	2155      	movs	r1, #85	; 0x55
 800175c:	f44f 4070 	mov.w	r0, #61440	; 0xf000
 8001760:	f7ff fb2a 	bl	8000db8 <LCD_WriteReg>
 8001764:	21aa      	movs	r1, #170	; 0xaa
 8001766:	f24f 0001 	movw	r0, #61441	; 0xf001
 800176a:	f7ff fb25 	bl	8000db8 <LCD_WriteReg>
 800176e:	2152      	movs	r1, #82	; 0x52
 8001770:	f24f 0002 	movw	r0, #61442	; 0xf002
 8001774:	f7ff fb20 	bl	8000db8 <LCD_WriteReg>
 8001778:	2108      	movs	r1, #8
 800177a:	f24f 0003 	movw	r0, #61443	; 0xf003
 800177e:	f7ff fb1b 	bl	8000db8 <LCD_WriteReg>
 8001782:	2101      	movs	r1, #1
 8001784:	f24f 0004 	movw	r0, #61444	; 0xf004
 8001788:	f7ff fb16 	bl	8000db8 <LCD_WriteReg>
 800178c:	f44f 4045 	mov.w	r0, #50432	; 0xc500
 8001790:	f7ff fada 	bl	8000d48 <LCD_WR_REG>
 8001794:	f7ff fb00 	bl	8000d98 <LCD_RD_DATA>
 8001798:	4603      	mov	r3, r0
 800179a:	461a      	mov	r2, r3
 800179c:	4b28      	ldr	r3, [pc, #160]	; (8001840 <LCD_Init+0x240>)
 800179e:	809a      	strh	r2, [r3, #4]
 80017a0:	4b27      	ldr	r3, [pc, #156]	; (8001840 <LCD_Init+0x240>)
 80017a2:	889b      	ldrh	r3, [r3, #4]
 80017a4:	021b      	lsls	r3, r3, #8
 80017a6:	b29a      	uxth	r2, r3
 80017a8:	4b25      	ldr	r3, [pc, #148]	; (8001840 <LCD_Init+0x240>)
 80017aa:	809a      	strh	r2, [r3, #4]
 80017ac:	f24c 5001 	movw	r0, #50433	; 0xc501
 80017b0:	f7ff faca 	bl	8000d48 <LCD_WR_REG>
 80017b4:	f7ff faf0 	bl	8000d98 <LCD_RD_DATA>
 80017b8:	4603      	mov	r3, r0
 80017ba:	461a      	mov	r2, r3
 80017bc:	4b20      	ldr	r3, [pc, #128]	; (8001840 <LCD_Init+0x240>)
 80017be:	889b      	ldrh	r3, [r3, #4]
 80017c0:	4313      	orrs	r3, r2
 80017c2:	b29a      	uxth	r2, r3
 80017c4:	4b1e      	ldr	r3, [pc, #120]	; (8001840 <LCD_Init+0x240>)
 80017c6:	809a      	strh	r2, [r3, #4]
 80017c8:	4b1d      	ldr	r3, [pc, #116]	; (8001840 <LCD_Init+0x240>)
 80017ca:	889b      	ldrh	r3, [r3, #4]
 80017cc:	f245 5210 	movw	r2, #21776	; 0x5510
 80017d0:	4293      	cmp	r3, r2
 80017d2:	d028      	beq.n	8001826 <LCD_Init+0x226>
 80017d4:	20a1      	movs	r0, #161	; 0xa1
 80017d6:	f7ff fab7 	bl	8000d48 <LCD_WR_REG>
 80017da:	f7ff fadd 	bl	8000d98 <LCD_RD_DATA>
 80017de:	4603      	mov	r3, r0
 80017e0:	461a      	mov	r2, r3
 80017e2:	4b17      	ldr	r3, [pc, #92]	; (8001840 <LCD_Init+0x240>)
 80017e4:	809a      	strh	r2, [r3, #4]
 80017e6:	f7ff fad7 	bl	8000d98 <LCD_RD_DATA>
 80017ea:	4603      	mov	r3, r0
 80017ec:	461a      	mov	r2, r3
 80017ee:	4b14      	ldr	r3, [pc, #80]	; (8001840 <LCD_Init+0x240>)
 80017f0:	809a      	strh	r2, [r3, #4]
 80017f2:	4b13      	ldr	r3, [pc, #76]	; (8001840 <LCD_Init+0x240>)
 80017f4:	889b      	ldrh	r3, [r3, #4]
 80017f6:	021b      	lsls	r3, r3, #8
 80017f8:	b29a      	uxth	r2, r3
 80017fa:	4b11      	ldr	r3, [pc, #68]	; (8001840 <LCD_Init+0x240>)
 80017fc:	809a      	strh	r2, [r3, #4]
 80017fe:	f7ff facb 	bl	8000d98 <LCD_RD_DATA>
 8001802:	4603      	mov	r3, r0
 8001804:	461a      	mov	r2, r3
 8001806:	4b0e      	ldr	r3, [pc, #56]	; (8001840 <LCD_Init+0x240>)
 8001808:	889b      	ldrh	r3, [r3, #4]
 800180a:	4313      	orrs	r3, r2
 800180c:	b29a      	uxth	r2, r3
 800180e:	4b0c      	ldr	r3, [pc, #48]	; (8001840 <LCD_Init+0x240>)
 8001810:	809a      	strh	r2, [r3, #4]
 8001812:	4b0b      	ldr	r3, [pc, #44]	; (8001840 <LCD_Init+0x240>)
 8001814:	889b      	ldrh	r3, [r3, #4]
 8001816:	f245 7261 	movw	r2, #22369	; 0x5761
 800181a:	4293      	cmp	r3, r2
 800181c:	d103      	bne.n	8001826 <LCD_Init+0x226>
 800181e:	4b08      	ldr	r3, [pc, #32]	; (8001840 <LCD_Init+0x240>)
 8001820:	f641 1263 	movw	r2, #6499	; 0x1963
 8001824:	809a      	strh	r2, [r3, #4]
 8001826:	4b06      	ldr	r3, [pc, #24]	; (8001840 <LCD_Init+0x240>)
 8001828:	889b      	ldrh	r3, [r3, #4]
 800182a:	f249 3241 	movw	r2, #37697	; 0x9341
 800182e:	4293      	cmp	r3, r2
 8001830:	f040 811e 	bne.w	8001a70 <LCD_Init+0x470>
 8001834:	e006      	b.n	8001844 <LCD_Init+0x244>
 8001836:	bf00      	nop
 8001838:	40021000 	.word	0x40021000
 800183c:	40010c00 	.word	0x40010c00
 8001840:	20000204 	.word	0x20000204
 8001844:	20cf      	movs	r0, #207	; 0xcf
 8001846:	f7ff fa7f 	bl	8000d48 <LCD_WR_REG>
 800184a:	2000      	movs	r0, #0
 800184c:	f7ff fa90 	bl	8000d70 <LCD_WR_DATA>
 8001850:	20c1      	movs	r0, #193	; 0xc1
 8001852:	f7ff fa8d 	bl	8000d70 <LCD_WR_DATA>
 8001856:	2030      	movs	r0, #48	; 0x30
 8001858:	f7ff fa8a 	bl	8000d70 <LCD_WR_DATA>
 800185c:	20ed      	movs	r0, #237	; 0xed
 800185e:	f7ff fa73 	bl	8000d48 <LCD_WR_REG>
 8001862:	2064      	movs	r0, #100	; 0x64
 8001864:	f7ff fa84 	bl	8000d70 <LCD_WR_DATA>
 8001868:	2003      	movs	r0, #3
 800186a:	f7ff fa81 	bl	8000d70 <LCD_WR_DATA>
 800186e:	2012      	movs	r0, #18
 8001870:	f7ff fa7e 	bl	8000d70 <LCD_WR_DATA>
 8001874:	2081      	movs	r0, #129	; 0x81
 8001876:	f7ff fa7b 	bl	8000d70 <LCD_WR_DATA>
 800187a:	20e8      	movs	r0, #232	; 0xe8
 800187c:	f7ff fa64 	bl	8000d48 <LCD_WR_REG>
 8001880:	2085      	movs	r0, #133	; 0x85
 8001882:	f7ff fa75 	bl	8000d70 <LCD_WR_DATA>
 8001886:	2010      	movs	r0, #16
 8001888:	f7ff fa72 	bl	8000d70 <LCD_WR_DATA>
 800188c:	207a      	movs	r0, #122	; 0x7a
 800188e:	f7ff fa6f 	bl	8000d70 <LCD_WR_DATA>
 8001892:	20cb      	movs	r0, #203	; 0xcb
 8001894:	f7ff fa58 	bl	8000d48 <LCD_WR_REG>
 8001898:	2039      	movs	r0, #57	; 0x39
 800189a:	f7ff fa69 	bl	8000d70 <LCD_WR_DATA>
 800189e:	202c      	movs	r0, #44	; 0x2c
 80018a0:	f7ff fa66 	bl	8000d70 <LCD_WR_DATA>
 80018a4:	2000      	movs	r0, #0
 80018a6:	f7ff fa63 	bl	8000d70 <LCD_WR_DATA>
 80018aa:	2034      	movs	r0, #52	; 0x34
 80018ac:	f7ff fa60 	bl	8000d70 <LCD_WR_DATA>
 80018b0:	2002      	movs	r0, #2
 80018b2:	f7ff fa5d 	bl	8000d70 <LCD_WR_DATA>
 80018b6:	20f7      	movs	r0, #247	; 0xf7
 80018b8:	f7ff fa46 	bl	8000d48 <LCD_WR_REG>
 80018bc:	2020      	movs	r0, #32
 80018be:	f7ff fa57 	bl	8000d70 <LCD_WR_DATA>
 80018c2:	20ea      	movs	r0, #234	; 0xea
 80018c4:	f7ff fa40 	bl	8000d48 <LCD_WR_REG>
 80018c8:	2000      	movs	r0, #0
 80018ca:	f7ff fa51 	bl	8000d70 <LCD_WR_DATA>
 80018ce:	2000      	movs	r0, #0
 80018d0:	f7ff fa4e 	bl	8000d70 <LCD_WR_DATA>
 80018d4:	20c0      	movs	r0, #192	; 0xc0
 80018d6:	f7ff fa37 	bl	8000d48 <LCD_WR_REG>
 80018da:	201b      	movs	r0, #27
 80018dc:	f7ff fa48 	bl	8000d70 <LCD_WR_DATA>
 80018e0:	20c1      	movs	r0, #193	; 0xc1
 80018e2:	f7ff fa31 	bl	8000d48 <LCD_WR_REG>
 80018e6:	2001      	movs	r0, #1
 80018e8:	f7ff fa42 	bl	8000d70 <LCD_WR_DATA>
 80018ec:	20c5      	movs	r0, #197	; 0xc5
 80018ee:	f7ff fa2b 	bl	8000d48 <LCD_WR_REG>
 80018f2:	2030      	movs	r0, #48	; 0x30
 80018f4:	f7ff fa3c 	bl	8000d70 <LCD_WR_DATA>
 80018f8:	2030      	movs	r0, #48	; 0x30
 80018fa:	f7ff fa39 	bl	8000d70 <LCD_WR_DATA>
 80018fe:	20c7      	movs	r0, #199	; 0xc7
 8001900:	f7ff fa22 	bl	8000d48 <LCD_WR_REG>
 8001904:	20b7      	movs	r0, #183	; 0xb7
 8001906:	f7ff fa33 	bl	8000d70 <LCD_WR_DATA>
 800190a:	2036      	movs	r0, #54	; 0x36
 800190c:	f7ff fa1c 	bl	8000d48 <LCD_WR_REG>
 8001910:	2048      	movs	r0, #72	; 0x48
 8001912:	f7ff fa2d 	bl	8000d70 <LCD_WR_DATA>
 8001916:	203a      	movs	r0, #58	; 0x3a
 8001918:	f7ff fa16 	bl	8000d48 <LCD_WR_REG>
 800191c:	2055      	movs	r0, #85	; 0x55
 800191e:	f7ff fa27 	bl	8000d70 <LCD_WR_DATA>
 8001922:	20b1      	movs	r0, #177	; 0xb1
 8001924:	f7ff fa10 	bl	8000d48 <LCD_WR_REG>
 8001928:	2000      	movs	r0, #0
 800192a:	f7ff fa21 	bl	8000d70 <LCD_WR_DATA>
 800192e:	201a      	movs	r0, #26
 8001930:	f7ff fa1e 	bl	8000d70 <LCD_WR_DATA>
 8001934:	20b6      	movs	r0, #182	; 0xb6
 8001936:	f7ff fa07 	bl	8000d48 <LCD_WR_REG>
 800193a:	200a      	movs	r0, #10
 800193c:	f7ff fa18 	bl	8000d70 <LCD_WR_DATA>
 8001940:	20a2      	movs	r0, #162	; 0xa2
 8001942:	f7ff fa15 	bl	8000d70 <LCD_WR_DATA>
 8001946:	20f2      	movs	r0, #242	; 0xf2
 8001948:	f7ff f9fe 	bl	8000d48 <LCD_WR_REG>
 800194c:	2000      	movs	r0, #0
 800194e:	f7ff fa0f 	bl	8000d70 <LCD_WR_DATA>
 8001952:	2026      	movs	r0, #38	; 0x26
 8001954:	f7ff f9f8 	bl	8000d48 <LCD_WR_REG>
 8001958:	2001      	movs	r0, #1
 800195a:	f7ff fa09 	bl	8000d70 <LCD_WR_DATA>
 800195e:	20e0      	movs	r0, #224	; 0xe0
 8001960:	f7ff f9f2 	bl	8000d48 <LCD_WR_REG>
 8001964:	200f      	movs	r0, #15
 8001966:	f7ff fa03 	bl	8000d70 <LCD_WR_DATA>
 800196a:	202a      	movs	r0, #42	; 0x2a
 800196c:	f7ff fa00 	bl	8000d70 <LCD_WR_DATA>
 8001970:	2028      	movs	r0, #40	; 0x28
 8001972:	f7ff f9fd 	bl	8000d70 <LCD_WR_DATA>
 8001976:	2008      	movs	r0, #8
 8001978:	f7ff f9fa 	bl	8000d70 <LCD_WR_DATA>
 800197c:	200e      	movs	r0, #14
 800197e:	f7ff f9f7 	bl	8000d70 <LCD_WR_DATA>
 8001982:	2008      	movs	r0, #8
 8001984:	f7ff f9f4 	bl	8000d70 <LCD_WR_DATA>
 8001988:	2054      	movs	r0, #84	; 0x54
 800198a:	f7ff f9f1 	bl	8000d70 <LCD_WR_DATA>
 800198e:	20a9      	movs	r0, #169	; 0xa9
 8001990:	f7ff f9ee 	bl	8000d70 <LCD_WR_DATA>
 8001994:	2043      	movs	r0, #67	; 0x43
 8001996:	f7ff f9eb 	bl	8000d70 <LCD_WR_DATA>
 800199a:	200a      	movs	r0, #10
 800199c:	f7ff f9e8 	bl	8000d70 <LCD_WR_DATA>
 80019a0:	200f      	movs	r0, #15
 80019a2:	f7ff f9e5 	bl	8000d70 <LCD_WR_DATA>
 80019a6:	2000      	movs	r0, #0
 80019a8:	f7ff f9e2 	bl	8000d70 <LCD_WR_DATA>
 80019ac:	2000      	movs	r0, #0
 80019ae:	f7ff f9df 	bl	8000d70 <LCD_WR_DATA>
 80019b2:	2000      	movs	r0, #0
 80019b4:	f7ff f9dc 	bl	8000d70 <LCD_WR_DATA>
 80019b8:	2000      	movs	r0, #0
 80019ba:	f7ff f9d9 	bl	8000d70 <LCD_WR_DATA>
 80019be:	20e1      	movs	r0, #225	; 0xe1
 80019c0:	f7ff f9c2 	bl	8000d48 <LCD_WR_REG>
 80019c4:	2000      	movs	r0, #0
 80019c6:	f7ff f9d3 	bl	8000d70 <LCD_WR_DATA>
 80019ca:	2015      	movs	r0, #21
 80019cc:	f7ff f9d0 	bl	8000d70 <LCD_WR_DATA>
 80019d0:	2017      	movs	r0, #23
 80019d2:	f7ff f9cd 	bl	8000d70 <LCD_WR_DATA>
 80019d6:	2007      	movs	r0, #7
 80019d8:	f7ff f9ca 	bl	8000d70 <LCD_WR_DATA>
 80019dc:	2011      	movs	r0, #17
 80019de:	f7ff f9c7 	bl	8000d70 <LCD_WR_DATA>
 80019e2:	2006      	movs	r0, #6
 80019e4:	f7ff f9c4 	bl	8000d70 <LCD_WR_DATA>
 80019e8:	202b      	movs	r0, #43	; 0x2b
 80019ea:	f7ff f9c1 	bl	8000d70 <LCD_WR_DATA>
 80019ee:	2056      	movs	r0, #86	; 0x56
 80019f0:	f7ff f9be 	bl	8000d70 <LCD_WR_DATA>
 80019f4:	203c      	movs	r0, #60	; 0x3c
 80019f6:	f7ff f9bb 	bl	8000d70 <LCD_WR_DATA>
 80019fa:	2005      	movs	r0, #5
 80019fc:	f7ff f9b8 	bl	8000d70 <LCD_WR_DATA>
 8001a00:	2010      	movs	r0, #16
 8001a02:	f7ff f9b5 	bl	8000d70 <LCD_WR_DATA>
 8001a06:	200f      	movs	r0, #15
 8001a08:	f7ff f9b2 	bl	8000d70 <LCD_WR_DATA>
 8001a0c:	203f      	movs	r0, #63	; 0x3f
 8001a0e:	f7ff f9af 	bl	8000d70 <LCD_WR_DATA>
 8001a12:	203f      	movs	r0, #63	; 0x3f
 8001a14:	f7ff f9ac 	bl	8000d70 <LCD_WR_DATA>
 8001a18:	200f      	movs	r0, #15
 8001a1a:	f7ff f9a9 	bl	8000d70 <LCD_WR_DATA>
 8001a1e:	202b      	movs	r0, #43	; 0x2b
 8001a20:	f7ff f992 	bl	8000d48 <LCD_WR_REG>
 8001a24:	2000      	movs	r0, #0
 8001a26:	f7ff f9a3 	bl	8000d70 <LCD_WR_DATA>
 8001a2a:	2000      	movs	r0, #0
 8001a2c:	f7ff f9a0 	bl	8000d70 <LCD_WR_DATA>
 8001a30:	2001      	movs	r0, #1
 8001a32:	f7ff f99d 	bl	8000d70 <LCD_WR_DATA>
 8001a36:	203f      	movs	r0, #63	; 0x3f
 8001a38:	f7ff f99a 	bl	8000d70 <LCD_WR_DATA>
 8001a3c:	202a      	movs	r0, #42	; 0x2a
 8001a3e:	f7ff f983 	bl	8000d48 <LCD_WR_REG>
 8001a42:	2000      	movs	r0, #0
 8001a44:	f7ff f994 	bl	8000d70 <LCD_WR_DATA>
 8001a48:	2000      	movs	r0, #0
 8001a4a:	f7ff f991 	bl	8000d70 <LCD_WR_DATA>
 8001a4e:	2000      	movs	r0, #0
 8001a50:	f7ff f98e 	bl	8000d70 <LCD_WR_DATA>
 8001a54:	20ef      	movs	r0, #239	; 0xef
 8001a56:	f7ff f98b 	bl	8000d70 <LCD_WR_DATA>
 8001a5a:	2011      	movs	r0, #17
 8001a5c:	f7ff f974 	bl	8000d48 <LCD_WR_REG>
 8001a60:	2078      	movs	r0, #120	; 0x78
 8001a62:	f7ff f965 	bl	8000d30 <delay_ms>
 8001a66:	2029      	movs	r0, #41	; 0x29
 8001a68:	f7ff f96e 	bl	8000d48 <LCD_WR_REG>
 8001a6c:	f002 b8a8 	b.w	8003bc0 <LCD_Init+0x25c0>
 8001a70:	4b6d      	ldr	r3, [pc, #436]	; (8001c28 <LCD_Init+0x628>)
 8001a72:	889b      	ldrh	r3, [r3, #4]
 8001a74:	f247 7289 	movw	r2, #30601	; 0x7789
 8001a78:	4293      	cmp	r3, r2
 8001a7a:	f040 80d7 	bne.w	8001c2c <LCD_Init+0x62c>
 8001a7e:	2011      	movs	r0, #17
 8001a80:	f7ff f962 	bl	8000d48 <LCD_WR_REG>
 8001a84:	2078      	movs	r0, #120	; 0x78
 8001a86:	f7ff f953 	bl	8000d30 <delay_ms>
 8001a8a:	2036      	movs	r0, #54	; 0x36
 8001a8c:	f7ff f95c 	bl	8000d48 <LCD_WR_REG>
 8001a90:	2000      	movs	r0, #0
 8001a92:	f7ff f96d 	bl	8000d70 <LCD_WR_DATA>
 8001a96:	203a      	movs	r0, #58	; 0x3a
 8001a98:	f7ff f956 	bl	8000d48 <LCD_WR_REG>
 8001a9c:	2005      	movs	r0, #5
 8001a9e:	f7ff f967 	bl	8000d70 <LCD_WR_DATA>
 8001aa2:	20b2      	movs	r0, #178	; 0xb2
 8001aa4:	f7ff f950 	bl	8000d48 <LCD_WR_REG>
 8001aa8:	200c      	movs	r0, #12
 8001aaa:	f7ff f961 	bl	8000d70 <LCD_WR_DATA>
 8001aae:	200c      	movs	r0, #12
 8001ab0:	f7ff f95e 	bl	8000d70 <LCD_WR_DATA>
 8001ab4:	2000      	movs	r0, #0
 8001ab6:	f7ff f95b 	bl	8000d70 <LCD_WR_DATA>
 8001aba:	2033      	movs	r0, #51	; 0x33
 8001abc:	f7ff f958 	bl	8000d70 <LCD_WR_DATA>
 8001ac0:	2033      	movs	r0, #51	; 0x33
 8001ac2:	f7ff f955 	bl	8000d70 <LCD_WR_DATA>
 8001ac6:	20b7      	movs	r0, #183	; 0xb7
 8001ac8:	f7ff f93e 	bl	8000d48 <LCD_WR_REG>
 8001acc:	2035      	movs	r0, #53	; 0x35
 8001ace:	f7ff f94f 	bl	8000d70 <LCD_WR_DATA>
 8001ad2:	20bb      	movs	r0, #187	; 0xbb
 8001ad4:	f7ff f938 	bl	8000d48 <LCD_WR_REG>
 8001ad8:	2032      	movs	r0, #50	; 0x32
 8001ada:	f7ff f949 	bl	8000d70 <LCD_WR_DATA>
 8001ade:	20c0      	movs	r0, #192	; 0xc0
 8001ae0:	f7ff f932 	bl	8000d48 <LCD_WR_REG>
 8001ae4:	200c      	movs	r0, #12
 8001ae6:	f7ff f943 	bl	8000d70 <LCD_WR_DATA>
 8001aea:	20c2      	movs	r0, #194	; 0xc2
 8001aec:	f7ff f92c 	bl	8000d48 <LCD_WR_REG>
 8001af0:	2001      	movs	r0, #1
 8001af2:	f7ff f93d 	bl	8000d70 <LCD_WR_DATA>
 8001af6:	20c3      	movs	r0, #195	; 0xc3
 8001af8:	f7ff f926 	bl	8000d48 <LCD_WR_REG>
 8001afc:	2010      	movs	r0, #16
 8001afe:	f7ff f937 	bl	8000d70 <LCD_WR_DATA>
 8001b02:	20c4      	movs	r0, #196	; 0xc4
 8001b04:	f7ff f920 	bl	8000d48 <LCD_WR_REG>
 8001b08:	2020      	movs	r0, #32
 8001b0a:	f7ff f931 	bl	8000d70 <LCD_WR_DATA>
 8001b0e:	20c6      	movs	r0, #198	; 0xc6
 8001b10:	f7ff f91a 	bl	8000d48 <LCD_WR_REG>
 8001b14:	200f      	movs	r0, #15
 8001b16:	f7ff f92b 	bl	8000d70 <LCD_WR_DATA>
 8001b1a:	20d0      	movs	r0, #208	; 0xd0
 8001b1c:	f7ff f914 	bl	8000d48 <LCD_WR_REG>
 8001b20:	20a4      	movs	r0, #164	; 0xa4
 8001b22:	f7ff f925 	bl	8000d70 <LCD_WR_DATA>
 8001b26:	20a1      	movs	r0, #161	; 0xa1
 8001b28:	f7ff f922 	bl	8000d70 <LCD_WR_DATA>
 8001b2c:	20e0      	movs	r0, #224	; 0xe0
 8001b2e:	f7ff f90b 	bl	8000d48 <LCD_WR_REG>
 8001b32:	20d0      	movs	r0, #208	; 0xd0
 8001b34:	f7ff f91c 	bl	8000d70 <LCD_WR_DATA>
 8001b38:	2000      	movs	r0, #0
 8001b3a:	f7ff f919 	bl	8000d70 <LCD_WR_DATA>
 8001b3e:	2002      	movs	r0, #2
 8001b40:	f7ff f916 	bl	8000d70 <LCD_WR_DATA>
 8001b44:	2007      	movs	r0, #7
 8001b46:	f7ff f913 	bl	8000d70 <LCD_WR_DATA>
 8001b4a:	200a      	movs	r0, #10
 8001b4c:	f7ff f910 	bl	8000d70 <LCD_WR_DATA>
 8001b50:	2028      	movs	r0, #40	; 0x28
 8001b52:	f7ff f90d 	bl	8000d70 <LCD_WR_DATA>
 8001b56:	2032      	movs	r0, #50	; 0x32
 8001b58:	f7ff f90a 	bl	8000d70 <LCD_WR_DATA>
 8001b5c:	2044      	movs	r0, #68	; 0x44
 8001b5e:	f7ff f907 	bl	8000d70 <LCD_WR_DATA>
 8001b62:	2042      	movs	r0, #66	; 0x42
 8001b64:	f7ff f904 	bl	8000d70 <LCD_WR_DATA>
 8001b68:	2006      	movs	r0, #6
 8001b6a:	f7ff f901 	bl	8000d70 <LCD_WR_DATA>
 8001b6e:	200e      	movs	r0, #14
 8001b70:	f7ff f8fe 	bl	8000d70 <LCD_WR_DATA>
 8001b74:	2012      	movs	r0, #18
 8001b76:	f7ff f8fb 	bl	8000d70 <LCD_WR_DATA>
 8001b7a:	2014      	movs	r0, #20
 8001b7c:	f7ff f8f8 	bl	8000d70 <LCD_WR_DATA>
 8001b80:	2017      	movs	r0, #23
 8001b82:	f7ff f8f5 	bl	8000d70 <LCD_WR_DATA>
 8001b86:	20e1      	movs	r0, #225	; 0xe1
 8001b88:	f7ff f8de 	bl	8000d48 <LCD_WR_REG>
 8001b8c:	20d0      	movs	r0, #208	; 0xd0
 8001b8e:	f7ff f8ef 	bl	8000d70 <LCD_WR_DATA>
 8001b92:	2000      	movs	r0, #0
 8001b94:	f7ff f8ec 	bl	8000d70 <LCD_WR_DATA>
 8001b98:	2002      	movs	r0, #2
 8001b9a:	f7ff f8e9 	bl	8000d70 <LCD_WR_DATA>
 8001b9e:	2007      	movs	r0, #7
 8001ba0:	f7ff f8e6 	bl	8000d70 <LCD_WR_DATA>
 8001ba4:	200a      	movs	r0, #10
 8001ba6:	f7ff f8e3 	bl	8000d70 <LCD_WR_DATA>
 8001baa:	2028      	movs	r0, #40	; 0x28
 8001bac:	f7ff f8e0 	bl	8000d70 <LCD_WR_DATA>
 8001bb0:	2031      	movs	r0, #49	; 0x31
 8001bb2:	f7ff f8dd 	bl	8000d70 <LCD_WR_DATA>
 8001bb6:	2054      	movs	r0, #84	; 0x54
 8001bb8:	f7ff f8da 	bl	8000d70 <LCD_WR_DATA>
 8001bbc:	2047      	movs	r0, #71	; 0x47
 8001bbe:	f7ff f8d7 	bl	8000d70 <LCD_WR_DATA>
 8001bc2:	200e      	movs	r0, #14
 8001bc4:	f7ff f8d4 	bl	8000d70 <LCD_WR_DATA>
 8001bc8:	201c      	movs	r0, #28
 8001bca:	f7ff f8d1 	bl	8000d70 <LCD_WR_DATA>
 8001bce:	2017      	movs	r0, #23
 8001bd0:	f7ff f8ce 	bl	8000d70 <LCD_WR_DATA>
 8001bd4:	201b      	movs	r0, #27
 8001bd6:	f7ff f8cb 	bl	8000d70 <LCD_WR_DATA>
 8001bda:	201e      	movs	r0, #30
 8001bdc:	f7ff f8c8 	bl	8000d70 <LCD_WR_DATA>
 8001be0:	202a      	movs	r0, #42	; 0x2a
 8001be2:	f7ff f8b1 	bl	8000d48 <LCD_WR_REG>
 8001be6:	2000      	movs	r0, #0
 8001be8:	f7ff f8c2 	bl	8000d70 <LCD_WR_DATA>
 8001bec:	2000      	movs	r0, #0
 8001bee:	f7ff f8bf 	bl	8000d70 <LCD_WR_DATA>
 8001bf2:	2000      	movs	r0, #0
 8001bf4:	f7ff f8bc 	bl	8000d70 <LCD_WR_DATA>
 8001bf8:	20ef      	movs	r0, #239	; 0xef
 8001bfa:	f7ff f8b9 	bl	8000d70 <LCD_WR_DATA>
 8001bfe:	202b      	movs	r0, #43	; 0x2b
 8001c00:	f7ff f8a2 	bl	8000d48 <LCD_WR_REG>
 8001c04:	2000      	movs	r0, #0
 8001c06:	f7ff f8b3 	bl	8000d70 <LCD_WR_DATA>
 8001c0a:	2000      	movs	r0, #0
 8001c0c:	f7ff f8b0 	bl	8000d70 <LCD_WR_DATA>
 8001c10:	2001      	movs	r0, #1
 8001c12:	f7ff f8ad 	bl	8000d70 <LCD_WR_DATA>
 8001c16:	203f      	movs	r0, #63	; 0x3f
 8001c18:	f7ff f8aa 	bl	8000d70 <LCD_WR_DATA>
 8001c1c:	2029      	movs	r0, #41	; 0x29
 8001c1e:	f7ff f893 	bl	8000d48 <LCD_WR_REG>
 8001c22:	f001 bfcd 	b.w	8003bc0 <LCD_Init+0x25c0>
 8001c26:	bf00      	nop
 8001c28:	20000204 	.word	0x20000204
 8001c2c:	4b03      	ldr	r3, [pc, #12]	; (8001c3c <LCD_Init+0x63c>)
 8001c2e:	889b      	ldrh	r3, [r3, #4]
 8001c30:	f245 3210 	movw	r2, #21264	; 0x5310
 8001c34:	4293      	cmp	r3, r2
 8001c36:	f040 877c 	bne.w	8002b32 <LCD_Init+0x1532>
 8001c3a:	e001      	b.n	8001c40 <LCD_Init+0x640>
 8001c3c:	20000204 	.word	0x20000204
 8001c40:	20ed      	movs	r0, #237	; 0xed
 8001c42:	f7ff f881 	bl	8000d48 <LCD_WR_REG>
 8001c46:	2001      	movs	r0, #1
 8001c48:	f7ff f892 	bl	8000d70 <LCD_WR_DATA>
 8001c4c:	20fe      	movs	r0, #254	; 0xfe
 8001c4e:	f7ff f88f 	bl	8000d70 <LCD_WR_DATA>
 8001c52:	20ee      	movs	r0, #238	; 0xee
 8001c54:	f7ff f878 	bl	8000d48 <LCD_WR_REG>
 8001c58:	20de      	movs	r0, #222	; 0xde
 8001c5a:	f7ff f889 	bl	8000d70 <LCD_WR_DATA>
 8001c5e:	2021      	movs	r0, #33	; 0x21
 8001c60:	f7ff f886 	bl	8000d70 <LCD_WR_DATA>
 8001c64:	20f1      	movs	r0, #241	; 0xf1
 8001c66:	f7ff f86f 	bl	8000d48 <LCD_WR_REG>
 8001c6a:	2001      	movs	r0, #1
 8001c6c:	f7ff f880 	bl	8000d70 <LCD_WR_DATA>
 8001c70:	20df      	movs	r0, #223	; 0xdf
 8001c72:	f7ff f869 	bl	8000d48 <LCD_WR_REG>
 8001c76:	2010      	movs	r0, #16
 8001c78:	f7ff f87a 	bl	8000d70 <LCD_WR_DATA>
 8001c7c:	20c4      	movs	r0, #196	; 0xc4
 8001c7e:	f7ff f863 	bl	8000d48 <LCD_WR_REG>
 8001c82:	208f      	movs	r0, #143	; 0x8f
 8001c84:	f7ff f874 	bl	8000d70 <LCD_WR_DATA>
 8001c88:	20c6      	movs	r0, #198	; 0xc6
 8001c8a:	f7ff f85d 	bl	8000d48 <LCD_WR_REG>
 8001c8e:	2000      	movs	r0, #0
 8001c90:	f7ff f86e 	bl	8000d70 <LCD_WR_DATA>
 8001c94:	20e2      	movs	r0, #226	; 0xe2
 8001c96:	f7ff f86b 	bl	8000d70 <LCD_WR_DATA>
 8001c9a:	20e2      	movs	r0, #226	; 0xe2
 8001c9c:	f7ff f868 	bl	8000d70 <LCD_WR_DATA>
 8001ca0:	20e2      	movs	r0, #226	; 0xe2
 8001ca2:	f7ff f865 	bl	8000d70 <LCD_WR_DATA>
 8001ca6:	20bf      	movs	r0, #191	; 0xbf
 8001ca8:	f7ff f84e 	bl	8000d48 <LCD_WR_REG>
 8001cac:	20aa      	movs	r0, #170	; 0xaa
 8001cae:	f7ff f85f 	bl	8000d70 <LCD_WR_DATA>
 8001cb2:	20b0      	movs	r0, #176	; 0xb0
 8001cb4:	f7ff f848 	bl	8000d48 <LCD_WR_REG>
 8001cb8:	200d      	movs	r0, #13
 8001cba:	f7ff f859 	bl	8000d70 <LCD_WR_DATA>
 8001cbe:	2000      	movs	r0, #0
 8001cc0:	f7ff f856 	bl	8000d70 <LCD_WR_DATA>
 8001cc4:	200d      	movs	r0, #13
 8001cc6:	f7ff f853 	bl	8000d70 <LCD_WR_DATA>
 8001cca:	2000      	movs	r0, #0
 8001ccc:	f7ff f850 	bl	8000d70 <LCD_WR_DATA>
 8001cd0:	2011      	movs	r0, #17
 8001cd2:	f7ff f84d 	bl	8000d70 <LCD_WR_DATA>
 8001cd6:	2000      	movs	r0, #0
 8001cd8:	f7ff f84a 	bl	8000d70 <LCD_WR_DATA>
 8001cdc:	2019      	movs	r0, #25
 8001cde:	f7ff f847 	bl	8000d70 <LCD_WR_DATA>
 8001ce2:	2000      	movs	r0, #0
 8001ce4:	f7ff f844 	bl	8000d70 <LCD_WR_DATA>
 8001ce8:	2021      	movs	r0, #33	; 0x21
 8001cea:	f7ff f841 	bl	8000d70 <LCD_WR_DATA>
 8001cee:	2000      	movs	r0, #0
 8001cf0:	f7ff f83e 	bl	8000d70 <LCD_WR_DATA>
 8001cf4:	202d      	movs	r0, #45	; 0x2d
 8001cf6:	f7ff f83b 	bl	8000d70 <LCD_WR_DATA>
 8001cfa:	2000      	movs	r0, #0
 8001cfc:	f7ff f838 	bl	8000d70 <LCD_WR_DATA>
 8001d00:	203d      	movs	r0, #61	; 0x3d
 8001d02:	f7ff f835 	bl	8000d70 <LCD_WR_DATA>
 8001d06:	2000      	movs	r0, #0
 8001d08:	f7ff f832 	bl	8000d70 <LCD_WR_DATA>
 8001d0c:	205d      	movs	r0, #93	; 0x5d
 8001d0e:	f7ff f82f 	bl	8000d70 <LCD_WR_DATA>
 8001d12:	2000      	movs	r0, #0
 8001d14:	f7ff f82c 	bl	8000d70 <LCD_WR_DATA>
 8001d18:	205d      	movs	r0, #93	; 0x5d
 8001d1a:	f7ff f829 	bl	8000d70 <LCD_WR_DATA>
 8001d1e:	2000      	movs	r0, #0
 8001d20:	f7ff f826 	bl	8000d70 <LCD_WR_DATA>
 8001d24:	20b1      	movs	r0, #177	; 0xb1
 8001d26:	f7ff f80f 	bl	8000d48 <LCD_WR_REG>
 8001d2a:	2080      	movs	r0, #128	; 0x80
 8001d2c:	f7ff f820 	bl	8000d70 <LCD_WR_DATA>
 8001d30:	2000      	movs	r0, #0
 8001d32:	f7ff f81d 	bl	8000d70 <LCD_WR_DATA>
 8001d36:	208b      	movs	r0, #139	; 0x8b
 8001d38:	f7ff f81a 	bl	8000d70 <LCD_WR_DATA>
 8001d3c:	2000      	movs	r0, #0
 8001d3e:	f7ff f817 	bl	8000d70 <LCD_WR_DATA>
 8001d42:	2096      	movs	r0, #150	; 0x96
 8001d44:	f7ff f814 	bl	8000d70 <LCD_WR_DATA>
 8001d48:	2000      	movs	r0, #0
 8001d4a:	f7ff f811 	bl	8000d70 <LCD_WR_DATA>
 8001d4e:	20b2      	movs	r0, #178	; 0xb2
 8001d50:	f7fe fffa 	bl	8000d48 <LCD_WR_REG>
 8001d54:	2000      	movs	r0, #0
 8001d56:	f7ff f80b 	bl	8000d70 <LCD_WR_DATA>
 8001d5a:	2000      	movs	r0, #0
 8001d5c:	f7ff f808 	bl	8000d70 <LCD_WR_DATA>
 8001d60:	2002      	movs	r0, #2
 8001d62:	f7ff f805 	bl	8000d70 <LCD_WR_DATA>
 8001d66:	2000      	movs	r0, #0
 8001d68:	f7ff f802 	bl	8000d70 <LCD_WR_DATA>
 8001d6c:	2003      	movs	r0, #3
 8001d6e:	f7fe ffff 	bl	8000d70 <LCD_WR_DATA>
 8001d72:	2000      	movs	r0, #0
 8001d74:	f7fe fffc 	bl	8000d70 <LCD_WR_DATA>
 8001d78:	20b3      	movs	r0, #179	; 0xb3
 8001d7a:	f7fe ffe5 	bl	8000d48 <LCD_WR_REG>
 8001d7e:	2000      	movs	r0, #0
 8001d80:	f7fe fff6 	bl	8000d70 <LCD_WR_DATA>
 8001d84:	2000      	movs	r0, #0
 8001d86:	f7fe fff3 	bl	8000d70 <LCD_WR_DATA>
 8001d8a:	2000      	movs	r0, #0
 8001d8c:	f7fe fff0 	bl	8000d70 <LCD_WR_DATA>
 8001d90:	2000      	movs	r0, #0
 8001d92:	f7fe ffed 	bl	8000d70 <LCD_WR_DATA>
 8001d96:	2000      	movs	r0, #0
 8001d98:	f7fe ffea 	bl	8000d70 <LCD_WR_DATA>
 8001d9c:	2000      	movs	r0, #0
 8001d9e:	f7fe ffe7 	bl	8000d70 <LCD_WR_DATA>
 8001da2:	2000      	movs	r0, #0
 8001da4:	f7fe ffe4 	bl	8000d70 <LCD_WR_DATA>
 8001da8:	2000      	movs	r0, #0
 8001daa:	f7fe ffe1 	bl	8000d70 <LCD_WR_DATA>
 8001dae:	2000      	movs	r0, #0
 8001db0:	f7fe ffde 	bl	8000d70 <LCD_WR_DATA>
 8001db4:	2000      	movs	r0, #0
 8001db6:	f7fe ffdb 	bl	8000d70 <LCD_WR_DATA>
 8001dba:	2000      	movs	r0, #0
 8001dbc:	f7fe ffd8 	bl	8000d70 <LCD_WR_DATA>
 8001dc0:	2000      	movs	r0, #0
 8001dc2:	f7fe ffd5 	bl	8000d70 <LCD_WR_DATA>
 8001dc6:	2000      	movs	r0, #0
 8001dc8:	f7fe ffd2 	bl	8000d70 <LCD_WR_DATA>
 8001dcc:	2000      	movs	r0, #0
 8001dce:	f7fe ffcf 	bl	8000d70 <LCD_WR_DATA>
 8001dd2:	2000      	movs	r0, #0
 8001dd4:	f7fe ffcc 	bl	8000d70 <LCD_WR_DATA>
 8001dd8:	2000      	movs	r0, #0
 8001dda:	f7fe ffc9 	bl	8000d70 <LCD_WR_DATA>
 8001dde:	2000      	movs	r0, #0
 8001de0:	f7fe ffc6 	bl	8000d70 <LCD_WR_DATA>
 8001de4:	2000      	movs	r0, #0
 8001de6:	f7fe ffc3 	bl	8000d70 <LCD_WR_DATA>
 8001dea:	2000      	movs	r0, #0
 8001dec:	f7fe ffc0 	bl	8000d70 <LCD_WR_DATA>
 8001df0:	2000      	movs	r0, #0
 8001df2:	f7fe ffbd 	bl	8000d70 <LCD_WR_DATA>
 8001df6:	2000      	movs	r0, #0
 8001df8:	f7fe ffba 	bl	8000d70 <LCD_WR_DATA>
 8001dfc:	2000      	movs	r0, #0
 8001dfe:	f7fe ffb7 	bl	8000d70 <LCD_WR_DATA>
 8001e02:	2000      	movs	r0, #0
 8001e04:	f7fe ffb4 	bl	8000d70 <LCD_WR_DATA>
 8001e08:	2000      	movs	r0, #0
 8001e0a:	f7fe ffb1 	bl	8000d70 <LCD_WR_DATA>
 8001e0e:	20b4      	movs	r0, #180	; 0xb4
 8001e10:	f7fe ff9a 	bl	8000d48 <LCD_WR_REG>
 8001e14:	208b      	movs	r0, #139	; 0x8b
 8001e16:	f7fe ffab 	bl	8000d70 <LCD_WR_DATA>
 8001e1a:	2000      	movs	r0, #0
 8001e1c:	f7fe ffa8 	bl	8000d70 <LCD_WR_DATA>
 8001e20:	2096      	movs	r0, #150	; 0x96
 8001e22:	f7fe ffa5 	bl	8000d70 <LCD_WR_DATA>
 8001e26:	2000      	movs	r0, #0
 8001e28:	f7fe ffa2 	bl	8000d70 <LCD_WR_DATA>
 8001e2c:	20a1      	movs	r0, #161	; 0xa1
 8001e2e:	f7fe ff9f 	bl	8000d70 <LCD_WR_DATA>
 8001e32:	2000      	movs	r0, #0
 8001e34:	f7fe ff9c 	bl	8000d70 <LCD_WR_DATA>
 8001e38:	20b5      	movs	r0, #181	; 0xb5
 8001e3a:	f7fe ff85 	bl	8000d48 <LCD_WR_REG>
 8001e3e:	2002      	movs	r0, #2
 8001e40:	f7fe ff96 	bl	8000d70 <LCD_WR_DATA>
 8001e44:	2000      	movs	r0, #0
 8001e46:	f7fe ff93 	bl	8000d70 <LCD_WR_DATA>
 8001e4a:	2003      	movs	r0, #3
 8001e4c:	f7fe ff90 	bl	8000d70 <LCD_WR_DATA>
 8001e50:	2000      	movs	r0, #0
 8001e52:	f7fe ff8d 	bl	8000d70 <LCD_WR_DATA>
 8001e56:	2004      	movs	r0, #4
 8001e58:	f7fe ff8a 	bl	8000d70 <LCD_WR_DATA>
 8001e5c:	2000      	movs	r0, #0
 8001e5e:	f7fe ff87 	bl	8000d70 <LCD_WR_DATA>
 8001e62:	20b6      	movs	r0, #182	; 0xb6
 8001e64:	f7fe ff70 	bl	8000d48 <LCD_WR_REG>
 8001e68:	2000      	movs	r0, #0
 8001e6a:	f7fe ff81 	bl	8000d70 <LCD_WR_DATA>
 8001e6e:	2000      	movs	r0, #0
 8001e70:	f7fe ff7e 	bl	8000d70 <LCD_WR_DATA>
 8001e74:	20b7      	movs	r0, #183	; 0xb7
 8001e76:	f7fe ff67 	bl	8000d48 <LCD_WR_REG>
 8001e7a:	2000      	movs	r0, #0
 8001e7c:	f7fe ff78 	bl	8000d70 <LCD_WR_DATA>
 8001e80:	2000      	movs	r0, #0
 8001e82:	f7fe ff75 	bl	8000d70 <LCD_WR_DATA>
 8001e86:	203f      	movs	r0, #63	; 0x3f
 8001e88:	f7fe ff72 	bl	8000d70 <LCD_WR_DATA>
 8001e8c:	2000      	movs	r0, #0
 8001e8e:	f7fe ff6f 	bl	8000d70 <LCD_WR_DATA>
 8001e92:	205e      	movs	r0, #94	; 0x5e
 8001e94:	f7fe ff6c 	bl	8000d70 <LCD_WR_DATA>
 8001e98:	2000      	movs	r0, #0
 8001e9a:	f7fe ff69 	bl	8000d70 <LCD_WR_DATA>
 8001e9e:	2064      	movs	r0, #100	; 0x64
 8001ea0:	f7fe ff66 	bl	8000d70 <LCD_WR_DATA>
 8001ea4:	2000      	movs	r0, #0
 8001ea6:	f7fe ff63 	bl	8000d70 <LCD_WR_DATA>
 8001eaa:	208c      	movs	r0, #140	; 0x8c
 8001eac:	f7fe ff60 	bl	8000d70 <LCD_WR_DATA>
 8001eb0:	2000      	movs	r0, #0
 8001eb2:	f7fe ff5d 	bl	8000d70 <LCD_WR_DATA>
 8001eb6:	20ac      	movs	r0, #172	; 0xac
 8001eb8:	f7fe ff5a 	bl	8000d70 <LCD_WR_DATA>
 8001ebc:	2000      	movs	r0, #0
 8001ebe:	f7fe ff57 	bl	8000d70 <LCD_WR_DATA>
 8001ec2:	20dc      	movs	r0, #220	; 0xdc
 8001ec4:	f7fe ff54 	bl	8000d70 <LCD_WR_DATA>
 8001ec8:	2000      	movs	r0, #0
 8001eca:	f7fe ff51 	bl	8000d70 <LCD_WR_DATA>
 8001ece:	2070      	movs	r0, #112	; 0x70
 8001ed0:	f7fe ff4e 	bl	8000d70 <LCD_WR_DATA>
 8001ed4:	2000      	movs	r0, #0
 8001ed6:	f7fe ff4b 	bl	8000d70 <LCD_WR_DATA>
 8001eda:	2090      	movs	r0, #144	; 0x90
 8001edc:	f7fe ff48 	bl	8000d70 <LCD_WR_DATA>
 8001ee0:	2000      	movs	r0, #0
 8001ee2:	f7fe ff45 	bl	8000d70 <LCD_WR_DATA>
 8001ee6:	20eb      	movs	r0, #235	; 0xeb
 8001ee8:	f7fe ff42 	bl	8000d70 <LCD_WR_DATA>
 8001eec:	2000      	movs	r0, #0
 8001eee:	f7fe ff3f 	bl	8000d70 <LCD_WR_DATA>
 8001ef2:	20dc      	movs	r0, #220	; 0xdc
 8001ef4:	f7fe ff3c 	bl	8000d70 <LCD_WR_DATA>
 8001ef8:	2000      	movs	r0, #0
 8001efa:	f7fe ff39 	bl	8000d70 <LCD_WR_DATA>
 8001efe:	20b8      	movs	r0, #184	; 0xb8
 8001f00:	f7fe ff22 	bl	8000d48 <LCD_WR_REG>
 8001f04:	2000      	movs	r0, #0
 8001f06:	f7fe ff33 	bl	8000d70 <LCD_WR_DATA>
 8001f0a:	2000      	movs	r0, #0
 8001f0c:	f7fe ff30 	bl	8000d70 <LCD_WR_DATA>
 8001f10:	2000      	movs	r0, #0
 8001f12:	f7fe ff2d 	bl	8000d70 <LCD_WR_DATA>
 8001f16:	2000      	movs	r0, #0
 8001f18:	f7fe ff2a 	bl	8000d70 <LCD_WR_DATA>
 8001f1c:	2000      	movs	r0, #0
 8001f1e:	f7fe ff27 	bl	8000d70 <LCD_WR_DATA>
 8001f22:	2000      	movs	r0, #0
 8001f24:	f7fe ff24 	bl	8000d70 <LCD_WR_DATA>
 8001f28:	2000      	movs	r0, #0
 8001f2a:	f7fe ff21 	bl	8000d70 <LCD_WR_DATA>
 8001f2e:	2000      	movs	r0, #0
 8001f30:	f7fe ff1e 	bl	8000d70 <LCD_WR_DATA>
 8001f34:	20ba      	movs	r0, #186	; 0xba
 8001f36:	f7fe ff07 	bl	8000d48 <LCD_WR_REG>
 8001f3a:	2024      	movs	r0, #36	; 0x24
 8001f3c:	f7fe ff18 	bl	8000d70 <LCD_WR_DATA>
 8001f40:	2000      	movs	r0, #0
 8001f42:	f7fe ff15 	bl	8000d70 <LCD_WR_DATA>
 8001f46:	2000      	movs	r0, #0
 8001f48:	f7fe ff12 	bl	8000d70 <LCD_WR_DATA>
 8001f4c:	2000      	movs	r0, #0
 8001f4e:	f7fe ff0f 	bl	8000d70 <LCD_WR_DATA>
 8001f52:	20c1      	movs	r0, #193	; 0xc1
 8001f54:	f7fe fef8 	bl	8000d48 <LCD_WR_REG>
 8001f58:	2020      	movs	r0, #32
 8001f5a:	f7fe ff09 	bl	8000d70 <LCD_WR_DATA>
 8001f5e:	2000      	movs	r0, #0
 8001f60:	f7fe ff06 	bl	8000d70 <LCD_WR_DATA>
 8001f64:	2054      	movs	r0, #84	; 0x54
 8001f66:	f7fe ff03 	bl	8000d70 <LCD_WR_DATA>
 8001f6a:	2000      	movs	r0, #0
 8001f6c:	f7fe ff00 	bl	8000d70 <LCD_WR_DATA>
 8001f70:	20ff      	movs	r0, #255	; 0xff
 8001f72:	f7fe fefd 	bl	8000d70 <LCD_WR_DATA>
 8001f76:	2000      	movs	r0, #0
 8001f78:	f7fe fefa 	bl	8000d70 <LCD_WR_DATA>
 8001f7c:	20c2      	movs	r0, #194	; 0xc2
 8001f7e:	f7fe fee3 	bl	8000d48 <LCD_WR_REG>
 8001f82:	200a      	movs	r0, #10
 8001f84:	f7fe fef4 	bl	8000d70 <LCD_WR_DATA>
 8001f88:	2000      	movs	r0, #0
 8001f8a:	f7fe fef1 	bl	8000d70 <LCD_WR_DATA>
 8001f8e:	2004      	movs	r0, #4
 8001f90:	f7fe feee 	bl	8000d70 <LCD_WR_DATA>
 8001f94:	2000      	movs	r0, #0
 8001f96:	f7fe feeb 	bl	8000d70 <LCD_WR_DATA>
 8001f9a:	20c3      	movs	r0, #195	; 0xc3
 8001f9c:	f7fe fed4 	bl	8000d48 <LCD_WR_REG>
 8001fa0:	203c      	movs	r0, #60	; 0x3c
 8001fa2:	f7fe fee5 	bl	8000d70 <LCD_WR_DATA>
 8001fa6:	2000      	movs	r0, #0
 8001fa8:	f7fe fee2 	bl	8000d70 <LCD_WR_DATA>
 8001fac:	203a      	movs	r0, #58	; 0x3a
 8001fae:	f7fe fedf 	bl	8000d70 <LCD_WR_DATA>
 8001fb2:	2000      	movs	r0, #0
 8001fb4:	f7fe fedc 	bl	8000d70 <LCD_WR_DATA>
 8001fb8:	2039      	movs	r0, #57	; 0x39
 8001fba:	f7fe fed9 	bl	8000d70 <LCD_WR_DATA>
 8001fbe:	2000      	movs	r0, #0
 8001fc0:	f7fe fed6 	bl	8000d70 <LCD_WR_DATA>
 8001fc4:	2037      	movs	r0, #55	; 0x37
 8001fc6:	f7fe fed3 	bl	8000d70 <LCD_WR_DATA>
 8001fca:	2000      	movs	r0, #0
 8001fcc:	f7fe fed0 	bl	8000d70 <LCD_WR_DATA>
 8001fd0:	203c      	movs	r0, #60	; 0x3c
 8001fd2:	f7fe fecd 	bl	8000d70 <LCD_WR_DATA>
 8001fd6:	2000      	movs	r0, #0
 8001fd8:	f7fe feca 	bl	8000d70 <LCD_WR_DATA>
 8001fdc:	2036      	movs	r0, #54	; 0x36
 8001fde:	f7fe fec7 	bl	8000d70 <LCD_WR_DATA>
 8001fe2:	2000      	movs	r0, #0
 8001fe4:	f7fe fec4 	bl	8000d70 <LCD_WR_DATA>
 8001fe8:	2032      	movs	r0, #50	; 0x32
 8001fea:	f7fe fec1 	bl	8000d70 <LCD_WR_DATA>
 8001fee:	2000      	movs	r0, #0
 8001ff0:	f7fe febe 	bl	8000d70 <LCD_WR_DATA>
 8001ff4:	202f      	movs	r0, #47	; 0x2f
 8001ff6:	f7fe febb 	bl	8000d70 <LCD_WR_DATA>
 8001ffa:	2000      	movs	r0, #0
 8001ffc:	f7fe feb8 	bl	8000d70 <LCD_WR_DATA>
 8002000:	202c      	movs	r0, #44	; 0x2c
 8002002:	f7fe feb5 	bl	8000d70 <LCD_WR_DATA>
 8002006:	2000      	movs	r0, #0
 8002008:	f7fe feb2 	bl	8000d70 <LCD_WR_DATA>
 800200c:	2029      	movs	r0, #41	; 0x29
 800200e:	f7fe feaf 	bl	8000d70 <LCD_WR_DATA>
 8002012:	2000      	movs	r0, #0
 8002014:	f7fe feac 	bl	8000d70 <LCD_WR_DATA>
 8002018:	2026      	movs	r0, #38	; 0x26
 800201a:	f7fe fea9 	bl	8000d70 <LCD_WR_DATA>
 800201e:	2000      	movs	r0, #0
 8002020:	f7fe fea6 	bl	8000d70 <LCD_WR_DATA>
 8002024:	2024      	movs	r0, #36	; 0x24
 8002026:	f7fe fea3 	bl	8000d70 <LCD_WR_DATA>
 800202a:	2000      	movs	r0, #0
 800202c:	f7fe fea0 	bl	8000d70 <LCD_WR_DATA>
 8002030:	2024      	movs	r0, #36	; 0x24
 8002032:	f7fe fe9d 	bl	8000d70 <LCD_WR_DATA>
 8002036:	2000      	movs	r0, #0
 8002038:	f7fe fe9a 	bl	8000d70 <LCD_WR_DATA>
 800203c:	2023      	movs	r0, #35	; 0x23
 800203e:	f7fe fe97 	bl	8000d70 <LCD_WR_DATA>
 8002042:	2000      	movs	r0, #0
 8002044:	f7fe fe94 	bl	8000d70 <LCD_WR_DATA>
 8002048:	203c      	movs	r0, #60	; 0x3c
 800204a:	f7fe fe91 	bl	8000d70 <LCD_WR_DATA>
 800204e:	2000      	movs	r0, #0
 8002050:	f7fe fe8e 	bl	8000d70 <LCD_WR_DATA>
 8002054:	2036      	movs	r0, #54	; 0x36
 8002056:	f7fe fe8b 	bl	8000d70 <LCD_WR_DATA>
 800205a:	2000      	movs	r0, #0
 800205c:	f7fe fe88 	bl	8000d70 <LCD_WR_DATA>
 8002060:	2032      	movs	r0, #50	; 0x32
 8002062:	f7fe fe85 	bl	8000d70 <LCD_WR_DATA>
 8002066:	2000      	movs	r0, #0
 8002068:	f7fe fe82 	bl	8000d70 <LCD_WR_DATA>
 800206c:	202f      	movs	r0, #47	; 0x2f
 800206e:	f7fe fe7f 	bl	8000d70 <LCD_WR_DATA>
 8002072:	2000      	movs	r0, #0
 8002074:	f7fe fe7c 	bl	8000d70 <LCD_WR_DATA>
 8002078:	202c      	movs	r0, #44	; 0x2c
 800207a:	f7fe fe79 	bl	8000d70 <LCD_WR_DATA>
 800207e:	2000      	movs	r0, #0
 8002080:	f7fe fe76 	bl	8000d70 <LCD_WR_DATA>
 8002084:	2029      	movs	r0, #41	; 0x29
 8002086:	f7fe fe73 	bl	8000d70 <LCD_WR_DATA>
 800208a:	2000      	movs	r0, #0
 800208c:	f7fe fe70 	bl	8000d70 <LCD_WR_DATA>
 8002090:	2026      	movs	r0, #38	; 0x26
 8002092:	f7fe fe6d 	bl	8000d70 <LCD_WR_DATA>
 8002096:	2000      	movs	r0, #0
 8002098:	f7fe fe6a 	bl	8000d70 <LCD_WR_DATA>
 800209c:	2024      	movs	r0, #36	; 0x24
 800209e:	f7fe fe67 	bl	8000d70 <LCD_WR_DATA>
 80020a2:	2000      	movs	r0, #0
 80020a4:	f7fe fe64 	bl	8000d70 <LCD_WR_DATA>
 80020a8:	2024      	movs	r0, #36	; 0x24
 80020aa:	f7fe fe61 	bl	8000d70 <LCD_WR_DATA>
 80020ae:	2000      	movs	r0, #0
 80020b0:	f7fe fe5e 	bl	8000d70 <LCD_WR_DATA>
 80020b4:	2023      	movs	r0, #35	; 0x23
 80020b6:	f7fe fe5b 	bl	8000d70 <LCD_WR_DATA>
 80020ba:	2000      	movs	r0, #0
 80020bc:	f7fe fe58 	bl	8000d70 <LCD_WR_DATA>
 80020c0:	20c4      	movs	r0, #196	; 0xc4
 80020c2:	f7fe fe41 	bl	8000d48 <LCD_WR_REG>
 80020c6:	2062      	movs	r0, #98	; 0x62
 80020c8:	f7fe fe52 	bl	8000d70 <LCD_WR_DATA>
 80020cc:	2000      	movs	r0, #0
 80020ce:	f7fe fe4f 	bl	8000d70 <LCD_WR_DATA>
 80020d2:	2005      	movs	r0, #5
 80020d4:	f7fe fe4c 	bl	8000d70 <LCD_WR_DATA>
 80020d8:	2000      	movs	r0, #0
 80020da:	f7fe fe49 	bl	8000d70 <LCD_WR_DATA>
 80020de:	2084      	movs	r0, #132	; 0x84
 80020e0:	f7fe fe46 	bl	8000d70 <LCD_WR_DATA>
 80020e4:	2000      	movs	r0, #0
 80020e6:	f7fe fe43 	bl	8000d70 <LCD_WR_DATA>
 80020ea:	20f0      	movs	r0, #240	; 0xf0
 80020ec:	f7fe fe40 	bl	8000d70 <LCD_WR_DATA>
 80020f0:	2000      	movs	r0, #0
 80020f2:	f7fe fe3d 	bl	8000d70 <LCD_WR_DATA>
 80020f6:	2018      	movs	r0, #24
 80020f8:	f7fe fe3a 	bl	8000d70 <LCD_WR_DATA>
 80020fc:	2000      	movs	r0, #0
 80020fe:	f7fe fe37 	bl	8000d70 <LCD_WR_DATA>
 8002102:	20a4      	movs	r0, #164	; 0xa4
 8002104:	f7fe fe34 	bl	8000d70 <LCD_WR_DATA>
 8002108:	2000      	movs	r0, #0
 800210a:	f7fe fe31 	bl	8000d70 <LCD_WR_DATA>
 800210e:	2018      	movs	r0, #24
 8002110:	f7fe fe2e 	bl	8000d70 <LCD_WR_DATA>
 8002114:	2000      	movs	r0, #0
 8002116:	f7fe fe2b 	bl	8000d70 <LCD_WR_DATA>
 800211a:	2050      	movs	r0, #80	; 0x50
 800211c:	f7fe fe28 	bl	8000d70 <LCD_WR_DATA>
 8002120:	2000      	movs	r0, #0
 8002122:	f7fe fe25 	bl	8000d70 <LCD_WR_DATA>
 8002126:	200c      	movs	r0, #12
 8002128:	f7fe fe22 	bl	8000d70 <LCD_WR_DATA>
 800212c:	2000      	movs	r0, #0
 800212e:	f7fe fe1f 	bl	8000d70 <LCD_WR_DATA>
 8002132:	2017      	movs	r0, #23
 8002134:	f7fe fe1c 	bl	8000d70 <LCD_WR_DATA>
 8002138:	2000      	movs	r0, #0
 800213a:	f7fe fe19 	bl	8000d70 <LCD_WR_DATA>
 800213e:	2095      	movs	r0, #149	; 0x95
 8002140:	f7fe fe16 	bl	8000d70 <LCD_WR_DATA>
 8002144:	2000      	movs	r0, #0
 8002146:	f7fe fe13 	bl	8000d70 <LCD_WR_DATA>
 800214a:	20f3      	movs	r0, #243	; 0xf3
 800214c:	f7fe fe10 	bl	8000d70 <LCD_WR_DATA>
 8002150:	2000      	movs	r0, #0
 8002152:	f7fe fe0d 	bl	8000d70 <LCD_WR_DATA>
 8002156:	20e6      	movs	r0, #230	; 0xe6
 8002158:	f7fe fe0a 	bl	8000d70 <LCD_WR_DATA>
 800215c:	2000      	movs	r0, #0
 800215e:	f7fe fe07 	bl	8000d70 <LCD_WR_DATA>
 8002162:	20c5      	movs	r0, #197	; 0xc5
 8002164:	f7fe fdf0 	bl	8000d48 <LCD_WR_REG>
 8002168:	2032      	movs	r0, #50	; 0x32
 800216a:	f7fe fe01 	bl	8000d70 <LCD_WR_DATA>
 800216e:	2000      	movs	r0, #0
 8002170:	f7fe fdfe 	bl	8000d70 <LCD_WR_DATA>
 8002174:	2044      	movs	r0, #68	; 0x44
 8002176:	f7fe fdfb 	bl	8000d70 <LCD_WR_DATA>
 800217a:	2000      	movs	r0, #0
 800217c:	f7fe fdf8 	bl	8000d70 <LCD_WR_DATA>
 8002180:	2065      	movs	r0, #101	; 0x65
 8002182:	f7fe fdf5 	bl	8000d70 <LCD_WR_DATA>
 8002186:	2000      	movs	r0, #0
 8002188:	f7fe fdf2 	bl	8000d70 <LCD_WR_DATA>
 800218c:	2076      	movs	r0, #118	; 0x76
 800218e:	f7fe fdef 	bl	8000d70 <LCD_WR_DATA>
 8002192:	2000      	movs	r0, #0
 8002194:	f7fe fdec 	bl	8000d70 <LCD_WR_DATA>
 8002198:	2088      	movs	r0, #136	; 0x88
 800219a:	f7fe fde9 	bl	8000d70 <LCD_WR_DATA>
 800219e:	2000      	movs	r0, #0
 80021a0:	f7fe fde6 	bl	8000d70 <LCD_WR_DATA>
 80021a4:	20c6      	movs	r0, #198	; 0xc6
 80021a6:	f7fe fdcf 	bl	8000d48 <LCD_WR_REG>
 80021aa:	2020      	movs	r0, #32
 80021ac:	f7fe fde0 	bl	8000d70 <LCD_WR_DATA>
 80021b0:	2000      	movs	r0, #0
 80021b2:	f7fe fddd 	bl	8000d70 <LCD_WR_DATA>
 80021b6:	2017      	movs	r0, #23
 80021b8:	f7fe fdda 	bl	8000d70 <LCD_WR_DATA>
 80021bc:	2000      	movs	r0, #0
 80021be:	f7fe fdd7 	bl	8000d70 <LCD_WR_DATA>
 80021c2:	2001      	movs	r0, #1
 80021c4:	f7fe fdd4 	bl	8000d70 <LCD_WR_DATA>
 80021c8:	2000      	movs	r0, #0
 80021ca:	f7fe fdd1 	bl	8000d70 <LCD_WR_DATA>
 80021ce:	20c7      	movs	r0, #199	; 0xc7
 80021d0:	f7fe fdba 	bl	8000d48 <LCD_WR_REG>
 80021d4:	2000      	movs	r0, #0
 80021d6:	f7fe fdcb 	bl	8000d70 <LCD_WR_DATA>
 80021da:	2000      	movs	r0, #0
 80021dc:	f7fe fdc8 	bl	8000d70 <LCD_WR_DATA>
 80021e0:	2000      	movs	r0, #0
 80021e2:	f7fe fdc5 	bl	8000d70 <LCD_WR_DATA>
 80021e6:	2000      	movs	r0, #0
 80021e8:	f7fe fdc2 	bl	8000d70 <LCD_WR_DATA>
 80021ec:	20c8      	movs	r0, #200	; 0xc8
 80021ee:	f7fe fdab 	bl	8000d48 <LCD_WR_REG>
 80021f2:	2000      	movs	r0, #0
 80021f4:	f7fe fdbc 	bl	8000d70 <LCD_WR_DATA>
 80021f8:	2000      	movs	r0, #0
 80021fa:	f7fe fdb9 	bl	8000d70 <LCD_WR_DATA>
 80021fe:	2000      	movs	r0, #0
 8002200:	f7fe fdb6 	bl	8000d70 <LCD_WR_DATA>
 8002204:	2000      	movs	r0, #0
 8002206:	f7fe fdb3 	bl	8000d70 <LCD_WR_DATA>
 800220a:	20c9      	movs	r0, #201	; 0xc9
 800220c:	f7fe fd9c 	bl	8000d48 <LCD_WR_REG>
 8002210:	2000      	movs	r0, #0
 8002212:	f7fe fdad 	bl	8000d70 <LCD_WR_DATA>
 8002216:	2000      	movs	r0, #0
 8002218:	f7fe fdaa 	bl	8000d70 <LCD_WR_DATA>
 800221c:	2000      	movs	r0, #0
 800221e:	f7fe fda7 	bl	8000d70 <LCD_WR_DATA>
 8002222:	2000      	movs	r0, #0
 8002224:	f7fe fda4 	bl	8000d70 <LCD_WR_DATA>
 8002228:	2000      	movs	r0, #0
 800222a:	f7fe fda1 	bl	8000d70 <LCD_WR_DATA>
 800222e:	2000      	movs	r0, #0
 8002230:	f7fe fd9e 	bl	8000d70 <LCD_WR_DATA>
 8002234:	2000      	movs	r0, #0
 8002236:	f7fe fd9b 	bl	8000d70 <LCD_WR_DATA>
 800223a:	2000      	movs	r0, #0
 800223c:	f7fe fd98 	bl	8000d70 <LCD_WR_DATA>
 8002240:	2000      	movs	r0, #0
 8002242:	f7fe fd95 	bl	8000d70 <LCD_WR_DATA>
 8002246:	2000      	movs	r0, #0
 8002248:	f7fe fd92 	bl	8000d70 <LCD_WR_DATA>
 800224c:	2000      	movs	r0, #0
 800224e:	f7fe fd8f 	bl	8000d70 <LCD_WR_DATA>
 8002252:	2000      	movs	r0, #0
 8002254:	f7fe fd8c 	bl	8000d70 <LCD_WR_DATA>
 8002258:	2000      	movs	r0, #0
 800225a:	f7fe fd89 	bl	8000d70 <LCD_WR_DATA>
 800225e:	2000      	movs	r0, #0
 8002260:	f7fe fd86 	bl	8000d70 <LCD_WR_DATA>
 8002264:	2000      	movs	r0, #0
 8002266:	f7fe fd83 	bl	8000d70 <LCD_WR_DATA>
 800226a:	2000      	movs	r0, #0
 800226c:	f7fe fd80 	bl	8000d70 <LCD_WR_DATA>
 8002270:	20e0      	movs	r0, #224	; 0xe0
 8002272:	f7fe fd69 	bl	8000d48 <LCD_WR_REG>
 8002276:	2016      	movs	r0, #22
 8002278:	f7fe fd7a 	bl	8000d70 <LCD_WR_DATA>
 800227c:	2000      	movs	r0, #0
 800227e:	f7fe fd77 	bl	8000d70 <LCD_WR_DATA>
 8002282:	201c      	movs	r0, #28
 8002284:	f7fe fd74 	bl	8000d70 <LCD_WR_DATA>
 8002288:	2000      	movs	r0, #0
 800228a:	f7fe fd71 	bl	8000d70 <LCD_WR_DATA>
 800228e:	2021      	movs	r0, #33	; 0x21
 8002290:	f7fe fd6e 	bl	8000d70 <LCD_WR_DATA>
 8002294:	2000      	movs	r0, #0
 8002296:	f7fe fd6b 	bl	8000d70 <LCD_WR_DATA>
 800229a:	2036      	movs	r0, #54	; 0x36
 800229c:	f7fe fd68 	bl	8000d70 <LCD_WR_DATA>
 80022a0:	2000      	movs	r0, #0
 80022a2:	f7fe fd65 	bl	8000d70 <LCD_WR_DATA>
 80022a6:	2046      	movs	r0, #70	; 0x46
 80022a8:	f7fe fd62 	bl	8000d70 <LCD_WR_DATA>
 80022ac:	2000      	movs	r0, #0
 80022ae:	f7fe fd5f 	bl	8000d70 <LCD_WR_DATA>
 80022b2:	2052      	movs	r0, #82	; 0x52
 80022b4:	f7fe fd5c 	bl	8000d70 <LCD_WR_DATA>
 80022b8:	2000      	movs	r0, #0
 80022ba:	f7fe fd59 	bl	8000d70 <LCD_WR_DATA>
 80022be:	2064      	movs	r0, #100	; 0x64
 80022c0:	f7fe fd56 	bl	8000d70 <LCD_WR_DATA>
 80022c4:	2000      	movs	r0, #0
 80022c6:	f7fe fd53 	bl	8000d70 <LCD_WR_DATA>
 80022ca:	207a      	movs	r0, #122	; 0x7a
 80022cc:	f7fe fd50 	bl	8000d70 <LCD_WR_DATA>
 80022d0:	2000      	movs	r0, #0
 80022d2:	f7fe fd4d 	bl	8000d70 <LCD_WR_DATA>
 80022d6:	208b      	movs	r0, #139	; 0x8b
 80022d8:	f7fe fd4a 	bl	8000d70 <LCD_WR_DATA>
 80022dc:	2000      	movs	r0, #0
 80022de:	f7fe fd47 	bl	8000d70 <LCD_WR_DATA>
 80022e2:	2099      	movs	r0, #153	; 0x99
 80022e4:	f7fe fd44 	bl	8000d70 <LCD_WR_DATA>
 80022e8:	2000      	movs	r0, #0
 80022ea:	f7fe fd41 	bl	8000d70 <LCD_WR_DATA>
 80022ee:	20a8      	movs	r0, #168	; 0xa8
 80022f0:	f7fe fd3e 	bl	8000d70 <LCD_WR_DATA>
 80022f4:	2000      	movs	r0, #0
 80022f6:	f7fe fd3b 	bl	8000d70 <LCD_WR_DATA>
 80022fa:	20b9      	movs	r0, #185	; 0xb9
 80022fc:	f7fe fd38 	bl	8000d70 <LCD_WR_DATA>
 8002300:	2000      	movs	r0, #0
 8002302:	f7fe fd35 	bl	8000d70 <LCD_WR_DATA>
 8002306:	20c4      	movs	r0, #196	; 0xc4
 8002308:	f7fe fd32 	bl	8000d70 <LCD_WR_DATA>
 800230c:	2000      	movs	r0, #0
 800230e:	f7fe fd2f 	bl	8000d70 <LCD_WR_DATA>
 8002312:	20ca      	movs	r0, #202	; 0xca
 8002314:	f7fe fd2c 	bl	8000d70 <LCD_WR_DATA>
 8002318:	2000      	movs	r0, #0
 800231a:	f7fe fd29 	bl	8000d70 <LCD_WR_DATA>
 800231e:	20d2      	movs	r0, #210	; 0xd2
 8002320:	f7fe fd26 	bl	8000d70 <LCD_WR_DATA>
 8002324:	2000      	movs	r0, #0
 8002326:	f7fe fd23 	bl	8000d70 <LCD_WR_DATA>
 800232a:	20d9      	movs	r0, #217	; 0xd9
 800232c:	f7fe fd20 	bl	8000d70 <LCD_WR_DATA>
 8002330:	2000      	movs	r0, #0
 8002332:	f7fe fd1d 	bl	8000d70 <LCD_WR_DATA>
 8002336:	20e0      	movs	r0, #224	; 0xe0
 8002338:	f7fe fd1a 	bl	8000d70 <LCD_WR_DATA>
 800233c:	2000      	movs	r0, #0
 800233e:	f7fe fd17 	bl	8000d70 <LCD_WR_DATA>
 8002342:	20f3      	movs	r0, #243	; 0xf3
 8002344:	f7fe fd14 	bl	8000d70 <LCD_WR_DATA>
 8002348:	2000      	movs	r0, #0
 800234a:	f7fe fd11 	bl	8000d70 <LCD_WR_DATA>
 800234e:	20e1      	movs	r0, #225	; 0xe1
 8002350:	f7fe fcfa 	bl	8000d48 <LCD_WR_REG>
 8002354:	2016      	movs	r0, #22
 8002356:	f7fe fd0b 	bl	8000d70 <LCD_WR_DATA>
 800235a:	2000      	movs	r0, #0
 800235c:	f7fe fd08 	bl	8000d70 <LCD_WR_DATA>
 8002360:	201c      	movs	r0, #28
 8002362:	f7fe fd05 	bl	8000d70 <LCD_WR_DATA>
 8002366:	2000      	movs	r0, #0
 8002368:	f7fe fd02 	bl	8000d70 <LCD_WR_DATA>
 800236c:	2022      	movs	r0, #34	; 0x22
 800236e:	f7fe fcff 	bl	8000d70 <LCD_WR_DATA>
 8002372:	2000      	movs	r0, #0
 8002374:	f7fe fcfc 	bl	8000d70 <LCD_WR_DATA>
 8002378:	2036      	movs	r0, #54	; 0x36
 800237a:	f7fe fcf9 	bl	8000d70 <LCD_WR_DATA>
 800237e:	2000      	movs	r0, #0
 8002380:	f7fe fcf6 	bl	8000d70 <LCD_WR_DATA>
 8002384:	2045      	movs	r0, #69	; 0x45
 8002386:	f7fe fcf3 	bl	8000d70 <LCD_WR_DATA>
 800238a:	2000      	movs	r0, #0
 800238c:	f7fe fcf0 	bl	8000d70 <LCD_WR_DATA>
 8002390:	2052      	movs	r0, #82	; 0x52
 8002392:	f7fe fced 	bl	8000d70 <LCD_WR_DATA>
 8002396:	2000      	movs	r0, #0
 8002398:	f7fe fcea 	bl	8000d70 <LCD_WR_DATA>
 800239c:	2064      	movs	r0, #100	; 0x64
 800239e:	f7fe fce7 	bl	8000d70 <LCD_WR_DATA>
 80023a2:	2000      	movs	r0, #0
 80023a4:	f7fe fce4 	bl	8000d70 <LCD_WR_DATA>
 80023a8:	207a      	movs	r0, #122	; 0x7a
 80023aa:	f7fe fce1 	bl	8000d70 <LCD_WR_DATA>
 80023ae:	2000      	movs	r0, #0
 80023b0:	f7fe fcde 	bl	8000d70 <LCD_WR_DATA>
 80023b4:	208b      	movs	r0, #139	; 0x8b
 80023b6:	f7fe fcdb 	bl	8000d70 <LCD_WR_DATA>
 80023ba:	2000      	movs	r0, #0
 80023bc:	f7fe fcd8 	bl	8000d70 <LCD_WR_DATA>
 80023c0:	2099      	movs	r0, #153	; 0x99
 80023c2:	f7fe fcd5 	bl	8000d70 <LCD_WR_DATA>
 80023c6:	2000      	movs	r0, #0
 80023c8:	f7fe fcd2 	bl	8000d70 <LCD_WR_DATA>
 80023cc:	20a8      	movs	r0, #168	; 0xa8
 80023ce:	f7fe fccf 	bl	8000d70 <LCD_WR_DATA>
 80023d2:	2000      	movs	r0, #0
 80023d4:	f7fe fccc 	bl	8000d70 <LCD_WR_DATA>
 80023d8:	20b9      	movs	r0, #185	; 0xb9
 80023da:	f7fe fcc9 	bl	8000d70 <LCD_WR_DATA>
 80023de:	2000      	movs	r0, #0
 80023e0:	f7fe fcc6 	bl	8000d70 <LCD_WR_DATA>
 80023e4:	20c4      	movs	r0, #196	; 0xc4
 80023e6:	f7fe fcc3 	bl	8000d70 <LCD_WR_DATA>
 80023ea:	2000      	movs	r0, #0
 80023ec:	f7fe fcc0 	bl	8000d70 <LCD_WR_DATA>
 80023f0:	20ca      	movs	r0, #202	; 0xca
 80023f2:	f7fe fcbd 	bl	8000d70 <LCD_WR_DATA>
 80023f6:	2000      	movs	r0, #0
 80023f8:	f7fe fcba 	bl	8000d70 <LCD_WR_DATA>
 80023fc:	20d2      	movs	r0, #210	; 0xd2
 80023fe:	f7fe fcb7 	bl	8000d70 <LCD_WR_DATA>
 8002402:	2000      	movs	r0, #0
 8002404:	f7fe fcb4 	bl	8000d70 <LCD_WR_DATA>
 8002408:	20d8      	movs	r0, #216	; 0xd8
 800240a:	f7fe fcb1 	bl	8000d70 <LCD_WR_DATA>
 800240e:	2000      	movs	r0, #0
 8002410:	f7fe fcae 	bl	8000d70 <LCD_WR_DATA>
 8002414:	20e0      	movs	r0, #224	; 0xe0
 8002416:	f7fe fcab 	bl	8000d70 <LCD_WR_DATA>
 800241a:	2000      	movs	r0, #0
 800241c:	f7fe fca8 	bl	8000d70 <LCD_WR_DATA>
 8002420:	20f3      	movs	r0, #243	; 0xf3
 8002422:	f7fe fca5 	bl	8000d70 <LCD_WR_DATA>
 8002426:	2000      	movs	r0, #0
 8002428:	f7fe fca2 	bl	8000d70 <LCD_WR_DATA>
 800242c:	20e2      	movs	r0, #226	; 0xe2
 800242e:	f7fe fc8b 	bl	8000d48 <LCD_WR_REG>
 8002432:	2005      	movs	r0, #5
 8002434:	f7fe fc9c 	bl	8000d70 <LCD_WR_DATA>
 8002438:	2000      	movs	r0, #0
 800243a:	f7fe fc99 	bl	8000d70 <LCD_WR_DATA>
 800243e:	200b      	movs	r0, #11
 8002440:	f7fe fc96 	bl	8000d70 <LCD_WR_DATA>
 8002444:	2000      	movs	r0, #0
 8002446:	f7fe fc93 	bl	8000d70 <LCD_WR_DATA>
 800244a:	201b      	movs	r0, #27
 800244c:	f7fe fc90 	bl	8000d70 <LCD_WR_DATA>
 8002450:	2000      	movs	r0, #0
 8002452:	f7fe fc8d 	bl	8000d70 <LCD_WR_DATA>
 8002456:	2034      	movs	r0, #52	; 0x34
 8002458:	f7fe fc8a 	bl	8000d70 <LCD_WR_DATA>
 800245c:	2000      	movs	r0, #0
 800245e:	f7fe fc87 	bl	8000d70 <LCD_WR_DATA>
 8002462:	2044      	movs	r0, #68	; 0x44
 8002464:	f7fe fc84 	bl	8000d70 <LCD_WR_DATA>
 8002468:	2000      	movs	r0, #0
 800246a:	f7fe fc81 	bl	8000d70 <LCD_WR_DATA>
 800246e:	204f      	movs	r0, #79	; 0x4f
 8002470:	f7fe fc7e 	bl	8000d70 <LCD_WR_DATA>
 8002474:	2000      	movs	r0, #0
 8002476:	f7fe fc7b 	bl	8000d70 <LCD_WR_DATA>
 800247a:	2061      	movs	r0, #97	; 0x61
 800247c:	f7fe fc78 	bl	8000d70 <LCD_WR_DATA>
 8002480:	2000      	movs	r0, #0
 8002482:	f7fe fc75 	bl	8000d70 <LCD_WR_DATA>
 8002486:	2079      	movs	r0, #121	; 0x79
 8002488:	f7fe fc72 	bl	8000d70 <LCD_WR_DATA>
 800248c:	2000      	movs	r0, #0
 800248e:	f7fe fc6f 	bl	8000d70 <LCD_WR_DATA>
 8002492:	2088      	movs	r0, #136	; 0x88
 8002494:	f7fe fc6c 	bl	8000d70 <LCD_WR_DATA>
 8002498:	2000      	movs	r0, #0
 800249a:	f7fe fc69 	bl	8000d70 <LCD_WR_DATA>
 800249e:	2097      	movs	r0, #151	; 0x97
 80024a0:	f7fe fc66 	bl	8000d70 <LCD_WR_DATA>
 80024a4:	2000      	movs	r0, #0
 80024a6:	f7fe fc63 	bl	8000d70 <LCD_WR_DATA>
 80024aa:	20a6      	movs	r0, #166	; 0xa6
 80024ac:	f7fe fc60 	bl	8000d70 <LCD_WR_DATA>
 80024b0:	2000      	movs	r0, #0
 80024b2:	f7fe fc5d 	bl	8000d70 <LCD_WR_DATA>
 80024b6:	20b7      	movs	r0, #183	; 0xb7
 80024b8:	f7fe fc5a 	bl	8000d70 <LCD_WR_DATA>
 80024bc:	2000      	movs	r0, #0
 80024be:	f7fe fc57 	bl	8000d70 <LCD_WR_DATA>
 80024c2:	20c2      	movs	r0, #194	; 0xc2
 80024c4:	f7fe fc54 	bl	8000d70 <LCD_WR_DATA>
 80024c8:	2000      	movs	r0, #0
 80024ca:	f7fe fc51 	bl	8000d70 <LCD_WR_DATA>
 80024ce:	20c7      	movs	r0, #199	; 0xc7
 80024d0:	f7fe fc4e 	bl	8000d70 <LCD_WR_DATA>
 80024d4:	2000      	movs	r0, #0
 80024d6:	f7fe fc4b 	bl	8000d70 <LCD_WR_DATA>
 80024da:	20d1      	movs	r0, #209	; 0xd1
 80024dc:	f7fe fc48 	bl	8000d70 <LCD_WR_DATA>
 80024e0:	2000      	movs	r0, #0
 80024e2:	f7fe fc45 	bl	8000d70 <LCD_WR_DATA>
 80024e6:	20d6      	movs	r0, #214	; 0xd6
 80024e8:	f7fe fc42 	bl	8000d70 <LCD_WR_DATA>
 80024ec:	2000      	movs	r0, #0
 80024ee:	f7fe fc3f 	bl	8000d70 <LCD_WR_DATA>
 80024f2:	20dd      	movs	r0, #221	; 0xdd
 80024f4:	f7fe fc3c 	bl	8000d70 <LCD_WR_DATA>
 80024f8:	2000      	movs	r0, #0
 80024fa:	f7fe fc39 	bl	8000d70 <LCD_WR_DATA>
 80024fe:	20f3      	movs	r0, #243	; 0xf3
 8002500:	f7fe fc36 	bl	8000d70 <LCD_WR_DATA>
 8002504:	2000      	movs	r0, #0
 8002506:	f7fe fc33 	bl	8000d70 <LCD_WR_DATA>
 800250a:	20e3      	movs	r0, #227	; 0xe3
 800250c:	f7fe fc1c 	bl	8000d48 <LCD_WR_REG>
 8002510:	2005      	movs	r0, #5
 8002512:	f7fe fc2d 	bl	8000d70 <LCD_WR_DATA>
 8002516:	2000      	movs	r0, #0
 8002518:	f7fe fc2a 	bl	8000d70 <LCD_WR_DATA>
 800251c:	200a      	movs	r0, #10
 800251e:	f7fe fc27 	bl	8000d70 <LCD_WR_DATA>
 8002522:	2000      	movs	r0, #0
 8002524:	f7fe fc24 	bl	8000d70 <LCD_WR_DATA>
 8002528:	201c      	movs	r0, #28
 800252a:	f7fe fc21 	bl	8000d70 <LCD_WR_DATA>
 800252e:	2000      	movs	r0, #0
 8002530:	f7fe fc1e 	bl	8000d70 <LCD_WR_DATA>
 8002534:	2033      	movs	r0, #51	; 0x33
 8002536:	f7fe fc1b 	bl	8000d70 <LCD_WR_DATA>
 800253a:	2000      	movs	r0, #0
 800253c:	f7fe fc18 	bl	8000d70 <LCD_WR_DATA>
 8002540:	2044      	movs	r0, #68	; 0x44
 8002542:	f7fe fc15 	bl	8000d70 <LCD_WR_DATA>
 8002546:	2000      	movs	r0, #0
 8002548:	f7fe fc12 	bl	8000d70 <LCD_WR_DATA>
 800254c:	2050      	movs	r0, #80	; 0x50
 800254e:	f7fe fc0f 	bl	8000d70 <LCD_WR_DATA>
 8002552:	2000      	movs	r0, #0
 8002554:	f7fe fc0c 	bl	8000d70 <LCD_WR_DATA>
 8002558:	2062      	movs	r0, #98	; 0x62
 800255a:	f7fe fc09 	bl	8000d70 <LCD_WR_DATA>
 800255e:	2000      	movs	r0, #0
 8002560:	f7fe fc06 	bl	8000d70 <LCD_WR_DATA>
 8002564:	2078      	movs	r0, #120	; 0x78
 8002566:	f7fe fc03 	bl	8000d70 <LCD_WR_DATA>
 800256a:	2000      	movs	r0, #0
 800256c:	f7fe fc00 	bl	8000d70 <LCD_WR_DATA>
 8002570:	2088      	movs	r0, #136	; 0x88
 8002572:	f7fe fbfd 	bl	8000d70 <LCD_WR_DATA>
 8002576:	2000      	movs	r0, #0
 8002578:	f7fe fbfa 	bl	8000d70 <LCD_WR_DATA>
 800257c:	2097      	movs	r0, #151	; 0x97
 800257e:	f7fe fbf7 	bl	8000d70 <LCD_WR_DATA>
 8002582:	2000      	movs	r0, #0
 8002584:	f7fe fbf4 	bl	8000d70 <LCD_WR_DATA>
 8002588:	20a6      	movs	r0, #166	; 0xa6
 800258a:	f7fe fbf1 	bl	8000d70 <LCD_WR_DATA>
 800258e:	2000      	movs	r0, #0
 8002590:	f7fe fbee 	bl	8000d70 <LCD_WR_DATA>
 8002594:	20b7      	movs	r0, #183	; 0xb7
 8002596:	f7fe fbeb 	bl	8000d70 <LCD_WR_DATA>
 800259a:	2000      	movs	r0, #0
 800259c:	f7fe fbe8 	bl	8000d70 <LCD_WR_DATA>
 80025a0:	20c2      	movs	r0, #194	; 0xc2
 80025a2:	f7fe fbe5 	bl	8000d70 <LCD_WR_DATA>
 80025a6:	2000      	movs	r0, #0
 80025a8:	f7fe fbe2 	bl	8000d70 <LCD_WR_DATA>
 80025ac:	20c7      	movs	r0, #199	; 0xc7
 80025ae:	f7fe fbdf 	bl	8000d70 <LCD_WR_DATA>
 80025b2:	2000      	movs	r0, #0
 80025b4:	f7fe fbdc 	bl	8000d70 <LCD_WR_DATA>
 80025b8:	20d1      	movs	r0, #209	; 0xd1
 80025ba:	f7fe fbd9 	bl	8000d70 <LCD_WR_DATA>
 80025be:	2000      	movs	r0, #0
 80025c0:	f7fe fbd6 	bl	8000d70 <LCD_WR_DATA>
 80025c4:	20d5      	movs	r0, #213	; 0xd5
 80025c6:	f7fe fbd3 	bl	8000d70 <LCD_WR_DATA>
 80025ca:	2000      	movs	r0, #0
 80025cc:	f7fe fbd0 	bl	8000d70 <LCD_WR_DATA>
 80025d0:	20dd      	movs	r0, #221	; 0xdd
 80025d2:	f7fe fbcd 	bl	8000d70 <LCD_WR_DATA>
 80025d6:	2000      	movs	r0, #0
 80025d8:	f7fe fbca 	bl	8000d70 <LCD_WR_DATA>
 80025dc:	20f3      	movs	r0, #243	; 0xf3
 80025de:	f7fe fbc7 	bl	8000d70 <LCD_WR_DATA>
 80025e2:	2000      	movs	r0, #0
 80025e4:	f7fe fbc4 	bl	8000d70 <LCD_WR_DATA>
 80025e8:	20e4      	movs	r0, #228	; 0xe4
 80025ea:	f7fe fbad 	bl	8000d48 <LCD_WR_REG>
 80025ee:	2001      	movs	r0, #1
 80025f0:	f7fe fbbe 	bl	8000d70 <LCD_WR_DATA>
 80025f4:	2000      	movs	r0, #0
 80025f6:	f7fe fbbb 	bl	8000d70 <LCD_WR_DATA>
 80025fa:	2001      	movs	r0, #1
 80025fc:	f7fe fbb8 	bl	8000d70 <LCD_WR_DATA>
 8002600:	2000      	movs	r0, #0
 8002602:	f7fe fbb5 	bl	8000d70 <LCD_WR_DATA>
 8002606:	2002      	movs	r0, #2
 8002608:	f7fe fbb2 	bl	8000d70 <LCD_WR_DATA>
 800260c:	2000      	movs	r0, #0
 800260e:	f7fe fbaf 	bl	8000d70 <LCD_WR_DATA>
 8002612:	202a      	movs	r0, #42	; 0x2a
 8002614:	f7fe fbac 	bl	8000d70 <LCD_WR_DATA>
 8002618:	2000      	movs	r0, #0
 800261a:	f7fe fba9 	bl	8000d70 <LCD_WR_DATA>
 800261e:	203c      	movs	r0, #60	; 0x3c
 8002620:	f7fe fba6 	bl	8000d70 <LCD_WR_DATA>
 8002624:	2000      	movs	r0, #0
 8002626:	f7fe fba3 	bl	8000d70 <LCD_WR_DATA>
 800262a:	204b      	movs	r0, #75	; 0x4b
 800262c:	f7fe fba0 	bl	8000d70 <LCD_WR_DATA>
 8002630:	2000      	movs	r0, #0
 8002632:	f7fe fb9d 	bl	8000d70 <LCD_WR_DATA>
 8002636:	205d      	movs	r0, #93	; 0x5d
 8002638:	f7fe fb9a 	bl	8000d70 <LCD_WR_DATA>
 800263c:	2000      	movs	r0, #0
 800263e:	f7fe fb97 	bl	8000d70 <LCD_WR_DATA>
 8002642:	2074      	movs	r0, #116	; 0x74
 8002644:	f7fe fb94 	bl	8000d70 <LCD_WR_DATA>
 8002648:	2000      	movs	r0, #0
 800264a:	f7fe fb91 	bl	8000d70 <LCD_WR_DATA>
 800264e:	2084      	movs	r0, #132	; 0x84
 8002650:	f7fe fb8e 	bl	8000d70 <LCD_WR_DATA>
 8002654:	2000      	movs	r0, #0
 8002656:	f7fe fb8b 	bl	8000d70 <LCD_WR_DATA>
 800265a:	2093      	movs	r0, #147	; 0x93
 800265c:	f7fe fb88 	bl	8000d70 <LCD_WR_DATA>
 8002660:	2000      	movs	r0, #0
 8002662:	f7fe fb85 	bl	8000d70 <LCD_WR_DATA>
 8002666:	20a2      	movs	r0, #162	; 0xa2
 8002668:	f7fe fb82 	bl	8000d70 <LCD_WR_DATA>
 800266c:	2000      	movs	r0, #0
 800266e:	f7fe fb7f 	bl	8000d70 <LCD_WR_DATA>
 8002672:	20b3      	movs	r0, #179	; 0xb3
 8002674:	f7fe fb7c 	bl	8000d70 <LCD_WR_DATA>
 8002678:	2000      	movs	r0, #0
 800267a:	f7fe fb79 	bl	8000d70 <LCD_WR_DATA>
 800267e:	20be      	movs	r0, #190	; 0xbe
 8002680:	f7fe fb76 	bl	8000d70 <LCD_WR_DATA>
 8002684:	2000      	movs	r0, #0
 8002686:	f7fe fb73 	bl	8000d70 <LCD_WR_DATA>
 800268a:	20c4      	movs	r0, #196	; 0xc4
 800268c:	f7fe fb70 	bl	8000d70 <LCD_WR_DATA>
 8002690:	2000      	movs	r0, #0
 8002692:	f7fe fb6d 	bl	8000d70 <LCD_WR_DATA>
 8002696:	20cd      	movs	r0, #205	; 0xcd
 8002698:	f7fe fb6a 	bl	8000d70 <LCD_WR_DATA>
 800269c:	2000      	movs	r0, #0
 800269e:	f7fe fb67 	bl	8000d70 <LCD_WR_DATA>
 80026a2:	20d3      	movs	r0, #211	; 0xd3
 80026a4:	f7fe fb64 	bl	8000d70 <LCD_WR_DATA>
 80026a8:	2000      	movs	r0, #0
 80026aa:	f7fe fb61 	bl	8000d70 <LCD_WR_DATA>
 80026ae:	20dd      	movs	r0, #221	; 0xdd
 80026b0:	f7fe fb5e 	bl	8000d70 <LCD_WR_DATA>
 80026b4:	2000      	movs	r0, #0
 80026b6:	f7fe fb5b 	bl	8000d70 <LCD_WR_DATA>
 80026ba:	20f3      	movs	r0, #243	; 0xf3
 80026bc:	f7fe fb58 	bl	8000d70 <LCD_WR_DATA>
 80026c0:	2000      	movs	r0, #0
 80026c2:	f7fe fb55 	bl	8000d70 <LCD_WR_DATA>
 80026c6:	20e5      	movs	r0, #229	; 0xe5
 80026c8:	f7fe fb3e 	bl	8000d48 <LCD_WR_REG>
 80026cc:	2000      	movs	r0, #0
 80026ce:	f7fe fb4f 	bl	8000d70 <LCD_WR_DATA>
 80026d2:	2000      	movs	r0, #0
 80026d4:	f7fe fb4c 	bl	8000d70 <LCD_WR_DATA>
 80026d8:	2000      	movs	r0, #0
 80026da:	f7fe fb49 	bl	8000d70 <LCD_WR_DATA>
 80026de:	2000      	movs	r0, #0
 80026e0:	f7fe fb46 	bl	8000d70 <LCD_WR_DATA>
 80026e4:	2002      	movs	r0, #2
 80026e6:	f7fe fb43 	bl	8000d70 <LCD_WR_DATA>
 80026ea:	2000      	movs	r0, #0
 80026ec:	f7fe fb40 	bl	8000d70 <LCD_WR_DATA>
 80026f0:	2029      	movs	r0, #41	; 0x29
 80026f2:	f7fe fb3d 	bl	8000d70 <LCD_WR_DATA>
 80026f6:	2000      	movs	r0, #0
 80026f8:	f7fe fb3a 	bl	8000d70 <LCD_WR_DATA>
 80026fc:	203c      	movs	r0, #60	; 0x3c
 80026fe:	f7fe fb37 	bl	8000d70 <LCD_WR_DATA>
 8002702:	2000      	movs	r0, #0
 8002704:	f7fe fb34 	bl	8000d70 <LCD_WR_DATA>
 8002708:	204b      	movs	r0, #75	; 0x4b
 800270a:	f7fe fb31 	bl	8000d70 <LCD_WR_DATA>
 800270e:	2000      	movs	r0, #0
 8002710:	f7fe fb2e 	bl	8000d70 <LCD_WR_DATA>
 8002714:	205d      	movs	r0, #93	; 0x5d
 8002716:	f7fe fb2b 	bl	8000d70 <LCD_WR_DATA>
 800271a:	2000      	movs	r0, #0
 800271c:	f7fe fb28 	bl	8000d70 <LCD_WR_DATA>
 8002720:	2074      	movs	r0, #116	; 0x74
 8002722:	f7fe fb25 	bl	8000d70 <LCD_WR_DATA>
 8002726:	2000      	movs	r0, #0
 8002728:	f7fe fb22 	bl	8000d70 <LCD_WR_DATA>
 800272c:	2084      	movs	r0, #132	; 0x84
 800272e:	f7fe fb1f 	bl	8000d70 <LCD_WR_DATA>
 8002732:	2000      	movs	r0, #0
 8002734:	f7fe fb1c 	bl	8000d70 <LCD_WR_DATA>
 8002738:	2093      	movs	r0, #147	; 0x93
 800273a:	f7fe fb19 	bl	8000d70 <LCD_WR_DATA>
 800273e:	2000      	movs	r0, #0
 8002740:	f7fe fb16 	bl	8000d70 <LCD_WR_DATA>
 8002744:	20a2      	movs	r0, #162	; 0xa2
 8002746:	f7fe fb13 	bl	8000d70 <LCD_WR_DATA>
 800274a:	2000      	movs	r0, #0
 800274c:	f7fe fb10 	bl	8000d70 <LCD_WR_DATA>
 8002750:	20b3      	movs	r0, #179	; 0xb3
 8002752:	f7fe fb0d 	bl	8000d70 <LCD_WR_DATA>
 8002756:	2000      	movs	r0, #0
 8002758:	f7fe fb0a 	bl	8000d70 <LCD_WR_DATA>
 800275c:	20be      	movs	r0, #190	; 0xbe
 800275e:	f7fe fb07 	bl	8000d70 <LCD_WR_DATA>
 8002762:	2000      	movs	r0, #0
 8002764:	f7fe fb04 	bl	8000d70 <LCD_WR_DATA>
 8002768:	20c4      	movs	r0, #196	; 0xc4
 800276a:	f7fe fb01 	bl	8000d70 <LCD_WR_DATA>
 800276e:	2000      	movs	r0, #0
 8002770:	f7fe fafe 	bl	8000d70 <LCD_WR_DATA>
 8002774:	20cd      	movs	r0, #205	; 0xcd
 8002776:	f7fe fafb 	bl	8000d70 <LCD_WR_DATA>
 800277a:	2000      	movs	r0, #0
 800277c:	f7fe faf8 	bl	8000d70 <LCD_WR_DATA>
 8002780:	20d3      	movs	r0, #211	; 0xd3
 8002782:	f7fe faf5 	bl	8000d70 <LCD_WR_DATA>
 8002786:	2000      	movs	r0, #0
 8002788:	f7fe faf2 	bl	8000d70 <LCD_WR_DATA>
 800278c:	20dc      	movs	r0, #220	; 0xdc
 800278e:	f7fe faef 	bl	8000d70 <LCD_WR_DATA>
 8002792:	2000      	movs	r0, #0
 8002794:	f7fe faec 	bl	8000d70 <LCD_WR_DATA>
 8002798:	20f3      	movs	r0, #243	; 0xf3
 800279a:	f7fe fae9 	bl	8000d70 <LCD_WR_DATA>
 800279e:	2000      	movs	r0, #0
 80027a0:	f7fe fae6 	bl	8000d70 <LCD_WR_DATA>
 80027a4:	20e6      	movs	r0, #230	; 0xe6
 80027a6:	f7fe facf 	bl	8000d48 <LCD_WR_REG>
 80027aa:	2011      	movs	r0, #17
 80027ac:	f7fe fae0 	bl	8000d70 <LCD_WR_DATA>
 80027b0:	2000      	movs	r0, #0
 80027b2:	f7fe fadd 	bl	8000d70 <LCD_WR_DATA>
 80027b6:	2034      	movs	r0, #52	; 0x34
 80027b8:	f7fe fada 	bl	8000d70 <LCD_WR_DATA>
 80027bc:	2000      	movs	r0, #0
 80027be:	f7fe fad7 	bl	8000d70 <LCD_WR_DATA>
 80027c2:	2056      	movs	r0, #86	; 0x56
 80027c4:	f7fe fad4 	bl	8000d70 <LCD_WR_DATA>
 80027c8:	2000      	movs	r0, #0
 80027ca:	f7fe fad1 	bl	8000d70 <LCD_WR_DATA>
 80027ce:	2076      	movs	r0, #118	; 0x76
 80027d0:	f7fe face 	bl	8000d70 <LCD_WR_DATA>
 80027d4:	2000      	movs	r0, #0
 80027d6:	f7fe facb 	bl	8000d70 <LCD_WR_DATA>
 80027da:	2077      	movs	r0, #119	; 0x77
 80027dc:	f7fe fac8 	bl	8000d70 <LCD_WR_DATA>
 80027e0:	2000      	movs	r0, #0
 80027e2:	f7fe fac5 	bl	8000d70 <LCD_WR_DATA>
 80027e6:	2066      	movs	r0, #102	; 0x66
 80027e8:	f7fe fac2 	bl	8000d70 <LCD_WR_DATA>
 80027ec:	2000      	movs	r0, #0
 80027ee:	f7fe fabf 	bl	8000d70 <LCD_WR_DATA>
 80027f2:	2088      	movs	r0, #136	; 0x88
 80027f4:	f7fe fabc 	bl	8000d70 <LCD_WR_DATA>
 80027f8:	2000      	movs	r0, #0
 80027fa:	f7fe fab9 	bl	8000d70 <LCD_WR_DATA>
 80027fe:	2099      	movs	r0, #153	; 0x99
 8002800:	f7fe fab6 	bl	8000d70 <LCD_WR_DATA>
 8002804:	2000      	movs	r0, #0
 8002806:	f7fe fab3 	bl	8000d70 <LCD_WR_DATA>
 800280a:	20bb      	movs	r0, #187	; 0xbb
 800280c:	f7fe fab0 	bl	8000d70 <LCD_WR_DATA>
 8002810:	2000      	movs	r0, #0
 8002812:	f7fe faad 	bl	8000d70 <LCD_WR_DATA>
 8002816:	2099      	movs	r0, #153	; 0x99
 8002818:	f7fe faaa 	bl	8000d70 <LCD_WR_DATA>
 800281c:	2000      	movs	r0, #0
 800281e:	f7fe faa7 	bl	8000d70 <LCD_WR_DATA>
 8002822:	2066      	movs	r0, #102	; 0x66
 8002824:	f7fe faa4 	bl	8000d70 <LCD_WR_DATA>
 8002828:	2000      	movs	r0, #0
 800282a:	f7fe faa1 	bl	8000d70 <LCD_WR_DATA>
 800282e:	2055      	movs	r0, #85	; 0x55
 8002830:	f7fe fa9e 	bl	8000d70 <LCD_WR_DATA>
 8002834:	2000      	movs	r0, #0
 8002836:	f7fe fa9b 	bl	8000d70 <LCD_WR_DATA>
 800283a:	2055      	movs	r0, #85	; 0x55
 800283c:	f7fe fa98 	bl	8000d70 <LCD_WR_DATA>
 8002840:	2000      	movs	r0, #0
 8002842:	f7fe fa95 	bl	8000d70 <LCD_WR_DATA>
 8002846:	2045      	movs	r0, #69	; 0x45
 8002848:	f7fe fa92 	bl	8000d70 <LCD_WR_DATA>
 800284c:	2000      	movs	r0, #0
 800284e:	f7fe fa8f 	bl	8000d70 <LCD_WR_DATA>
 8002852:	2043      	movs	r0, #67	; 0x43
 8002854:	f7fe fa8c 	bl	8000d70 <LCD_WR_DATA>
 8002858:	2000      	movs	r0, #0
 800285a:	f7fe fa89 	bl	8000d70 <LCD_WR_DATA>
 800285e:	2044      	movs	r0, #68	; 0x44
 8002860:	f7fe fa86 	bl	8000d70 <LCD_WR_DATA>
 8002864:	2000      	movs	r0, #0
 8002866:	f7fe fa83 	bl	8000d70 <LCD_WR_DATA>
 800286a:	20e7      	movs	r0, #231	; 0xe7
 800286c:	f7fe fa6c 	bl	8000d48 <LCD_WR_REG>
 8002870:	2032      	movs	r0, #50	; 0x32
 8002872:	f7fe fa7d 	bl	8000d70 <LCD_WR_DATA>
 8002876:	2000      	movs	r0, #0
 8002878:	f7fe fa7a 	bl	8000d70 <LCD_WR_DATA>
 800287c:	2055      	movs	r0, #85	; 0x55
 800287e:	f7fe fa77 	bl	8000d70 <LCD_WR_DATA>
 8002882:	2000      	movs	r0, #0
 8002884:	f7fe fa74 	bl	8000d70 <LCD_WR_DATA>
 8002888:	2076      	movs	r0, #118	; 0x76
 800288a:	f7fe fa71 	bl	8000d70 <LCD_WR_DATA>
 800288e:	2000      	movs	r0, #0
 8002890:	f7fe fa6e 	bl	8000d70 <LCD_WR_DATA>
 8002894:	2066      	movs	r0, #102	; 0x66
 8002896:	f7fe fa6b 	bl	8000d70 <LCD_WR_DATA>
 800289a:	2000      	movs	r0, #0
 800289c:	f7fe fa68 	bl	8000d70 <LCD_WR_DATA>
 80028a0:	2067      	movs	r0, #103	; 0x67
 80028a2:	f7fe fa65 	bl	8000d70 <LCD_WR_DATA>
 80028a6:	2000      	movs	r0, #0
 80028a8:	f7fe fa62 	bl	8000d70 <LCD_WR_DATA>
 80028ac:	2067      	movs	r0, #103	; 0x67
 80028ae:	f7fe fa5f 	bl	8000d70 <LCD_WR_DATA>
 80028b2:	2000      	movs	r0, #0
 80028b4:	f7fe fa5c 	bl	8000d70 <LCD_WR_DATA>
 80028b8:	2087      	movs	r0, #135	; 0x87
 80028ba:	f7fe fa59 	bl	8000d70 <LCD_WR_DATA>
 80028be:	2000      	movs	r0, #0
 80028c0:	f7fe fa56 	bl	8000d70 <LCD_WR_DATA>
 80028c4:	2099      	movs	r0, #153	; 0x99
 80028c6:	f7fe fa53 	bl	8000d70 <LCD_WR_DATA>
 80028ca:	2000      	movs	r0, #0
 80028cc:	f7fe fa50 	bl	8000d70 <LCD_WR_DATA>
 80028d0:	20bb      	movs	r0, #187	; 0xbb
 80028d2:	f7fe fa4d 	bl	8000d70 <LCD_WR_DATA>
 80028d6:	2000      	movs	r0, #0
 80028d8:	f7fe fa4a 	bl	8000d70 <LCD_WR_DATA>
 80028dc:	2099      	movs	r0, #153	; 0x99
 80028de:	f7fe fa47 	bl	8000d70 <LCD_WR_DATA>
 80028e2:	2000      	movs	r0, #0
 80028e4:	f7fe fa44 	bl	8000d70 <LCD_WR_DATA>
 80028e8:	2077      	movs	r0, #119	; 0x77
 80028ea:	f7fe fa41 	bl	8000d70 <LCD_WR_DATA>
 80028ee:	2000      	movs	r0, #0
 80028f0:	f7fe fa3e 	bl	8000d70 <LCD_WR_DATA>
 80028f4:	2044      	movs	r0, #68	; 0x44
 80028f6:	f7fe fa3b 	bl	8000d70 <LCD_WR_DATA>
 80028fa:	2000      	movs	r0, #0
 80028fc:	f7fe fa38 	bl	8000d70 <LCD_WR_DATA>
 8002900:	2056      	movs	r0, #86	; 0x56
 8002902:	f7fe fa35 	bl	8000d70 <LCD_WR_DATA>
 8002906:	2000      	movs	r0, #0
 8002908:	f7fe fa32 	bl	8000d70 <LCD_WR_DATA>
 800290c:	2023      	movs	r0, #35	; 0x23
 800290e:	f7fe fa2f 	bl	8000d70 <LCD_WR_DATA>
 8002912:	2000      	movs	r0, #0
 8002914:	f7fe fa2c 	bl	8000d70 <LCD_WR_DATA>
 8002918:	2033      	movs	r0, #51	; 0x33
 800291a:	f7fe fa29 	bl	8000d70 <LCD_WR_DATA>
 800291e:	2000      	movs	r0, #0
 8002920:	f7fe fa26 	bl	8000d70 <LCD_WR_DATA>
 8002924:	2045      	movs	r0, #69	; 0x45
 8002926:	f7fe fa23 	bl	8000d70 <LCD_WR_DATA>
 800292a:	2000      	movs	r0, #0
 800292c:	f7fe fa20 	bl	8000d70 <LCD_WR_DATA>
 8002930:	20e8      	movs	r0, #232	; 0xe8
 8002932:	f7fe fa09 	bl	8000d48 <LCD_WR_REG>
 8002936:	2000      	movs	r0, #0
 8002938:	f7fe fa1a 	bl	8000d70 <LCD_WR_DATA>
 800293c:	2000      	movs	r0, #0
 800293e:	f7fe fa17 	bl	8000d70 <LCD_WR_DATA>
 8002942:	2099      	movs	r0, #153	; 0x99
 8002944:	f7fe fa14 	bl	8000d70 <LCD_WR_DATA>
 8002948:	2000      	movs	r0, #0
 800294a:	f7fe fa11 	bl	8000d70 <LCD_WR_DATA>
 800294e:	2087      	movs	r0, #135	; 0x87
 8002950:	f7fe fa0e 	bl	8000d70 <LCD_WR_DATA>
 8002954:	2000      	movs	r0, #0
 8002956:	f7fe fa0b 	bl	8000d70 <LCD_WR_DATA>
 800295a:	2088      	movs	r0, #136	; 0x88
 800295c:	f7fe fa08 	bl	8000d70 <LCD_WR_DATA>
 8002960:	2000      	movs	r0, #0
 8002962:	f7fe fa05 	bl	8000d70 <LCD_WR_DATA>
 8002966:	2077      	movs	r0, #119	; 0x77
 8002968:	f7fe fa02 	bl	8000d70 <LCD_WR_DATA>
 800296c:	2000      	movs	r0, #0
 800296e:	f7fe f9ff 	bl	8000d70 <LCD_WR_DATA>
 8002972:	2066      	movs	r0, #102	; 0x66
 8002974:	f7fe f9fc 	bl	8000d70 <LCD_WR_DATA>
 8002978:	2000      	movs	r0, #0
 800297a:	f7fe f9f9 	bl	8000d70 <LCD_WR_DATA>
 800297e:	2088      	movs	r0, #136	; 0x88
 8002980:	f7fe f9f6 	bl	8000d70 <LCD_WR_DATA>
 8002984:	2000      	movs	r0, #0
 8002986:	f7fe f9f3 	bl	8000d70 <LCD_WR_DATA>
 800298a:	20aa      	movs	r0, #170	; 0xaa
 800298c:	f7fe f9f0 	bl	8000d70 <LCD_WR_DATA>
 8002990:	2000      	movs	r0, #0
 8002992:	f7fe f9ed 	bl	8000d70 <LCD_WR_DATA>
 8002996:	20bb      	movs	r0, #187	; 0xbb
 8002998:	f7fe f9ea 	bl	8000d70 <LCD_WR_DATA>
 800299c:	2000      	movs	r0, #0
 800299e:	f7fe f9e7 	bl	8000d70 <LCD_WR_DATA>
 80029a2:	2099      	movs	r0, #153	; 0x99
 80029a4:	f7fe f9e4 	bl	8000d70 <LCD_WR_DATA>
 80029a8:	2000      	movs	r0, #0
 80029aa:	f7fe f9e1 	bl	8000d70 <LCD_WR_DATA>
 80029ae:	2066      	movs	r0, #102	; 0x66
 80029b0:	f7fe f9de 	bl	8000d70 <LCD_WR_DATA>
 80029b4:	2000      	movs	r0, #0
 80029b6:	f7fe f9db 	bl	8000d70 <LCD_WR_DATA>
 80029ba:	2055      	movs	r0, #85	; 0x55
 80029bc:	f7fe f9d8 	bl	8000d70 <LCD_WR_DATA>
 80029c0:	2000      	movs	r0, #0
 80029c2:	f7fe f9d5 	bl	8000d70 <LCD_WR_DATA>
 80029c6:	2055      	movs	r0, #85	; 0x55
 80029c8:	f7fe f9d2 	bl	8000d70 <LCD_WR_DATA>
 80029cc:	2000      	movs	r0, #0
 80029ce:	f7fe f9cf 	bl	8000d70 <LCD_WR_DATA>
 80029d2:	2044      	movs	r0, #68	; 0x44
 80029d4:	f7fe f9cc 	bl	8000d70 <LCD_WR_DATA>
 80029d8:	2000      	movs	r0, #0
 80029da:	f7fe f9c9 	bl	8000d70 <LCD_WR_DATA>
 80029de:	2044      	movs	r0, #68	; 0x44
 80029e0:	f7fe f9c6 	bl	8000d70 <LCD_WR_DATA>
 80029e4:	2000      	movs	r0, #0
 80029e6:	f7fe f9c3 	bl	8000d70 <LCD_WR_DATA>
 80029ea:	2055      	movs	r0, #85	; 0x55
 80029ec:	f7fe f9c0 	bl	8000d70 <LCD_WR_DATA>
 80029f0:	2000      	movs	r0, #0
 80029f2:	f7fe f9bd 	bl	8000d70 <LCD_WR_DATA>
 80029f6:	20e9      	movs	r0, #233	; 0xe9
 80029f8:	f7fe f9a6 	bl	8000d48 <LCD_WR_REG>
 80029fc:	20aa      	movs	r0, #170	; 0xaa
 80029fe:	f7fe f9b7 	bl	8000d70 <LCD_WR_DATA>
 8002a02:	2000      	movs	r0, #0
 8002a04:	f7fe f9b4 	bl	8000d70 <LCD_WR_DATA>
 8002a08:	2000      	movs	r0, #0
 8002a0a:	f7fe f9b1 	bl	8000d70 <LCD_WR_DATA>
 8002a0e:	2000      	movs	r0, #0
 8002a10:	f7fe f9ae 	bl	8000d70 <LCD_WR_DATA>
 8002a14:	2000      	movs	r0, #0
 8002a16:	f7fe f997 	bl	8000d48 <LCD_WR_REG>
 8002a1a:	20aa      	movs	r0, #170	; 0xaa
 8002a1c:	f7fe f9a8 	bl	8000d70 <LCD_WR_DATA>
 8002a20:	20cf      	movs	r0, #207	; 0xcf
 8002a22:	f7fe f991 	bl	8000d48 <LCD_WR_REG>
 8002a26:	2000      	movs	r0, #0
 8002a28:	f7fe f9a2 	bl	8000d70 <LCD_WR_DATA>
 8002a2c:	2000      	movs	r0, #0
 8002a2e:	f7fe f99f 	bl	8000d70 <LCD_WR_DATA>
 8002a32:	2000      	movs	r0, #0
 8002a34:	f7fe f99c 	bl	8000d70 <LCD_WR_DATA>
 8002a38:	2000      	movs	r0, #0
 8002a3a:	f7fe f999 	bl	8000d70 <LCD_WR_DATA>
 8002a3e:	2000      	movs	r0, #0
 8002a40:	f7fe f996 	bl	8000d70 <LCD_WR_DATA>
 8002a44:	2000      	movs	r0, #0
 8002a46:	f7fe f993 	bl	8000d70 <LCD_WR_DATA>
 8002a4a:	2000      	movs	r0, #0
 8002a4c:	f7fe f990 	bl	8000d70 <LCD_WR_DATA>
 8002a50:	2000      	movs	r0, #0
 8002a52:	f7fe f98d 	bl	8000d70 <LCD_WR_DATA>
 8002a56:	2000      	movs	r0, #0
 8002a58:	f7fe f98a 	bl	8000d70 <LCD_WR_DATA>
 8002a5c:	2000      	movs	r0, #0
 8002a5e:	f7fe f987 	bl	8000d70 <LCD_WR_DATA>
 8002a62:	2000      	movs	r0, #0
 8002a64:	f7fe f984 	bl	8000d70 <LCD_WR_DATA>
 8002a68:	2000      	movs	r0, #0
 8002a6a:	f7fe f981 	bl	8000d70 <LCD_WR_DATA>
 8002a6e:	2000      	movs	r0, #0
 8002a70:	f7fe f97e 	bl	8000d70 <LCD_WR_DATA>
 8002a74:	2000      	movs	r0, #0
 8002a76:	f7fe f97b 	bl	8000d70 <LCD_WR_DATA>
 8002a7a:	2000      	movs	r0, #0
 8002a7c:	f7fe f978 	bl	8000d70 <LCD_WR_DATA>
 8002a80:	2000      	movs	r0, #0
 8002a82:	f7fe f975 	bl	8000d70 <LCD_WR_DATA>
 8002a86:	2000      	movs	r0, #0
 8002a88:	f7fe f972 	bl	8000d70 <LCD_WR_DATA>
 8002a8c:	20f0      	movs	r0, #240	; 0xf0
 8002a8e:	f7fe f95b 	bl	8000d48 <LCD_WR_REG>
 8002a92:	2000      	movs	r0, #0
 8002a94:	f7fe f96c 	bl	8000d70 <LCD_WR_DATA>
 8002a98:	2050      	movs	r0, #80	; 0x50
 8002a9a:	f7fe f969 	bl	8000d70 <LCD_WR_DATA>
 8002a9e:	2000      	movs	r0, #0
 8002aa0:	f7fe f966 	bl	8000d70 <LCD_WR_DATA>
 8002aa4:	2000      	movs	r0, #0
 8002aa6:	f7fe f963 	bl	8000d70 <LCD_WR_DATA>
 8002aaa:	2000      	movs	r0, #0
 8002aac:	f7fe f960 	bl	8000d70 <LCD_WR_DATA>
 8002ab0:	20f3      	movs	r0, #243	; 0xf3
 8002ab2:	f7fe f949 	bl	8000d48 <LCD_WR_REG>
 8002ab6:	2000      	movs	r0, #0
 8002ab8:	f7fe f95a 	bl	8000d70 <LCD_WR_DATA>
 8002abc:	20f9      	movs	r0, #249	; 0xf9
 8002abe:	f7fe f943 	bl	8000d48 <LCD_WR_REG>
 8002ac2:	2006      	movs	r0, #6
 8002ac4:	f7fe f954 	bl	8000d70 <LCD_WR_DATA>
 8002ac8:	2010      	movs	r0, #16
 8002aca:	f7fe f951 	bl	8000d70 <LCD_WR_DATA>
 8002ace:	2029      	movs	r0, #41	; 0x29
 8002ad0:	f7fe f94e 	bl	8000d70 <LCD_WR_DATA>
 8002ad4:	2000      	movs	r0, #0
 8002ad6:	f7fe f94b 	bl	8000d70 <LCD_WR_DATA>
 8002ada:	203a      	movs	r0, #58	; 0x3a
 8002adc:	f7fe f934 	bl	8000d48 <LCD_WR_REG>
 8002ae0:	2055      	movs	r0, #85	; 0x55
 8002ae2:	f7fe f945 	bl	8000d70 <LCD_WR_DATA>
 8002ae6:	2011      	movs	r0, #17
 8002ae8:	f7fe f92e 	bl	8000d48 <LCD_WR_REG>
 8002aec:	2064      	movs	r0, #100	; 0x64
 8002aee:	f7fe f91f 	bl	8000d30 <delay_ms>
 8002af2:	2029      	movs	r0, #41	; 0x29
 8002af4:	f7fe f928 	bl	8000d48 <LCD_WR_REG>
 8002af8:	2035      	movs	r0, #53	; 0x35
 8002afa:	f7fe f925 	bl	8000d48 <LCD_WR_REG>
 8002afe:	2000      	movs	r0, #0
 8002b00:	f7fe f936 	bl	8000d70 <LCD_WR_DATA>
 8002b04:	2051      	movs	r0, #81	; 0x51
 8002b06:	f7fe f91f 	bl	8000d48 <LCD_WR_REG>
 8002b0a:	20ff      	movs	r0, #255	; 0xff
 8002b0c:	f7fe f930 	bl	8000d70 <LCD_WR_DATA>
 8002b10:	2053      	movs	r0, #83	; 0x53
 8002b12:	f7fe f919 	bl	8000d48 <LCD_WR_REG>
 8002b16:	202c      	movs	r0, #44	; 0x2c
 8002b18:	f7fe f92a 	bl	8000d70 <LCD_WR_DATA>
 8002b1c:	2055      	movs	r0, #85	; 0x55
 8002b1e:	f7fe f913 	bl	8000d48 <LCD_WR_REG>
 8002b22:	2082      	movs	r0, #130	; 0x82
 8002b24:	f7fe f924 	bl	8000d70 <LCD_WR_DATA>
 8002b28:	202c      	movs	r0, #44	; 0x2c
 8002b2a:	f7fe f90d 	bl	8000d48 <LCD_WR_REG>
 8002b2e:	f001 b847 	b.w	8003bc0 <LCD_Init+0x25c0>
 8002b32:	4b04      	ldr	r3, [pc, #16]	; (8002b44 <LCD_Init+0x1544>)
 8002b34:	889b      	ldrh	r3, [r3, #4]
 8002b36:	f245 5210 	movw	r2, #21776	; 0x5510
 8002b3a:	4293      	cmp	r3, r2
 8002b3c:	f040 8781 	bne.w	8003a42 <LCD_Init+0x2442>
 8002b40:	e002      	b.n	8002b48 <LCD_Init+0x1548>
 8002b42:	bf00      	nop
 8002b44:	20000204 	.word	0x20000204
 8002b48:	2155      	movs	r1, #85	; 0x55
 8002b4a:	f44f 4070 	mov.w	r0, #61440	; 0xf000
 8002b4e:	f7fe f933 	bl	8000db8 <LCD_WriteReg>
 8002b52:	21aa      	movs	r1, #170	; 0xaa
 8002b54:	f24f 0001 	movw	r0, #61441	; 0xf001
 8002b58:	f7fe f92e 	bl	8000db8 <LCD_WriteReg>
 8002b5c:	2152      	movs	r1, #82	; 0x52
 8002b5e:	f24f 0002 	movw	r0, #61442	; 0xf002
 8002b62:	f7fe f929 	bl	8000db8 <LCD_WriteReg>
 8002b66:	2108      	movs	r1, #8
 8002b68:	f24f 0003 	movw	r0, #61443	; 0xf003
 8002b6c:	f7fe f924 	bl	8000db8 <LCD_WriteReg>
 8002b70:	2101      	movs	r1, #1
 8002b72:	f24f 0004 	movw	r0, #61444	; 0xf004
 8002b76:	f7fe f91f 	bl	8000db8 <LCD_WriteReg>
 8002b7a:	210d      	movs	r1, #13
 8002b7c:	f44f 4030 	mov.w	r0, #45056	; 0xb000
 8002b80:	f7fe f91a 	bl	8000db8 <LCD_WriteReg>
 8002b84:	210d      	movs	r1, #13
 8002b86:	f24b 0001 	movw	r0, #45057	; 0xb001
 8002b8a:	f7fe f915 	bl	8000db8 <LCD_WriteReg>
 8002b8e:	210d      	movs	r1, #13
 8002b90:	f24b 0002 	movw	r0, #45058	; 0xb002
 8002b94:	f7fe f910 	bl	8000db8 <LCD_WriteReg>
 8002b98:	2134      	movs	r1, #52	; 0x34
 8002b9a:	f44f 4036 	mov.w	r0, #46592	; 0xb600
 8002b9e:	f7fe f90b 	bl	8000db8 <LCD_WriteReg>
 8002ba2:	2134      	movs	r1, #52	; 0x34
 8002ba4:	f24b 6001 	movw	r0, #46593	; 0xb601
 8002ba8:	f7fe f906 	bl	8000db8 <LCD_WriteReg>
 8002bac:	2134      	movs	r1, #52	; 0x34
 8002bae:	f24b 6002 	movw	r0, #46594	; 0xb602
 8002bb2:	f7fe f901 	bl	8000db8 <LCD_WriteReg>
 8002bb6:	210d      	movs	r1, #13
 8002bb8:	f44f 4031 	mov.w	r0, #45312	; 0xb100
 8002bbc:	f7fe f8fc 	bl	8000db8 <LCD_WriteReg>
 8002bc0:	210d      	movs	r1, #13
 8002bc2:	f24b 1001 	movw	r0, #45313	; 0xb101
 8002bc6:	f7fe f8f7 	bl	8000db8 <LCD_WriteReg>
 8002bca:	210d      	movs	r1, #13
 8002bcc:	f24b 1002 	movw	r0, #45314	; 0xb102
 8002bd0:	f7fe f8f2 	bl	8000db8 <LCD_WriteReg>
 8002bd4:	2134      	movs	r1, #52	; 0x34
 8002bd6:	f44f 4037 	mov.w	r0, #46848	; 0xb700
 8002bda:	f7fe f8ed 	bl	8000db8 <LCD_WriteReg>
 8002bde:	2134      	movs	r1, #52	; 0x34
 8002be0:	f24b 7001 	movw	r0, #46849	; 0xb701
 8002be4:	f7fe f8e8 	bl	8000db8 <LCD_WriteReg>
 8002be8:	2134      	movs	r1, #52	; 0x34
 8002bea:	f24b 7002 	movw	r0, #46850	; 0xb702
 8002bee:	f7fe f8e3 	bl	8000db8 <LCD_WriteReg>
 8002bf2:	2100      	movs	r1, #0
 8002bf4:	f44f 4032 	mov.w	r0, #45568	; 0xb200
 8002bf8:	f7fe f8de 	bl	8000db8 <LCD_WriteReg>
 8002bfc:	2100      	movs	r1, #0
 8002bfe:	f24b 2001 	movw	r0, #45569	; 0xb201
 8002c02:	f7fe f8d9 	bl	8000db8 <LCD_WriteReg>
 8002c06:	2100      	movs	r1, #0
 8002c08:	f24b 2002 	movw	r0, #45570	; 0xb202
 8002c0c:	f7fe f8d4 	bl	8000db8 <LCD_WriteReg>
 8002c10:	2124      	movs	r1, #36	; 0x24
 8002c12:	f44f 4038 	mov.w	r0, #47104	; 0xb800
 8002c16:	f7fe f8cf 	bl	8000db8 <LCD_WriteReg>
 8002c1a:	2124      	movs	r1, #36	; 0x24
 8002c1c:	f64b 0001 	movw	r0, #47105	; 0xb801
 8002c20:	f7fe f8ca 	bl	8000db8 <LCD_WriteReg>
 8002c24:	2124      	movs	r1, #36	; 0x24
 8002c26:	f64b 0002 	movw	r0, #47106	; 0xb802
 8002c2a:	f7fe f8c5 	bl	8000db8 <LCD_WriteReg>
 8002c2e:	2101      	movs	r1, #1
 8002c30:	f44f 403f 	mov.w	r0, #48896	; 0xbf00
 8002c34:	f7fe f8c0 	bl	8000db8 <LCD_WriteReg>
 8002c38:	210f      	movs	r1, #15
 8002c3a:	f44f 4033 	mov.w	r0, #45824	; 0xb300
 8002c3e:	f7fe f8bb 	bl	8000db8 <LCD_WriteReg>
 8002c42:	210f      	movs	r1, #15
 8002c44:	f24b 3001 	movw	r0, #45825	; 0xb301
 8002c48:	f7fe f8b6 	bl	8000db8 <LCD_WriteReg>
 8002c4c:	210f      	movs	r1, #15
 8002c4e:	f24b 3002 	movw	r0, #45826	; 0xb302
 8002c52:	f7fe f8b1 	bl	8000db8 <LCD_WriteReg>
 8002c56:	2134      	movs	r1, #52	; 0x34
 8002c58:	f44f 4039 	mov.w	r0, #47360	; 0xb900
 8002c5c:	f7fe f8ac 	bl	8000db8 <LCD_WriteReg>
 8002c60:	2134      	movs	r1, #52	; 0x34
 8002c62:	f64b 1001 	movw	r0, #47361	; 0xb901
 8002c66:	f7fe f8a7 	bl	8000db8 <LCD_WriteReg>
 8002c6a:	2134      	movs	r1, #52	; 0x34
 8002c6c:	f64b 1002 	movw	r0, #47362	; 0xb902
 8002c70:	f7fe f8a2 	bl	8000db8 <LCD_WriteReg>
 8002c74:	2108      	movs	r1, #8
 8002c76:	f44f 4035 	mov.w	r0, #46336	; 0xb500
 8002c7a:	f7fe f89d 	bl	8000db8 <LCD_WriteReg>
 8002c7e:	2108      	movs	r1, #8
 8002c80:	f24b 5001 	movw	r0, #46337	; 0xb501
 8002c84:	f7fe f898 	bl	8000db8 <LCD_WriteReg>
 8002c88:	2108      	movs	r1, #8
 8002c8a:	f24b 5002 	movw	r0, #46338	; 0xb502
 8002c8e:	f7fe f893 	bl	8000db8 <LCD_WriteReg>
 8002c92:	2103      	movs	r1, #3
 8002c94:	f44f 4042 	mov.w	r0, #49664	; 0xc200
 8002c98:	f7fe f88e 	bl	8000db8 <LCD_WriteReg>
 8002c9c:	2124      	movs	r1, #36	; 0x24
 8002c9e:	f44f 403a 	mov.w	r0, #47616	; 0xba00
 8002ca2:	f7fe f889 	bl	8000db8 <LCD_WriteReg>
 8002ca6:	2124      	movs	r1, #36	; 0x24
 8002ca8:	f64b 2001 	movw	r0, #47617	; 0xba01
 8002cac:	f7fe f884 	bl	8000db8 <LCD_WriteReg>
 8002cb0:	2124      	movs	r1, #36	; 0x24
 8002cb2:	f64b 2002 	movw	r0, #47618	; 0xba02
 8002cb6:	f7fe f87f 	bl	8000db8 <LCD_WriteReg>
 8002cba:	2100      	movs	r1, #0
 8002cbc:	f44f 403c 	mov.w	r0, #48128	; 0xbc00
 8002cc0:	f7fe f87a 	bl	8000db8 <LCD_WriteReg>
 8002cc4:	2178      	movs	r1, #120	; 0x78
 8002cc6:	f64b 4001 	movw	r0, #48129	; 0xbc01
 8002cca:	f7fe f875 	bl	8000db8 <LCD_WriteReg>
 8002cce:	2100      	movs	r1, #0
 8002cd0:	f64b 4002 	movw	r0, #48130	; 0xbc02
 8002cd4:	f7fe f870 	bl	8000db8 <LCD_WriteReg>
 8002cd8:	2100      	movs	r1, #0
 8002cda:	f44f 403d 	mov.w	r0, #48384	; 0xbd00
 8002cde:	f7fe f86b 	bl	8000db8 <LCD_WriteReg>
 8002ce2:	2178      	movs	r1, #120	; 0x78
 8002ce4:	f64b 5001 	movw	r0, #48385	; 0xbd01
 8002ce8:	f7fe f866 	bl	8000db8 <LCD_WriteReg>
 8002cec:	2100      	movs	r1, #0
 8002cee:	f64b 5002 	movw	r0, #48386	; 0xbd02
 8002cf2:	f7fe f861 	bl	8000db8 <LCD_WriteReg>
 8002cf6:	2100      	movs	r1, #0
 8002cf8:	f44f 403e 	mov.w	r0, #48640	; 0xbe00
 8002cfc:	f7fe f85c 	bl	8000db8 <LCD_WriteReg>
 8002d00:	2164      	movs	r1, #100	; 0x64
 8002d02:	f64b 6001 	movw	r0, #48641	; 0xbe01
 8002d06:	f7fe f857 	bl	8000db8 <LCD_WriteReg>
 8002d0a:	2100      	movs	r1, #0
 8002d0c:	f44f 4051 	mov.w	r0, #53504	; 0xd100
 8002d10:	f7fe f852 	bl	8000db8 <LCD_WriteReg>
 8002d14:	2133      	movs	r1, #51	; 0x33
 8002d16:	f24d 1001 	movw	r0, #53505	; 0xd101
 8002d1a:	f7fe f84d 	bl	8000db8 <LCD_WriteReg>
 8002d1e:	2100      	movs	r1, #0
 8002d20:	f24d 1002 	movw	r0, #53506	; 0xd102
 8002d24:	f7fe f848 	bl	8000db8 <LCD_WriteReg>
 8002d28:	2134      	movs	r1, #52	; 0x34
 8002d2a:	f24d 1003 	movw	r0, #53507	; 0xd103
 8002d2e:	f7fe f843 	bl	8000db8 <LCD_WriteReg>
 8002d32:	2100      	movs	r1, #0
 8002d34:	f24d 1004 	movw	r0, #53508	; 0xd104
 8002d38:	f7fe f83e 	bl	8000db8 <LCD_WriteReg>
 8002d3c:	213a      	movs	r1, #58	; 0x3a
 8002d3e:	f24d 1005 	movw	r0, #53509	; 0xd105
 8002d42:	f7fe f839 	bl	8000db8 <LCD_WriteReg>
 8002d46:	2100      	movs	r1, #0
 8002d48:	f24d 1006 	movw	r0, #53510	; 0xd106
 8002d4c:	f7fe f834 	bl	8000db8 <LCD_WriteReg>
 8002d50:	214a      	movs	r1, #74	; 0x4a
 8002d52:	f24d 1007 	movw	r0, #53511	; 0xd107
 8002d56:	f7fe f82f 	bl	8000db8 <LCD_WriteReg>
 8002d5a:	2100      	movs	r1, #0
 8002d5c:	f24d 1008 	movw	r0, #53512	; 0xd108
 8002d60:	f7fe f82a 	bl	8000db8 <LCD_WriteReg>
 8002d64:	215c      	movs	r1, #92	; 0x5c
 8002d66:	f24d 1009 	movw	r0, #53513	; 0xd109
 8002d6a:	f7fe f825 	bl	8000db8 <LCD_WriteReg>
 8002d6e:	2100      	movs	r1, #0
 8002d70:	f24d 100a 	movw	r0, #53514	; 0xd10a
 8002d74:	f7fe f820 	bl	8000db8 <LCD_WriteReg>
 8002d78:	2181      	movs	r1, #129	; 0x81
 8002d7a:	f24d 100b 	movw	r0, #53515	; 0xd10b
 8002d7e:	f7fe f81b 	bl	8000db8 <LCD_WriteReg>
 8002d82:	2100      	movs	r1, #0
 8002d84:	f24d 100c 	movw	r0, #53516	; 0xd10c
 8002d88:	f7fe f816 	bl	8000db8 <LCD_WriteReg>
 8002d8c:	21a6      	movs	r1, #166	; 0xa6
 8002d8e:	f24d 100d 	movw	r0, #53517	; 0xd10d
 8002d92:	f7fe f811 	bl	8000db8 <LCD_WriteReg>
 8002d96:	2100      	movs	r1, #0
 8002d98:	f24d 100e 	movw	r0, #53518	; 0xd10e
 8002d9c:	f7fe f80c 	bl	8000db8 <LCD_WriteReg>
 8002da0:	21e5      	movs	r1, #229	; 0xe5
 8002da2:	f24d 100f 	movw	r0, #53519	; 0xd10f
 8002da6:	f7fe f807 	bl	8000db8 <LCD_WriteReg>
 8002daa:	2101      	movs	r1, #1
 8002dac:	f24d 1010 	movw	r0, #53520	; 0xd110
 8002db0:	f7fe f802 	bl	8000db8 <LCD_WriteReg>
 8002db4:	2113      	movs	r1, #19
 8002db6:	f24d 1011 	movw	r0, #53521	; 0xd111
 8002dba:	f7fd fffd 	bl	8000db8 <LCD_WriteReg>
 8002dbe:	2101      	movs	r1, #1
 8002dc0:	f24d 1012 	movw	r0, #53522	; 0xd112
 8002dc4:	f7fd fff8 	bl	8000db8 <LCD_WriteReg>
 8002dc8:	2154      	movs	r1, #84	; 0x54
 8002dca:	f24d 1013 	movw	r0, #53523	; 0xd113
 8002dce:	f7fd fff3 	bl	8000db8 <LCD_WriteReg>
 8002dd2:	2101      	movs	r1, #1
 8002dd4:	f24d 1014 	movw	r0, #53524	; 0xd114
 8002dd8:	f7fd ffee 	bl	8000db8 <LCD_WriteReg>
 8002ddc:	2182      	movs	r1, #130	; 0x82
 8002dde:	f24d 1015 	movw	r0, #53525	; 0xd115
 8002de2:	f7fd ffe9 	bl	8000db8 <LCD_WriteReg>
 8002de6:	2101      	movs	r1, #1
 8002de8:	f24d 1016 	movw	r0, #53526	; 0xd116
 8002dec:	f7fd ffe4 	bl	8000db8 <LCD_WriteReg>
 8002df0:	21ca      	movs	r1, #202	; 0xca
 8002df2:	f24d 1017 	movw	r0, #53527	; 0xd117
 8002df6:	f7fd ffdf 	bl	8000db8 <LCD_WriteReg>
 8002dfa:	2102      	movs	r1, #2
 8002dfc:	f24d 1018 	movw	r0, #53528	; 0xd118
 8002e00:	f7fd ffda 	bl	8000db8 <LCD_WriteReg>
 8002e04:	2100      	movs	r1, #0
 8002e06:	f24d 1019 	movw	r0, #53529	; 0xd119
 8002e0a:	f7fd ffd5 	bl	8000db8 <LCD_WriteReg>
 8002e0e:	2102      	movs	r1, #2
 8002e10:	f24d 101a 	movw	r0, #53530	; 0xd11a
 8002e14:	f7fd ffd0 	bl	8000db8 <LCD_WriteReg>
 8002e18:	2101      	movs	r1, #1
 8002e1a:	f24d 101b 	movw	r0, #53531	; 0xd11b
 8002e1e:	f7fd ffcb 	bl	8000db8 <LCD_WriteReg>
 8002e22:	2102      	movs	r1, #2
 8002e24:	f24d 101c 	movw	r0, #53532	; 0xd11c
 8002e28:	f7fd ffc6 	bl	8000db8 <LCD_WriteReg>
 8002e2c:	2134      	movs	r1, #52	; 0x34
 8002e2e:	f24d 101d 	movw	r0, #53533	; 0xd11d
 8002e32:	f7fd ffc1 	bl	8000db8 <LCD_WriteReg>
 8002e36:	2102      	movs	r1, #2
 8002e38:	f24d 101e 	movw	r0, #53534	; 0xd11e
 8002e3c:	f7fd ffbc 	bl	8000db8 <LCD_WriteReg>
 8002e40:	2167      	movs	r1, #103	; 0x67
 8002e42:	f24d 101f 	movw	r0, #53535	; 0xd11f
 8002e46:	f7fd ffb7 	bl	8000db8 <LCD_WriteReg>
 8002e4a:	2102      	movs	r1, #2
 8002e4c:	f24d 1020 	movw	r0, #53536	; 0xd120
 8002e50:	f7fd ffb2 	bl	8000db8 <LCD_WriteReg>
 8002e54:	2184      	movs	r1, #132	; 0x84
 8002e56:	f24d 1021 	movw	r0, #53537	; 0xd121
 8002e5a:	f7fd ffad 	bl	8000db8 <LCD_WriteReg>
 8002e5e:	2102      	movs	r1, #2
 8002e60:	f24d 1022 	movw	r0, #53538	; 0xd122
 8002e64:	f7fd ffa8 	bl	8000db8 <LCD_WriteReg>
 8002e68:	21a4      	movs	r1, #164	; 0xa4
 8002e6a:	f24d 1023 	movw	r0, #53539	; 0xd123
 8002e6e:	f7fd ffa3 	bl	8000db8 <LCD_WriteReg>
 8002e72:	2102      	movs	r1, #2
 8002e74:	f24d 1024 	movw	r0, #53540	; 0xd124
 8002e78:	f7fd ff9e 	bl	8000db8 <LCD_WriteReg>
 8002e7c:	21b7      	movs	r1, #183	; 0xb7
 8002e7e:	f24d 1025 	movw	r0, #53541	; 0xd125
 8002e82:	f7fd ff99 	bl	8000db8 <LCD_WriteReg>
 8002e86:	2102      	movs	r1, #2
 8002e88:	f24d 1026 	movw	r0, #53542	; 0xd126
 8002e8c:	f7fd ff94 	bl	8000db8 <LCD_WriteReg>
 8002e90:	21cf      	movs	r1, #207	; 0xcf
 8002e92:	f24d 1027 	movw	r0, #53543	; 0xd127
 8002e96:	f7fd ff8f 	bl	8000db8 <LCD_WriteReg>
 8002e9a:	2102      	movs	r1, #2
 8002e9c:	f24d 1028 	movw	r0, #53544	; 0xd128
 8002ea0:	f7fd ff8a 	bl	8000db8 <LCD_WriteReg>
 8002ea4:	21de      	movs	r1, #222	; 0xde
 8002ea6:	f24d 1029 	movw	r0, #53545	; 0xd129
 8002eaa:	f7fd ff85 	bl	8000db8 <LCD_WriteReg>
 8002eae:	2102      	movs	r1, #2
 8002eb0:	f24d 102a 	movw	r0, #53546	; 0xd12a
 8002eb4:	f7fd ff80 	bl	8000db8 <LCD_WriteReg>
 8002eb8:	21f2      	movs	r1, #242	; 0xf2
 8002eba:	f24d 102b 	movw	r0, #53547	; 0xd12b
 8002ebe:	f7fd ff7b 	bl	8000db8 <LCD_WriteReg>
 8002ec2:	2102      	movs	r1, #2
 8002ec4:	f24d 102c 	movw	r0, #53548	; 0xd12c
 8002ec8:	f7fd ff76 	bl	8000db8 <LCD_WriteReg>
 8002ecc:	21fe      	movs	r1, #254	; 0xfe
 8002ece:	f24d 102d 	movw	r0, #53549	; 0xd12d
 8002ed2:	f7fd ff71 	bl	8000db8 <LCD_WriteReg>
 8002ed6:	2103      	movs	r1, #3
 8002ed8:	f24d 102e 	movw	r0, #53550	; 0xd12e
 8002edc:	f7fd ff6c 	bl	8000db8 <LCD_WriteReg>
 8002ee0:	2110      	movs	r1, #16
 8002ee2:	f24d 102f 	movw	r0, #53551	; 0xd12f
 8002ee6:	f7fd ff67 	bl	8000db8 <LCD_WriteReg>
 8002eea:	2103      	movs	r1, #3
 8002eec:	f24d 1030 	movw	r0, #53552	; 0xd130
 8002ef0:	f7fd ff62 	bl	8000db8 <LCD_WriteReg>
 8002ef4:	2133      	movs	r1, #51	; 0x33
 8002ef6:	f24d 1031 	movw	r0, #53553	; 0xd131
 8002efa:	f7fd ff5d 	bl	8000db8 <LCD_WriteReg>
 8002efe:	2103      	movs	r1, #3
 8002f00:	f24d 1032 	movw	r0, #53554	; 0xd132
 8002f04:	f7fd ff58 	bl	8000db8 <LCD_WriteReg>
 8002f08:	216d      	movs	r1, #109	; 0x6d
 8002f0a:	f24d 1033 	movw	r0, #53555	; 0xd133
 8002f0e:	f7fd ff53 	bl	8000db8 <LCD_WriteReg>
 8002f12:	2100      	movs	r1, #0
 8002f14:	f44f 4052 	mov.w	r0, #53760	; 0xd200
 8002f18:	f7fd ff4e 	bl	8000db8 <LCD_WriteReg>
 8002f1c:	2133      	movs	r1, #51	; 0x33
 8002f1e:	f24d 2001 	movw	r0, #53761	; 0xd201
 8002f22:	f7fd ff49 	bl	8000db8 <LCD_WriteReg>
 8002f26:	2100      	movs	r1, #0
 8002f28:	f24d 2002 	movw	r0, #53762	; 0xd202
 8002f2c:	f7fd ff44 	bl	8000db8 <LCD_WriteReg>
 8002f30:	2134      	movs	r1, #52	; 0x34
 8002f32:	f24d 2003 	movw	r0, #53763	; 0xd203
 8002f36:	f7fd ff3f 	bl	8000db8 <LCD_WriteReg>
 8002f3a:	2100      	movs	r1, #0
 8002f3c:	f24d 2004 	movw	r0, #53764	; 0xd204
 8002f40:	f7fd ff3a 	bl	8000db8 <LCD_WriteReg>
 8002f44:	213a      	movs	r1, #58	; 0x3a
 8002f46:	f24d 2005 	movw	r0, #53765	; 0xd205
 8002f4a:	f7fd ff35 	bl	8000db8 <LCD_WriteReg>
 8002f4e:	2100      	movs	r1, #0
 8002f50:	f24d 2006 	movw	r0, #53766	; 0xd206
 8002f54:	f7fd ff30 	bl	8000db8 <LCD_WriteReg>
 8002f58:	214a      	movs	r1, #74	; 0x4a
 8002f5a:	f24d 2007 	movw	r0, #53767	; 0xd207
 8002f5e:	f7fd ff2b 	bl	8000db8 <LCD_WriteReg>
 8002f62:	2100      	movs	r1, #0
 8002f64:	f24d 2008 	movw	r0, #53768	; 0xd208
 8002f68:	f7fd ff26 	bl	8000db8 <LCD_WriteReg>
 8002f6c:	215c      	movs	r1, #92	; 0x5c
 8002f6e:	f24d 2009 	movw	r0, #53769	; 0xd209
 8002f72:	f7fd ff21 	bl	8000db8 <LCD_WriteReg>
 8002f76:	2100      	movs	r1, #0
 8002f78:	f24d 200a 	movw	r0, #53770	; 0xd20a
 8002f7c:	f7fd ff1c 	bl	8000db8 <LCD_WriteReg>
 8002f80:	2181      	movs	r1, #129	; 0x81
 8002f82:	f24d 200b 	movw	r0, #53771	; 0xd20b
 8002f86:	f7fd ff17 	bl	8000db8 <LCD_WriteReg>
 8002f8a:	2100      	movs	r1, #0
 8002f8c:	f24d 200c 	movw	r0, #53772	; 0xd20c
 8002f90:	f7fd ff12 	bl	8000db8 <LCD_WriteReg>
 8002f94:	21a6      	movs	r1, #166	; 0xa6
 8002f96:	f24d 200d 	movw	r0, #53773	; 0xd20d
 8002f9a:	f7fd ff0d 	bl	8000db8 <LCD_WriteReg>
 8002f9e:	2100      	movs	r1, #0
 8002fa0:	f24d 200e 	movw	r0, #53774	; 0xd20e
 8002fa4:	f7fd ff08 	bl	8000db8 <LCD_WriteReg>
 8002fa8:	21e5      	movs	r1, #229	; 0xe5
 8002faa:	f24d 200f 	movw	r0, #53775	; 0xd20f
 8002fae:	f7fd ff03 	bl	8000db8 <LCD_WriteReg>
 8002fb2:	2101      	movs	r1, #1
 8002fb4:	f24d 2010 	movw	r0, #53776	; 0xd210
 8002fb8:	f7fd fefe 	bl	8000db8 <LCD_WriteReg>
 8002fbc:	2113      	movs	r1, #19
 8002fbe:	f24d 2011 	movw	r0, #53777	; 0xd211
 8002fc2:	f7fd fef9 	bl	8000db8 <LCD_WriteReg>
 8002fc6:	2101      	movs	r1, #1
 8002fc8:	f24d 2012 	movw	r0, #53778	; 0xd212
 8002fcc:	f7fd fef4 	bl	8000db8 <LCD_WriteReg>
 8002fd0:	2154      	movs	r1, #84	; 0x54
 8002fd2:	f24d 2013 	movw	r0, #53779	; 0xd213
 8002fd6:	f7fd feef 	bl	8000db8 <LCD_WriteReg>
 8002fda:	2101      	movs	r1, #1
 8002fdc:	f24d 2014 	movw	r0, #53780	; 0xd214
 8002fe0:	f7fd feea 	bl	8000db8 <LCD_WriteReg>
 8002fe4:	2182      	movs	r1, #130	; 0x82
 8002fe6:	f24d 2015 	movw	r0, #53781	; 0xd215
 8002fea:	f7fd fee5 	bl	8000db8 <LCD_WriteReg>
 8002fee:	2101      	movs	r1, #1
 8002ff0:	f24d 2016 	movw	r0, #53782	; 0xd216
 8002ff4:	f7fd fee0 	bl	8000db8 <LCD_WriteReg>
 8002ff8:	21ca      	movs	r1, #202	; 0xca
 8002ffa:	f24d 2017 	movw	r0, #53783	; 0xd217
 8002ffe:	f7fd fedb 	bl	8000db8 <LCD_WriteReg>
 8003002:	2102      	movs	r1, #2
 8003004:	f24d 2018 	movw	r0, #53784	; 0xd218
 8003008:	f7fd fed6 	bl	8000db8 <LCD_WriteReg>
 800300c:	2100      	movs	r1, #0
 800300e:	f24d 2019 	movw	r0, #53785	; 0xd219
 8003012:	f7fd fed1 	bl	8000db8 <LCD_WriteReg>
 8003016:	2102      	movs	r1, #2
 8003018:	f24d 201a 	movw	r0, #53786	; 0xd21a
 800301c:	f7fd fecc 	bl	8000db8 <LCD_WriteReg>
 8003020:	2101      	movs	r1, #1
 8003022:	f24d 201b 	movw	r0, #53787	; 0xd21b
 8003026:	f7fd fec7 	bl	8000db8 <LCD_WriteReg>
 800302a:	2102      	movs	r1, #2
 800302c:	f24d 201c 	movw	r0, #53788	; 0xd21c
 8003030:	f7fd fec2 	bl	8000db8 <LCD_WriteReg>
 8003034:	2134      	movs	r1, #52	; 0x34
 8003036:	f24d 201d 	movw	r0, #53789	; 0xd21d
 800303a:	f7fd febd 	bl	8000db8 <LCD_WriteReg>
 800303e:	2102      	movs	r1, #2
 8003040:	f24d 201e 	movw	r0, #53790	; 0xd21e
 8003044:	f7fd feb8 	bl	8000db8 <LCD_WriteReg>
 8003048:	2167      	movs	r1, #103	; 0x67
 800304a:	f24d 201f 	movw	r0, #53791	; 0xd21f
 800304e:	f7fd feb3 	bl	8000db8 <LCD_WriteReg>
 8003052:	2102      	movs	r1, #2
 8003054:	f24d 2020 	movw	r0, #53792	; 0xd220
 8003058:	f7fd feae 	bl	8000db8 <LCD_WriteReg>
 800305c:	2184      	movs	r1, #132	; 0x84
 800305e:	f24d 2021 	movw	r0, #53793	; 0xd221
 8003062:	f7fd fea9 	bl	8000db8 <LCD_WriteReg>
 8003066:	2102      	movs	r1, #2
 8003068:	f24d 2022 	movw	r0, #53794	; 0xd222
 800306c:	f7fd fea4 	bl	8000db8 <LCD_WriteReg>
 8003070:	21a4      	movs	r1, #164	; 0xa4
 8003072:	f24d 2023 	movw	r0, #53795	; 0xd223
 8003076:	f7fd fe9f 	bl	8000db8 <LCD_WriteReg>
 800307a:	2102      	movs	r1, #2
 800307c:	f24d 2024 	movw	r0, #53796	; 0xd224
 8003080:	f7fd fe9a 	bl	8000db8 <LCD_WriteReg>
 8003084:	21b7      	movs	r1, #183	; 0xb7
 8003086:	f24d 2025 	movw	r0, #53797	; 0xd225
 800308a:	f7fd fe95 	bl	8000db8 <LCD_WriteReg>
 800308e:	2102      	movs	r1, #2
 8003090:	f24d 2026 	movw	r0, #53798	; 0xd226
 8003094:	f7fd fe90 	bl	8000db8 <LCD_WriteReg>
 8003098:	21cf      	movs	r1, #207	; 0xcf
 800309a:	f24d 2027 	movw	r0, #53799	; 0xd227
 800309e:	f7fd fe8b 	bl	8000db8 <LCD_WriteReg>
 80030a2:	2102      	movs	r1, #2
 80030a4:	f24d 2028 	movw	r0, #53800	; 0xd228
 80030a8:	f7fd fe86 	bl	8000db8 <LCD_WriteReg>
 80030ac:	21de      	movs	r1, #222	; 0xde
 80030ae:	f24d 2029 	movw	r0, #53801	; 0xd229
 80030b2:	f7fd fe81 	bl	8000db8 <LCD_WriteReg>
 80030b6:	2102      	movs	r1, #2
 80030b8:	f24d 202a 	movw	r0, #53802	; 0xd22a
 80030bc:	f7fd fe7c 	bl	8000db8 <LCD_WriteReg>
 80030c0:	21f2      	movs	r1, #242	; 0xf2
 80030c2:	f24d 202b 	movw	r0, #53803	; 0xd22b
 80030c6:	f7fd fe77 	bl	8000db8 <LCD_WriteReg>
 80030ca:	2102      	movs	r1, #2
 80030cc:	f24d 202c 	movw	r0, #53804	; 0xd22c
 80030d0:	f7fd fe72 	bl	8000db8 <LCD_WriteReg>
 80030d4:	21fe      	movs	r1, #254	; 0xfe
 80030d6:	f24d 202d 	movw	r0, #53805	; 0xd22d
 80030da:	f7fd fe6d 	bl	8000db8 <LCD_WriteReg>
 80030de:	2103      	movs	r1, #3
 80030e0:	f24d 202e 	movw	r0, #53806	; 0xd22e
 80030e4:	f7fd fe68 	bl	8000db8 <LCD_WriteReg>
 80030e8:	2110      	movs	r1, #16
 80030ea:	f24d 202f 	movw	r0, #53807	; 0xd22f
 80030ee:	f7fd fe63 	bl	8000db8 <LCD_WriteReg>
 80030f2:	2103      	movs	r1, #3
 80030f4:	f24d 2030 	movw	r0, #53808	; 0xd230
 80030f8:	f7fd fe5e 	bl	8000db8 <LCD_WriteReg>
 80030fc:	2133      	movs	r1, #51	; 0x33
 80030fe:	f24d 2031 	movw	r0, #53809	; 0xd231
 8003102:	f7fd fe59 	bl	8000db8 <LCD_WriteReg>
 8003106:	2103      	movs	r1, #3
 8003108:	f24d 2032 	movw	r0, #53810	; 0xd232
 800310c:	f7fd fe54 	bl	8000db8 <LCD_WriteReg>
 8003110:	216d      	movs	r1, #109	; 0x6d
 8003112:	f24d 2033 	movw	r0, #53811	; 0xd233
 8003116:	f7fd fe4f 	bl	8000db8 <LCD_WriteReg>
 800311a:	2100      	movs	r1, #0
 800311c:	f44f 4053 	mov.w	r0, #54016	; 0xd300
 8003120:	f7fd fe4a 	bl	8000db8 <LCD_WriteReg>
 8003124:	2133      	movs	r1, #51	; 0x33
 8003126:	f24d 3001 	movw	r0, #54017	; 0xd301
 800312a:	f7fd fe45 	bl	8000db8 <LCD_WriteReg>
 800312e:	2100      	movs	r1, #0
 8003130:	f24d 3002 	movw	r0, #54018	; 0xd302
 8003134:	f7fd fe40 	bl	8000db8 <LCD_WriteReg>
 8003138:	2134      	movs	r1, #52	; 0x34
 800313a:	f24d 3003 	movw	r0, #54019	; 0xd303
 800313e:	f7fd fe3b 	bl	8000db8 <LCD_WriteReg>
 8003142:	2100      	movs	r1, #0
 8003144:	f24d 3004 	movw	r0, #54020	; 0xd304
 8003148:	f7fd fe36 	bl	8000db8 <LCD_WriteReg>
 800314c:	213a      	movs	r1, #58	; 0x3a
 800314e:	f24d 3005 	movw	r0, #54021	; 0xd305
 8003152:	f7fd fe31 	bl	8000db8 <LCD_WriteReg>
 8003156:	2100      	movs	r1, #0
 8003158:	f24d 3006 	movw	r0, #54022	; 0xd306
 800315c:	f7fd fe2c 	bl	8000db8 <LCD_WriteReg>
 8003160:	214a      	movs	r1, #74	; 0x4a
 8003162:	f24d 3007 	movw	r0, #54023	; 0xd307
 8003166:	f7fd fe27 	bl	8000db8 <LCD_WriteReg>
 800316a:	2100      	movs	r1, #0
 800316c:	f24d 3008 	movw	r0, #54024	; 0xd308
 8003170:	f7fd fe22 	bl	8000db8 <LCD_WriteReg>
 8003174:	215c      	movs	r1, #92	; 0x5c
 8003176:	f24d 3009 	movw	r0, #54025	; 0xd309
 800317a:	f7fd fe1d 	bl	8000db8 <LCD_WriteReg>
 800317e:	2100      	movs	r1, #0
 8003180:	f24d 300a 	movw	r0, #54026	; 0xd30a
 8003184:	f7fd fe18 	bl	8000db8 <LCD_WriteReg>
 8003188:	2181      	movs	r1, #129	; 0x81
 800318a:	f24d 300b 	movw	r0, #54027	; 0xd30b
 800318e:	f7fd fe13 	bl	8000db8 <LCD_WriteReg>
 8003192:	2100      	movs	r1, #0
 8003194:	f24d 300c 	movw	r0, #54028	; 0xd30c
 8003198:	f7fd fe0e 	bl	8000db8 <LCD_WriteReg>
 800319c:	21a6      	movs	r1, #166	; 0xa6
 800319e:	f24d 300d 	movw	r0, #54029	; 0xd30d
 80031a2:	f7fd fe09 	bl	8000db8 <LCD_WriteReg>
 80031a6:	2100      	movs	r1, #0
 80031a8:	f24d 300e 	movw	r0, #54030	; 0xd30e
 80031ac:	f7fd fe04 	bl	8000db8 <LCD_WriteReg>
 80031b0:	21e5      	movs	r1, #229	; 0xe5
 80031b2:	f24d 300f 	movw	r0, #54031	; 0xd30f
 80031b6:	f7fd fdff 	bl	8000db8 <LCD_WriteReg>
 80031ba:	2101      	movs	r1, #1
 80031bc:	f24d 3010 	movw	r0, #54032	; 0xd310
 80031c0:	f7fd fdfa 	bl	8000db8 <LCD_WriteReg>
 80031c4:	2113      	movs	r1, #19
 80031c6:	f24d 3011 	movw	r0, #54033	; 0xd311
 80031ca:	f7fd fdf5 	bl	8000db8 <LCD_WriteReg>
 80031ce:	2101      	movs	r1, #1
 80031d0:	f24d 3012 	movw	r0, #54034	; 0xd312
 80031d4:	f7fd fdf0 	bl	8000db8 <LCD_WriteReg>
 80031d8:	2154      	movs	r1, #84	; 0x54
 80031da:	f24d 3013 	movw	r0, #54035	; 0xd313
 80031de:	f7fd fdeb 	bl	8000db8 <LCD_WriteReg>
 80031e2:	2101      	movs	r1, #1
 80031e4:	f24d 3014 	movw	r0, #54036	; 0xd314
 80031e8:	f7fd fde6 	bl	8000db8 <LCD_WriteReg>
 80031ec:	2182      	movs	r1, #130	; 0x82
 80031ee:	f24d 3015 	movw	r0, #54037	; 0xd315
 80031f2:	f7fd fde1 	bl	8000db8 <LCD_WriteReg>
 80031f6:	2101      	movs	r1, #1
 80031f8:	f24d 3016 	movw	r0, #54038	; 0xd316
 80031fc:	f7fd fddc 	bl	8000db8 <LCD_WriteReg>
 8003200:	21ca      	movs	r1, #202	; 0xca
 8003202:	f24d 3017 	movw	r0, #54039	; 0xd317
 8003206:	f7fd fdd7 	bl	8000db8 <LCD_WriteReg>
 800320a:	2102      	movs	r1, #2
 800320c:	f24d 3018 	movw	r0, #54040	; 0xd318
 8003210:	f7fd fdd2 	bl	8000db8 <LCD_WriteReg>
 8003214:	2100      	movs	r1, #0
 8003216:	f24d 3019 	movw	r0, #54041	; 0xd319
 800321a:	f7fd fdcd 	bl	8000db8 <LCD_WriteReg>
 800321e:	2102      	movs	r1, #2
 8003220:	f24d 301a 	movw	r0, #54042	; 0xd31a
 8003224:	f7fd fdc8 	bl	8000db8 <LCD_WriteReg>
 8003228:	2101      	movs	r1, #1
 800322a:	f24d 301b 	movw	r0, #54043	; 0xd31b
 800322e:	f7fd fdc3 	bl	8000db8 <LCD_WriteReg>
 8003232:	2102      	movs	r1, #2
 8003234:	f24d 301c 	movw	r0, #54044	; 0xd31c
 8003238:	f7fd fdbe 	bl	8000db8 <LCD_WriteReg>
 800323c:	2134      	movs	r1, #52	; 0x34
 800323e:	f24d 301d 	movw	r0, #54045	; 0xd31d
 8003242:	f7fd fdb9 	bl	8000db8 <LCD_WriteReg>
 8003246:	2102      	movs	r1, #2
 8003248:	f24d 301e 	movw	r0, #54046	; 0xd31e
 800324c:	f7fd fdb4 	bl	8000db8 <LCD_WriteReg>
 8003250:	2167      	movs	r1, #103	; 0x67
 8003252:	f24d 301f 	movw	r0, #54047	; 0xd31f
 8003256:	f7fd fdaf 	bl	8000db8 <LCD_WriteReg>
 800325a:	2102      	movs	r1, #2
 800325c:	f24d 3020 	movw	r0, #54048	; 0xd320
 8003260:	f7fd fdaa 	bl	8000db8 <LCD_WriteReg>
 8003264:	2184      	movs	r1, #132	; 0x84
 8003266:	f24d 3021 	movw	r0, #54049	; 0xd321
 800326a:	f7fd fda5 	bl	8000db8 <LCD_WriteReg>
 800326e:	2102      	movs	r1, #2
 8003270:	f24d 3022 	movw	r0, #54050	; 0xd322
 8003274:	f7fd fda0 	bl	8000db8 <LCD_WriteReg>
 8003278:	21a4      	movs	r1, #164	; 0xa4
 800327a:	f24d 3023 	movw	r0, #54051	; 0xd323
 800327e:	f7fd fd9b 	bl	8000db8 <LCD_WriteReg>
 8003282:	2102      	movs	r1, #2
 8003284:	f24d 3024 	movw	r0, #54052	; 0xd324
 8003288:	f7fd fd96 	bl	8000db8 <LCD_WriteReg>
 800328c:	21b7      	movs	r1, #183	; 0xb7
 800328e:	f24d 3025 	movw	r0, #54053	; 0xd325
 8003292:	f7fd fd91 	bl	8000db8 <LCD_WriteReg>
 8003296:	2102      	movs	r1, #2
 8003298:	f24d 3026 	movw	r0, #54054	; 0xd326
 800329c:	f7fd fd8c 	bl	8000db8 <LCD_WriteReg>
 80032a0:	21cf      	movs	r1, #207	; 0xcf
 80032a2:	f24d 3027 	movw	r0, #54055	; 0xd327
 80032a6:	f7fd fd87 	bl	8000db8 <LCD_WriteReg>
 80032aa:	2102      	movs	r1, #2
 80032ac:	f24d 3028 	movw	r0, #54056	; 0xd328
 80032b0:	f7fd fd82 	bl	8000db8 <LCD_WriteReg>
 80032b4:	21de      	movs	r1, #222	; 0xde
 80032b6:	f24d 3029 	movw	r0, #54057	; 0xd329
 80032ba:	f7fd fd7d 	bl	8000db8 <LCD_WriteReg>
 80032be:	2102      	movs	r1, #2
 80032c0:	f24d 302a 	movw	r0, #54058	; 0xd32a
 80032c4:	f7fd fd78 	bl	8000db8 <LCD_WriteReg>
 80032c8:	21f2      	movs	r1, #242	; 0xf2
 80032ca:	f24d 302b 	movw	r0, #54059	; 0xd32b
 80032ce:	f7fd fd73 	bl	8000db8 <LCD_WriteReg>
 80032d2:	2102      	movs	r1, #2
 80032d4:	f24d 302c 	movw	r0, #54060	; 0xd32c
 80032d8:	f7fd fd6e 	bl	8000db8 <LCD_WriteReg>
 80032dc:	21fe      	movs	r1, #254	; 0xfe
 80032de:	f24d 302d 	movw	r0, #54061	; 0xd32d
 80032e2:	f7fd fd69 	bl	8000db8 <LCD_WriteReg>
 80032e6:	2103      	movs	r1, #3
 80032e8:	f24d 302e 	movw	r0, #54062	; 0xd32e
 80032ec:	f7fd fd64 	bl	8000db8 <LCD_WriteReg>
 80032f0:	2110      	movs	r1, #16
 80032f2:	f24d 302f 	movw	r0, #54063	; 0xd32f
 80032f6:	f7fd fd5f 	bl	8000db8 <LCD_WriteReg>
 80032fa:	2103      	movs	r1, #3
 80032fc:	f24d 3030 	movw	r0, #54064	; 0xd330
 8003300:	f7fd fd5a 	bl	8000db8 <LCD_WriteReg>
 8003304:	2133      	movs	r1, #51	; 0x33
 8003306:	f24d 3031 	movw	r0, #54065	; 0xd331
 800330a:	f7fd fd55 	bl	8000db8 <LCD_WriteReg>
 800330e:	2103      	movs	r1, #3
 8003310:	f24d 3032 	movw	r0, #54066	; 0xd332
 8003314:	f7fd fd50 	bl	8000db8 <LCD_WriteReg>
 8003318:	216d      	movs	r1, #109	; 0x6d
 800331a:	f24d 3033 	movw	r0, #54067	; 0xd333
 800331e:	f7fd fd4b 	bl	8000db8 <LCD_WriteReg>
 8003322:	2100      	movs	r1, #0
 8003324:	f44f 4054 	mov.w	r0, #54272	; 0xd400
 8003328:	f7fd fd46 	bl	8000db8 <LCD_WriteReg>
 800332c:	2133      	movs	r1, #51	; 0x33
 800332e:	f24d 4001 	movw	r0, #54273	; 0xd401
 8003332:	f7fd fd41 	bl	8000db8 <LCD_WriteReg>
 8003336:	2100      	movs	r1, #0
 8003338:	f24d 4002 	movw	r0, #54274	; 0xd402
 800333c:	f7fd fd3c 	bl	8000db8 <LCD_WriteReg>
 8003340:	2134      	movs	r1, #52	; 0x34
 8003342:	f24d 4003 	movw	r0, #54275	; 0xd403
 8003346:	f7fd fd37 	bl	8000db8 <LCD_WriteReg>
 800334a:	2100      	movs	r1, #0
 800334c:	f24d 4004 	movw	r0, #54276	; 0xd404
 8003350:	f7fd fd32 	bl	8000db8 <LCD_WriteReg>
 8003354:	213a      	movs	r1, #58	; 0x3a
 8003356:	f24d 4005 	movw	r0, #54277	; 0xd405
 800335a:	f7fd fd2d 	bl	8000db8 <LCD_WriteReg>
 800335e:	2100      	movs	r1, #0
 8003360:	f24d 4006 	movw	r0, #54278	; 0xd406
 8003364:	f7fd fd28 	bl	8000db8 <LCD_WriteReg>
 8003368:	214a      	movs	r1, #74	; 0x4a
 800336a:	f24d 4007 	movw	r0, #54279	; 0xd407
 800336e:	f7fd fd23 	bl	8000db8 <LCD_WriteReg>
 8003372:	2100      	movs	r1, #0
 8003374:	f24d 4008 	movw	r0, #54280	; 0xd408
 8003378:	f7fd fd1e 	bl	8000db8 <LCD_WriteReg>
 800337c:	215c      	movs	r1, #92	; 0x5c
 800337e:	f24d 4009 	movw	r0, #54281	; 0xd409
 8003382:	f7fd fd19 	bl	8000db8 <LCD_WriteReg>
 8003386:	2100      	movs	r1, #0
 8003388:	f24d 400a 	movw	r0, #54282	; 0xd40a
 800338c:	f7fd fd14 	bl	8000db8 <LCD_WriteReg>
 8003390:	2181      	movs	r1, #129	; 0x81
 8003392:	f24d 400b 	movw	r0, #54283	; 0xd40b
 8003396:	f7fd fd0f 	bl	8000db8 <LCD_WriteReg>
 800339a:	2100      	movs	r1, #0
 800339c:	f24d 400c 	movw	r0, #54284	; 0xd40c
 80033a0:	f7fd fd0a 	bl	8000db8 <LCD_WriteReg>
 80033a4:	21a6      	movs	r1, #166	; 0xa6
 80033a6:	f24d 400d 	movw	r0, #54285	; 0xd40d
 80033aa:	f7fd fd05 	bl	8000db8 <LCD_WriteReg>
 80033ae:	2100      	movs	r1, #0
 80033b0:	f24d 400e 	movw	r0, #54286	; 0xd40e
 80033b4:	f7fd fd00 	bl	8000db8 <LCD_WriteReg>
 80033b8:	21e5      	movs	r1, #229	; 0xe5
 80033ba:	f24d 400f 	movw	r0, #54287	; 0xd40f
 80033be:	f7fd fcfb 	bl	8000db8 <LCD_WriteReg>
 80033c2:	2101      	movs	r1, #1
 80033c4:	f24d 4010 	movw	r0, #54288	; 0xd410
 80033c8:	f7fd fcf6 	bl	8000db8 <LCD_WriteReg>
 80033cc:	2113      	movs	r1, #19
 80033ce:	f24d 4011 	movw	r0, #54289	; 0xd411
 80033d2:	f7fd fcf1 	bl	8000db8 <LCD_WriteReg>
 80033d6:	2101      	movs	r1, #1
 80033d8:	f24d 4012 	movw	r0, #54290	; 0xd412
 80033dc:	f7fd fcec 	bl	8000db8 <LCD_WriteReg>
 80033e0:	2154      	movs	r1, #84	; 0x54
 80033e2:	f24d 4013 	movw	r0, #54291	; 0xd413
 80033e6:	f7fd fce7 	bl	8000db8 <LCD_WriteReg>
 80033ea:	2101      	movs	r1, #1
 80033ec:	f24d 4014 	movw	r0, #54292	; 0xd414
 80033f0:	f7fd fce2 	bl	8000db8 <LCD_WriteReg>
 80033f4:	2182      	movs	r1, #130	; 0x82
 80033f6:	f24d 4015 	movw	r0, #54293	; 0xd415
 80033fa:	f7fd fcdd 	bl	8000db8 <LCD_WriteReg>
 80033fe:	2101      	movs	r1, #1
 8003400:	f24d 4016 	movw	r0, #54294	; 0xd416
 8003404:	f7fd fcd8 	bl	8000db8 <LCD_WriteReg>
 8003408:	21ca      	movs	r1, #202	; 0xca
 800340a:	f24d 4017 	movw	r0, #54295	; 0xd417
 800340e:	f7fd fcd3 	bl	8000db8 <LCD_WriteReg>
 8003412:	2102      	movs	r1, #2
 8003414:	f24d 4018 	movw	r0, #54296	; 0xd418
 8003418:	f7fd fcce 	bl	8000db8 <LCD_WriteReg>
 800341c:	2100      	movs	r1, #0
 800341e:	f24d 4019 	movw	r0, #54297	; 0xd419
 8003422:	f7fd fcc9 	bl	8000db8 <LCD_WriteReg>
 8003426:	2102      	movs	r1, #2
 8003428:	f24d 401a 	movw	r0, #54298	; 0xd41a
 800342c:	f7fd fcc4 	bl	8000db8 <LCD_WriteReg>
 8003430:	2101      	movs	r1, #1
 8003432:	f24d 401b 	movw	r0, #54299	; 0xd41b
 8003436:	f7fd fcbf 	bl	8000db8 <LCD_WriteReg>
 800343a:	2102      	movs	r1, #2
 800343c:	f24d 401c 	movw	r0, #54300	; 0xd41c
 8003440:	f7fd fcba 	bl	8000db8 <LCD_WriteReg>
 8003444:	2134      	movs	r1, #52	; 0x34
 8003446:	f24d 401d 	movw	r0, #54301	; 0xd41d
 800344a:	f7fd fcb5 	bl	8000db8 <LCD_WriteReg>
 800344e:	2102      	movs	r1, #2
 8003450:	f24d 401e 	movw	r0, #54302	; 0xd41e
 8003454:	f7fd fcb0 	bl	8000db8 <LCD_WriteReg>
 8003458:	2167      	movs	r1, #103	; 0x67
 800345a:	f24d 401f 	movw	r0, #54303	; 0xd41f
 800345e:	f7fd fcab 	bl	8000db8 <LCD_WriteReg>
 8003462:	2102      	movs	r1, #2
 8003464:	f24d 4020 	movw	r0, #54304	; 0xd420
 8003468:	f7fd fca6 	bl	8000db8 <LCD_WriteReg>
 800346c:	2184      	movs	r1, #132	; 0x84
 800346e:	f24d 4021 	movw	r0, #54305	; 0xd421
 8003472:	f7fd fca1 	bl	8000db8 <LCD_WriteReg>
 8003476:	2102      	movs	r1, #2
 8003478:	f24d 4022 	movw	r0, #54306	; 0xd422
 800347c:	f7fd fc9c 	bl	8000db8 <LCD_WriteReg>
 8003480:	21a4      	movs	r1, #164	; 0xa4
 8003482:	f24d 4023 	movw	r0, #54307	; 0xd423
 8003486:	f7fd fc97 	bl	8000db8 <LCD_WriteReg>
 800348a:	2102      	movs	r1, #2
 800348c:	f24d 4024 	movw	r0, #54308	; 0xd424
 8003490:	f7fd fc92 	bl	8000db8 <LCD_WriteReg>
 8003494:	21b7      	movs	r1, #183	; 0xb7
 8003496:	f24d 4025 	movw	r0, #54309	; 0xd425
 800349a:	f7fd fc8d 	bl	8000db8 <LCD_WriteReg>
 800349e:	2102      	movs	r1, #2
 80034a0:	f24d 4026 	movw	r0, #54310	; 0xd426
 80034a4:	f7fd fc88 	bl	8000db8 <LCD_WriteReg>
 80034a8:	21cf      	movs	r1, #207	; 0xcf
 80034aa:	f24d 4027 	movw	r0, #54311	; 0xd427
 80034ae:	f7fd fc83 	bl	8000db8 <LCD_WriteReg>
 80034b2:	2102      	movs	r1, #2
 80034b4:	f24d 4028 	movw	r0, #54312	; 0xd428
 80034b8:	f7fd fc7e 	bl	8000db8 <LCD_WriteReg>
 80034bc:	21de      	movs	r1, #222	; 0xde
 80034be:	f24d 4029 	movw	r0, #54313	; 0xd429
 80034c2:	f7fd fc79 	bl	8000db8 <LCD_WriteReg>
 80034c6:	2102      	movs	r1, #2
 80034c8:	f24d 402a 	movw	r0, #54314	; 0xd42a
 80034cc:	f7fd fc74 	bl	8000db8 <LCD_WriteReg>
 80034d0:	21f2      	movs	r1, #242	; 0xf2
 80034d2:	f24d 402b 	movw	r0, #54315	; 0xd42b
 80034d6:	f7fd fc6f 	bl	8000db8 <LCD_WriteReg>
 80034da:	2102      	movs	r1, #2
 80034dc:	f24d 402c 	movw	r0, #54316	; 0xd42c
 80034e0:	f7fd fc6a 	bl	8000db8 <LCD_WriteReg>
 80034e4:	21fe      	movs	r1, #254	; 0xfe
 80034e6:	f24d 402d 	movw	r0, #54317	; 0xd42d
 80034ea:	f7fd fc65 	bl	8000db8 <LCD_WriteReg>
 80034ee:	2103      	movs	r1, #3
 80034f0:	f24d 402e 	movw	r0, #54318	; 0xd42e
 80034f4:	f7fd fc60 	bl	8000db8 <LCD_WriteReg>
 80034f8:	2110      	movs	r1, #16
 80034fa:	f24d 402f 	movw	r0, #54319	; 0xd42f
 80034fe:	f7fd fc5b 	bl	8000db8 <LCD_WriteReg>
 8003502:	2103      	movs	r1, #3
 8003504:	f24d 4030 	movw	r0, #54320	; 0xd430
 8003508:	f7fd fc56 	bl	8000db8 <LCD_WriteReg>
 800350c:	2133      	movs	r1, #51	; 0x33
 800350e:	f24d 4031 	movw	r0, #54321	; 0xd431
 8003512:	f7fd fc51 	bl	8000db8 <LCD_WriteReg>
 8003516:	2103      	movs	r1, #3
 8003518:	f24d 4032 	movw	r0, #54322	; 0xd432
 800351c:	f7fd fc4c 	bl	8000db8 <LCD_WriteReg>
 8003520:	216d      	movs	r1, #109	; 0x6d
 8003522:	f24d 4033 	movw	r0, #54323	; 0xd433
 8003526:	f7fd fc47 	bl	8000db8 <LCD_WriteReg>
 800352a:	2100      	movs	r1, #0
 800352c:	f44f 4055 	mov.w	r0, #54528	; 0xd500
 8003530:	f7fd fc42 	bl	8000db8 <LCD_WriteReg>
 8003534:	2133      	movs	r1, #51	; 0x33
 8003536:	f24d 5001 	movw	r0, #54529	; 0xd501
 800353a:	f7fd fc3d 	bl	8000db8 <LCD_WriteReg>
 800353e:	2100      	movs	r1, #0
 8003540:	f24d 5002 	movw	r0, #54530	; 0xd502
 8003544:	f7fd fc38 	bl	8000db8 <LCD_WriteReg>
 8003548:	2134      	movs	r1, #52	; 0x34
 800354a:	f24d 5003 	movw	r0, #54531	; 0xd503
 800354e:	f7fd fc33 	bl	8000db8 <LCD_WriteReg>
 8003552:	2100      	movs	r1, #0
 8003554:	f24d 5004 	movw	r0, #54532	; 0xd504
 8003558:	f7fd fc2e 	bl	8000db8 <LCD_WriteReg>
 800355c:	213a      	movs	r1, #58	; 0x3a
 800355e:	f24d 5005 	movw	r0, #54533	; 0xd505
 8003562:	f7fd fc29 	bl	8000db8 <LCD_WriteReg>
 8003566:	2100      	movs	r1, #0
 8003568:	f24d 5006 	movw	r0, #54534	; 0xd506
 800356c:	f7fd fc24 	bl	8000db8 <LCD_WriteReg>
 8003570:	214a      	movs	r1, #74	; 0x4a
 8003572:	f24d 5007 	movw	r0, #54535	; 0xd507
 8003576:	f7fd fc1f 	bl	8000db8 <LCD_WriteReg>
 800357a:	2100      	movs	r1, #0
 800357c:	f24d 5008 	movw	r0, #54536	; 0xd508
 8003580:	f7fd fc1a 	bl	8000db8 <LCD_WriteReg>
 8003584:	215c      	movs	r1, #92	; 0x5c
 8003586:	f24d 5009 	movw	r0, #54537	; 0xd509
 800358a:	f7fd fc15 	bl	8000db8 <LCD_WriteReg>
 800358e:	2100      	movs	r1, #0
 8003590:	f24d 500a 	movw	r0, #54538	; 0xd50a
 8003594:	f7fd fc10 	bl	8000db8 <LCD_WriteReg>
 8003598:	2181      	movs	r1, #129	; 0x81
 800359a:	f24d 500b 	movw	r0, #54539	; 0xd50b
 800359e:	f7fd fc0b 	bl	8000db8 <LCD_WriteReg>
 80035a2:	2100      	movs	r1, #0
 80035a4:	f24d 500c 	movw	r0, #54540	; 0xd50c
 80035a8:	f7fd fc06 	bl	8000db8 <LCD_WriteReg>
 80035ac:	21a6      	movs	r1, #166	; 0xa6
 80035ae:	f24d 500d 	movw	r0, #54541	; 0xd50d
 80035b2:	f7fd fc01 	bl	8000db8 <LCD_WriteReg>
 80035b6:	2100      	movs	r1, #0
 80035b8:	f24d 500e 	movw	r0, #54542	; 0xd50e
 80035bc:	f7fd fbfc 	bl	8000db8 <LCD_WriteReg>
 80035c0:	21e5      	movs	r1, #229	; 0xe5
 80035c2:	f24d 500f 	movw	r0, #54543	; 0xd50f
 80035c6:	f7fd fbf7 	bl	8000db8 <LCD_WriteReg>
 80035ca:	2101      	movs	r1, #1
 80035cc:	f24d 5010 	movw	r0, #54544	; 0xd510
 80035d0:	f7fd fbf2 	bl	8000db8 <LCD_WriteReg>
 80035d4:	2113      	movs	r1, #19
 80035d6:	f24d 5011 	movw	r0, #54545	; 0xd511
 80035da:	f7fd fbed 	bl	8000db8 <LCD_WriteReg>
 80035de:	2101      	movs	r1, #1
 80035e0:	f24d 5012 	movw	r0, #54546	; 0xd512
 80035e4:	f7fd fbe8 	bl	8000db8 <LCD_WriteReg>
 80035e8:	2154      	movs	r1, #84	; 0x54
 80035ea:	f24d 5013 	movw	r0, #54547	; 0xd513
 80035ee:	f7fd fbe3 	bl	8000db8 <LCD_WriteReg>
 80035f2:	2101      	movs	r1, #1
 80035f4:	f24d 5014 	movw	r0, #54548	; 0xd514
 80035f8:	f7fd fbde 	bl	8000db8 <LCD_WriteReg>
 80035fc:	2182      	movs	r1, #130	; 0x82
 80035fe:	f24d 5015 	movw	r0, #54549	; 0xd515
 8003602:	f7fd fbd9 	bl	8000db8 <LCD_WriteReg>
 8003606:	2101      	movs	r1, #1
 8003608:	f24d 5016 	movw	r0, #54550	; 0xd516
 800360c:	f7fd fbd4 	bl	8000db8 <LCD_WriteReg>
 8003610:	21ca      	movs	r1, #202	; 0xca
 8003612:	f24d 5017 	movw	r0, #54551	; 0xd517
 8003616:	f7fd fbcf 	bl	8000db8 <LCD_WriteReg>
 800361a:	2102      	movs	r1, #2
 800361c:	f24d 5018 	movw	r0, #54552	; 0xd518
 8003620:	f7fd fbca 	bl	8000db8 <LCD_WriteReg>
 8003624:	2100      	movs	r1, #0
 8003626:	f24d 5019 	movw	r0, #54553	; 0xd519
 800362a:	f7fd fbc5 	bl	8000db8 <LCD_WriteReg>
 800362e:	2102      	movs	r1, #2
 8003630:	f24d 501a 	movw	r0, #54554	; 0xd51a
 8003634:	f7fd fbc0 	bl	8000db8 <LCD_WriteReg>
 8003638:	2101      	movs	r1, #1
 800363a:	f24d 501b 	movw	r0, #54555	; 0xd51b
 800363e:	f7fd fbbb 	bl	8000db8 <LCD_WriteReg>
 8003642:	2102      	movs	r1, #2
 8003644:	f24d 501c 	movw	r0, #54556	; 0xd51c
 8003648:	f7fd fbb6 	bl	8000db8 <LCD_WriteReg>
 800364c:	2134      	movs	r1, #52	; 0x34
 800364e:	f24d 501d 	movw	r0, #54557	; 0xd51d
 8003652:	f7fd fbb1 	bl	8000db8 <LCD_WriteReg>
 8003656:	2102      	movs	r1, #2
 8003658:	f24d 501e 	movw	r0, #54558	; 0xd51e
 800365c:	f7fd fbac 	bl	8000db8 <LCD_WriteReg>
 8003660:	2167      	movs	r1, #103	; 0x67
 8003662:	f24d 501f 	movw	r0, #54559	; 0xd51f
 8003666:	f7fd fba7 	bl	8000db8 <LCD_WriteReg>
 800366a:	2102      	movs	r1, #2
 800366c:	f24d 5020 	movw	r0, #54560	; 0xd520
 8003670:	f7fd fba2 	bl	8000db8 <LCD_WriteReg>
 8003674:	2184      	movs	r1, #132	; 0x84
 8003676:	f24d 5021 	movw	r0, #54561	; 0xd521
 800367a:	f7fd fb9d 	bl	8000db8 <LCD_WriteReg>
 800367e:	2102      	movs	r1, #2
 8003680:	f24d 5022 	movw	r0, #54562	; 0xd522
 8003684:	f7fd fb98 	bl	8000db8 <LCD_WriteReg>
 8003688:	21a4      	movs	r1, #164	; 0xa4
 800368a:	f24d 5023 	movw	r0, #54563	; 0xd523
 800368e:	f7fd fb93 	bl	8000db8 <LCD_WriteReg>
 8003692:	2102      	movs	r1, #2
 8003694:	f24d 5024 	movw	r0, #54564	; 0xd524
 8003698:	f7fd fb8e 	bl	8000db8 <LCD_WriteReg>
 800369c:	21b7      	movs	r1, #183	; 0xb7
 800369e:	f24d 5025 	movw	r0, #54565	; 0xd525
 80036a2:	f7fd fb89 	bl	8000db8 <LCD_WriteReg>
 80036a6:	2102      	movs	r1, #2
 80036a8:	f24d 5026 	movw	r0, #54566	; 0xd526
 80036ac:	f7fd fb84 	bl	8000db8 <LCD_WriteReg>
 80036b0:	21cf      	movs	r1, #207	; 0xcf
 80036b2:	f24d 5027 	movw	r0, #54567	; 0xd527
 80036b6:	f7fd fb7f 	bl	8000db8 <LCD_WriteReg>
 80036ba:	2102      	movs	r1, #2
 80036bc:	f24d 5028 	movw	r0, #54568	; 0xd528
 80036c0:	f7fd fb7a 	bl	8000db8 <LCD_WriteReg>
 80036c4:	21de      	movs	r1, #222	; 0xde
 80036c6:	f24d 5029 	movw	r0, #54569	; 0xd529
 80036ca:	f7fd fb75 	bl	8000db8 <LCD_WriteReg>
 80036ce:	2102      	movs	r1, #2
 80036d0:	f24d 502a 	movw	r0, #54570	; 0xd52a
 80036d4:	f7fd fb70 	bl	8000db8 <LCD_WriteReg>
 80036d8:	21f2      	movs	r1, #242	; 0xf2
 80036da:	f24d 502b 	movw	r0, #54571	; 0xd52b
 80036de:	f7fd fb6b 	bl	8000db8 <LCD_WriteReg>
 80036e2:	2102      	movs	r1, #2
 80036e4:	f24d 502c 	movw	r0, #54572	; 0xd52c
 80036e8:	f7fd fb66 	bl	8000db8 <LCD_WriteReg>
 80036ec:	21fe      	movs	r1, #254	; 0xfe
 80036ee:	f24d 502d 	movw	r0, #54573	; 0xd52d
 80036f2:	f7fd fb61 	bl	8000db8 <LCD_WriteReg>
 80036f6:	2103      	movs	r1, #3
 80036f8:	f24d 502e 	movw	r0, #54574	; 0xd52e
 80036fc:	f7fd fb5c 	bl	8000db8 <LCD_WriteReg>
 8003700:	2110      	movs	r1, #16
 8003702:	f24d 502f 	movw	r0, #54575	; 0xd52f
 8003706:	f7fd fb57 	bl	8000db8 <LCD_WriteReg>
 800370a:	2103      	movs	r1, #3
 800370c:	f24d 5030 	movw	r0, #54576	; 0xd530
 8003710:	f7fd fb52 	bl	8000db8 <LCD_WriteReg>
 8003714:	2133      	movs	r1, #51	; 0x33
 8003716:	f24d 5031 	movw	r0, #54577	; 0xd531
 800371a:	f7fd fb4d 	bl	8000db8 <LCD_WriteReg>
 800371e:	2103      	movs	r1, #3
 8003720:	f24d 5032 	movw	r0, #54578	; 0xd532
 8003724:	f7fd fb48 	bl	8000db8 <LCD_WriteReg>
 8003728:	216d      	movs	r1, #109	; 0x6d
 800372a:	f24d 5033 	movw	r0, #54579	; 0xd533
 800372e:	f7fd fb43 	bl	8000db8 <LCD_WriteReg>
 8003732:	2100      	movs	r1, #0
 8003734:	f44f 4056 	mov.w	r0, #54784	; 0xd600
 8003738:	f7fd fb3e 	bl	8000db8 <LCD_WriteReg>
 800373c:	2133      	movs	r1, #51	; 0x33
 800373e:	f24d 6001 	movw	r0, #54785	; 0xd601
 8003742:	f7fd fb39 	bl	8000db8 <LCD_WriteReg>
 8003746:	2100      	movs	r1, #0
 8003748:	f24d 6002 	movw	r0, #54786	; 0xd602
 800374c:	f7fd fb34 	bl	8000db8 <LCD_WriteReg>
 8003750:	2134      	movs	r1, #52	; 0x34
 8003752:	f24d 6003 	movw	r0, #54787	; 0xd603
 8003756:	f7fd fb2f 	bl	8000db8 <LCD_WriteReg>
 800375a:	2100      	movs	r1, #0
 800375c:	f24d 6004 	movw	r0, #54788	; 0xd604
 8003760:	f7fd fb2a 	bl	8000db8 <LCD_WriteReg>
 8003764:	213a      	movs	r1, #58	; 0x3a
 8003766:	f24d 6005 	movw	r0, #54789	; 0xd605
 800376a:	f7fd fb25 	bl	8000db8 <LCD_WriteReg>
 800376e:	2100      	movs	r1, #0
 8003770:	f24d 6006 	movw	r0, #54790	; 0xd606
 8003774:	f7fd fb20 	bl	8000db8 <LCD_WriteReg>
 8003778:	214a      	movs	r1, #74	; 0x4a
 800377a:	f24d 6007 	movw	r0, #54791	; 0xd607
 800377e:	f7fd fb1b 	bl	8000db8 <LCD_WriteReg>
 8003782:	2100      	movs	r1, #0
 8003784:	f24d 6008 	movw	r0, #54792	; 0xd608
 8003788:	f7fd fb16 	bl	8000db8 <LCD_WriteReg>
 800378c:	215c      	movs	r1, #92	; 0x5c
 800378e:	f24d 6009 	movw	r0, #54793	; 0xd609
 8003792:	f7fd fb11 	bl	8000db8 <LCD_WriteReg>
 8003796:	2100      	movs	r1, #0
 8003798:	f24d 600a 	movw	r0, #54794	; 0xd60a
 800379c:	f7fd fb0c 	bl	8000db8 <LCD_WriteReg>
 80037a0:	2181      	movs	r1, #129	; 0x81
 80037a2:	f24d 600b 	movw	r0, #54795	; 0xd60b
 80037a6:	f7fd fb07 	bl	8000db8 <LCD_WriteReg>
 80037aa:	2100      	movs	r1, #0
 80037ac:	f24d 600c 	movw	r0, #54796	; 0xd60c
 80037b0:	f7fd fb02 	bl	8000db8 <LCD_WriteReg>
 80037b4:	21a6      	movs	r1, #166	; 0xa6
 80037b6:	f24d 600d 	movw	r0, #54797	; 0xd60d
 80037ba:	f7fd fafd 	bl	8000db8 <LCD_WriteReg>
 80037be:	2100      	movs	r1, #0
 80037c0:	f24d 600e 	movw	r0, #54798	; 0xd60e
 80037c4:	f7fd faf8 	bl	8000db8 <LCD_WriteReg>
 80037c8:	21e5      	movs	r1, #229	; 0xe5
 80037ca:	f24d 600f 	movw	r0, #54799	; 0xd60f
 80037ce:	f7fd faf3 	bl	8000db8 <LCD_WriteReg>
 80037d2:	2101      	movs	r1, #1
 80037d4:	f24d 6010 	movw	r0, #54800	; 0xd610
 80037d8:	f7fd faee 	bl	8000db8 <LCD_WriteReg>
 80037dc:	2113      	movs	r1, #19
 80037de:	f24d 6011 	movw	r0, #54801	; 0xd611
 80037e2:	f7fd fae9 	bl	8000db8 <LCD_WriteReg>
 80037e6:	2101      	movs	r1, #1
 80037e8:	f24d 6012 	movw	r0, #54802	; 0xd612
 80037ec:	f7fd fae4 	bl	8000db8 <LCD_WriteReg>
 80037f0:	2154      	movs	r1, #84	; 0x54
 80037f2:	f24d 6013 	movw	r0, #54803	; 0xd613
 80037f6:	f7fd fadf 	bl	8000db8 <LCD_WriteReg>
 80037fa:	2101      	movs	r1, #1
 80037fc:	f24d 6014 	movw	r0, #54804	; 0xd614
 8003800:	f7fd fada 	bl	8000db8 <LCD_WriteReg>
 8003804:	2182      	movs	r1, #130	; 0x82
 8003806:	f24d 6015 	movw	r0, #54805	; 0xd615
 800380a:	f7fd fad5 	bl	8000db8 <LCD_WriteReg>
 800380e:	2101      	movs	r1, #1
 8003810:	f24d 6016 	movw	r0, #54806	; 0xd616
 8003814:	f7fd fad0 	bl	8000db8 <LCD_WriteReg>
 8003818:	21ca      	movs	r1, #202	; 0xca
 800381a:	f24d 6017 	movw	r0, #54807	; 0xd617
 800381e:	f7fd facb 	bl	8000db8 <LCD_WriteReg>
 8003822:	2102      	movs	r1, #2
 8003824:	f24d 6018 	movw	r0, #54808	; 0xd618
 8003828:	f7fd fac6 	bl	8000db8 <LCD_WriteReg>
 800382c:	2100      	movs	r1, #0
 800382e:	f24d 6019 	movw	r0, #54809	; 0xd619
 8003832:	f7fd fac1 	bl	8000db8 <LCD_WriteReg>
 8003836:	2102      	movs	r1, #2
 8003838:	f24d 601a 	movw	r0, #54810	; 0xd61a
 800383c:	f7fd fabc 	bl	8000db8 <LCD_WriteReg>
 8003840:	2101      	movs	r1, #1
 8003842:	f24d 601b 	movw	r0, #54811	; 0xd61b
 8003846:	f7fd fab7 	bl	8000db8 <LCD_WriteReg>
 800384a:	2102      	movs	r1, #2
 800384c:	f24d 601c 	movw	r0, #54812	; 0xd61c
 8003850:	f7fd fab2 	bl	8000db8 <LCD_WriteReg>
 8003854:	2134      	movs	r1, #52	; 0x34
 8003856:	f24d 601d 	movw	r0, #54813	; 0xd61d
 800385a:	f7fd faad 	bl	8000db8 <LCD_WriteReg>
 800385e:	2102      	movs	r1, #2
 8003860:	f24d 601e 	movw	r0, #54814	; 0xd61e
 8003864:	f7fd faa8 	bl	8000db8 <LCD_WriteReg>
 8003868:	2167      	movs	r1, #103	; 0x67
 800386a:	f24d 601f 	movw	r0, #54815	; 0xd61f
 800386e:	f7fd faa3 	bl	8000db8 <LCD_WriteReg>
 8003872:	2102      	movs	r1, #2
 8003874:	f24d 6020 	movw	r0, #54816	; 0xd620
 8003878:	f7fd fa9e 	bl	8000db8 <LCD_WriteReg>
 800387c:	2184      	movs	r1, #132	; 0x84
 800387e:	f24d 6021 	movw	r0, #54817	; 0xd621
 8003882:	f7fd fa99 	bl	8000db8 <LCD_WriteReg>
 8003886:	2102      	movs	r1, #2
 8003888:	f24d 6022 	movw	r0, #54818	; 0xd622
 800388c:	f7fd fa94 	bl	8000db8 <LCD_WriteReg>
 8003890:	21a4      	movs	r1, #164	; 0xa4
 8003892:	f24d 6023 	movw	r0, #54819	; 0xd623
 8003896:	f7fd fa8f 	bl	8000db8 <LCD_WriteReg>
 800389a:	2102      	movs	r1, #2
 800389c:	f24d 6024 	movw	r0, #54820	; 0xd624
 80038a0:	f7fd fa8a 	bl	8000db8 <LCD_WriteReg>
 80038a4:	21b7      	movs	r1, #183	; 0xb7
 80038a6:	f24d 6025 	movw	r0, #54821	; 0xd625
 80038aa:	f7fd fa85 	bl	8000db8 <LCD_WriteReg>
 80038ae:	2102      	movs	r1, #2
 80038b0:	f24d 6026 	movw	r0, #54822	; 0xd626
 80038b4:	f7fd fa80 	bl	8000db8 <LCD_WriteReg>
 80038b8:	21cf      	movs	r1, #207	; 0xcf
 80038ba:	f24d 6027 	movw	r0, #54823	; 0xd627
 80038be:	f7fd fa7b 	bl	8000db8 <LCD_WriteReg>
 80038c2:	2102      	movs	r1, #2
 80038c4:	f24d 6028 	movw	r0, #54824	; 0xd628
 80038c8:	f7fd fa76 	bl	8000db8 <LCD_WriteReg>
 80038cc:	21de      	movs	r1, #222	; 0xde
 80038ce:	f24d 6029 	movw	r0, #54825	; 0xd629
 80038d2:	f7fd fa71 	bl	8000db8 <LCD_WriteReg>
 80038d6:	2102      	movs	r1, #2
 80038d8:	f24d 602a 	movw	r0, #54826	; 0xd62a
 80038dc:	f7fd fa6c 	bl	8000db8 <LCD_WriteReg>
 80038e0:	21f2      	movs	r1, #242	; 0xf2
 80038e2:	f24d 602b 	movw	r0, #54827	; 0xd62b
 80038e6:	f7fd fa67 	bl	8000db8 <LCD_WriteReg>
 80038ea:	2102      	movs	r1, #2
 80038ec:	f24d 602c 	movw	r0, #54828	; 0xd62c
 80038f0:	f7fd fa62 	bl	8000db8 <LCD_WriteReg>
 80038f4:	21fe      	movs	r1, #254	; 0xfe
 80038f6:	f24d 602d 	movw	r0, #54829	; 0xd62d
 80038fa:	f7fd fa5d 	bl	8000db8 <LCD_WriteReg>
 80038fe:	2103      	movs	r1, #3
 8003900:	f24d 602e 	movw	r0, #54830	; 0xd62e
 8003904:	f7fd fa58 	bl	8000db8 <LCD_WriteReg>
 8003908:	2110      	movs	r1, #16
 800390a:	f24d 602f 	movw	r0, #54831	; 0xd62f
 800390e:	f7fd fa53 	bl	8000db8 <LCD_WriteReg>
 8003912:	2103      	movs	r1, #3
 8003914:	f24d 6030 	movw	r0, #54832	; 0xd630
 8003918:	f7fd fa4e 	bl	8000db8 <LCD_WriteReg>
 800391c:	2133      	movs	r1, #51	; 0x33
 800391e:	f24d 6031 	movw	r0, #54833	; 0xd631
 8003922:	f7fd fa49 	bl	8000db8 <LCD_WriteReg>
 8003926:	2103      	movs	r1, #3
 8003928:	f24d 6032 	movw	r0, #54834	; 0xd632
 800392c:	f7fd fa44 	bl	8000db8 <LCD_WriteReg>
 8003930:	216d      	movs	r1, #109	; 0x6d
 8003932:	f24d 6033 	movw	r0, #54835	; 0xd633
 8003936:	f7fd fa3f 	bl	8000db8 <LCD_WriteReg>
 800393a:	2155      	movs	r1, #85	; 0x55
 800393c:	f44f 4070 	mov.w	r0, #61440	; 0xf000
 8003940:	f7fd fa3a 	bl	8000db8 <LCD_WriteReg>
 8003944:	21aa      	movs	r1, #170	; 0xaa
 8003946:	f24f 0001 	movw	r0, #61441	; 0xf001
 800394a:	f7fd fa35 	bl	8000db8 <LCD_WriteReg>
 800394e:	2152      	movs	r1, #82	; 0x52
 8003950:	f24f 0002 	movw	r0, #61442	; 0xf002
 8003954:	f7fd fa30 	bl	8000db8 <LCD_WriteReg>
 8003958:	2108      	movs	r1, #8
 800395a:	f24f 0003 	movw	r0, #61443	; 0xf003
 800395e:	f7fd fa2b 	bl	8000db8 <LCD_WriteReg>
 8003962:	2100      	movs	r1, #0
 8003964:	f24f 0004 	movw	r0, #61444	; 0xf004
 8003968:	f7fd fa26 	bl	8000db8 <LCD_WriteReg>
 800396c:	21cc      	movs	r1, #204	; 0xcc
 800396e:	f44f 4031 	mov.w	r0, #45312	; 0xb100
 8003972:	f7fd fa21 	bl	8000db8 <LCD_WriteReg>
 8003976:	2100      	movs	r1, #0
 8003978:	f24b 1001 	movw	r0, #45313	; 0xb101
 800397c:	f7fd fa1c 	bl	8000db8 <LCD_WriteReg>
 8003980:	2105      	movs	r1, #5
 8003982:	f44f 4036 	mov.w	r0, #46592	; 0xb600
 8003986:	f7fd fa17 	bl	8000db8 <LCD_WriteReg>
 800398a:	2170      	movs	r1, #112	; 0x70
 800398c:	f44f 4037 	mov.w	r0, #46848	; 0xb700
 8003990:	f7fd fa12 	bl	8000db8 <LCD_WriteReg>
 8003994:	2170      	movs	r1, #112	; 0x70
 8003996:	f24b 7001 	movw	r0, #46849	; 0xb701
 800399a:	f7fd fa0d 	bl	8000db8 <LCD_WriteReg>
 800399e:	2101      	movs	r1, #1
 80039a0:	f44f 4038 	mov.w	r0, #47104	; 0xb800
 80039a4:	f7fd fa08 	bl	8000db8 <LCD_WriteReg>
 80039a8:	2103      	movs	r1, #3
 80039aa:	f64b 0001 	movw	r0, #47105	; 0xb801
 80039ae:	f7fd fa03 	bl	8000db8 <LCD_WriteReg>
 80039b2:	2103      	movs	r1, #3
 80039b4:	f64b 0002 	movw	r0, #47106	; 0xb802
 80039b8:	f7fd f9fe 	bl	8000db8 <LCD_WriteReg>
 80039bc:	2103      	movs	r1, #3
 80039be:	f64b 0003 	movw	r0, #47107	; 0xb803
 80039c2:	f7fd f9f9 	bl	8000db8 <LCD_WriteReg>
 80039c6:	2102      	movs	r1, #2
 80039c8:	f44f 403c 	mov.w	r0, #48128	; 0xbc00
 80039cc:	f7fd f9f4 	bl	8000db8 <LCD_WriteReg>
 80039d0:	2100      	movs	r1, #0
 80039d2:	f64b 4001 	movw	r0, #48129	; 0xbc01
 80039d6:	f7fd f9ef 	bl	8000db8 <LCD_WriteReg>
 80039da:	2100      	movs	r1, #0
 80039dc:	f64b 4002 	movw	r0, #48130	; 0xbc02
 80039e0:	f7fd f9ea 	bl	8000db8 <LCD_WriteReg>
 80039e4:	21d0      	movs	r1, #208	; 0xd0
 80039e6:	f44f 4049 	mov.w	r0, #51456	; 0xc900
 80039ea:	f7fd f9e5 	bl	8000db8 <LCD_WriteReg>
 80039ee:	2102      	movs	r1, #2
 80039f0:	f64c 1001 	movw	r0, #51457	; 0xc901
 80039f4:	f7fd f9e0 	bl	8000db8 <LCD_WriteReg>
 80039f8:	2150      	movs	r1, #80	; 0x50
 80039fa:	f64c 1002 	movw	r0, #51458	; 0xc902
 80039fe:	f7fd f9db 	bl	8000db8 <LCD_WriteReg>
 8003a02:	2150      	movs	r1, #80	; 0x50
 8003a04:	f64c 1003 	movw	r0, #51459	; 0xc903
 8003a08:	f7fd f9d6 	bl	8000db8 <LCD_WriteReg>
 8003a0c:	2150      	movs	r1, #80	; 0x50
 8003a0e:	f64c 1004 	movw	r0, #51460	; 0xc904
 8003a12:	f7fd f9d1 	bl	8000db8 <LCD_WriteReg>
 8003a16:	2100      	movs	r1, #0
 8003a18:	f44f 5054 	mov.w	r0, #13568	; 0x3500
 8003a1c:	f7fd f9cc 	bl	8000db8 <LCD_WriteReg>
 8003a20:	2155      	movs	r1, #85	; 0x55
 8003a22:	f44f 5068 	mov.w	r0, #14848	; 0x3a00
 8003a26:	f7fd f9c7 	bl	8000db8 <LCD_WriteReg>
 8003a2a:	f44f 5088 	mov.w	r0, #4352	; 0x1100
 8003a2e:	f7fd f98b 	bl	8000d48 <LCD_WR_REG>
 8003a32:	2078      	movs	r0, #120	; 0x78
 8003a34:	f7fd f93c 	bl	8000cb0 <delay_us>
 8003a38:	f44f 5024 	mov.w	r0, #10496	; 0x2900
 8003a3c:	f7fd f984 	bl	8000d48 <LCD_WR_REG>
 8003a40:	e0be      	b.n	8003bc0 <LCD_Init+0x25c0>
 8003a42:	4b66      	ldr	r3, [pc, #408]	; (8003bdc <LCD_Init+0x25dc>)
 8003a44:	889b      	ldrh	r3, [r3, #4]
 8003a46:	f641 1263 	movw	r2, #6499	; 0x1963
 8003a4a:	4293      	cmp	r3, r2
 8003a4c:	f040 80b8 	bne.w	8003bc0 <LCD_Init+0x25c0>
 8003a50:	20e2      	movs	r0, #226	; 0xe2
 8003a52:	f7fd f979 	bl	8000d48 <LCD_WR_REG>
 8003a56:	201d      	movs	r0, #29
 8003a58:	f7fd f98a 	bl	8000d70 <LCD_WR_DATA>
 8003a5c:	2002      	movs	r0, #2
 8003a5e:	f7fd f987 	bl	8000d70 <LCD_WR_DATA>
 8003a62:	2004      	movs	r0, #4
 8003a64:	f7fd f984 	bl	8000d70 <LCD_WR_DATA>
 8003a68:	2064      	movs	r0, #100	; 0x64
 8003a6a:	f7fd f921 	bl	8000cb0 <delay_us>
 8003a6e:	20e0      	movs	r0, #224	; 0xe0
 8003a70:	f7fd f96a 	bl	8000d48 <LCD_WR_REG>
 8003a74:	2001      	movs	r0, #1
 8003a76:	f7fd f97b 	bl	8000d70 <LCD_WR_DATA>
 8003a7a:	200a      	movs	r0, #10
 8003a7c:	f7fd f958 	bl	8000d30 <delay_ms>
 8003a80:	20e0      	movs	r0, #224	; 0xe0
 8003a82:	f7fd f961 	bl	8000d48 <LCD_WR_REG>
 8003a86:	2003      	movs	r0, #3
 8003a88:	f7fd f972 	bl	8000d70 <LCD_WR_DATA>
 8003a8c:	200c      	movs	r0, #12
 8003a8e:	f7fd f94f 	bl	8000d30 <delay_ms>
 8003a92:	2001      	movs	r0, #1
 8003a94:	f7fd f958 	bl	8000d48 <LCD_WR_REG>
 8003a98:	200a      	movs	r0, #10
 8003a9a:	f7fd f949 	bl	8000d30 <delay_ms>
 8003a9e:	20e6      	movs	r0, #230	; 0xe6
 8003aa0:	f7fd f952 	bl	8000d48 <LCD_WR_REG>
 8003aa4:	202f      	movs	r0, #47	; 0x2f
 8003aa6:	f7fd f963 	bl	8000d70 <LCD_WR_DATA>
 8003aaa:	20ff      	movs	r0, #255	; 0xff
 8003aac:	f7fd f960 	bl	8000d70 <LCD_WR_DATA>
 8003ab0:	20ff      	movs	r0, #255	; 0xff
 8003ab2:	f7fd f95d 	bl	8000d70 <LCD_WR_DATA>
 8003ab6:	20b0      	movs	r0, #176	; 0xb0
 8003ab8:	f7fd f946 	bl	8000d48 <LCD_WR_REG>
 8003abc:	2020      	movs	r0, #32
 8003abe:	f7fd f957 	bl	8000d70 <LCD_WR_DATA>
 8003ac2:	2000      	movs	r0, #0
 8003ac4:	f7fd f954 	bl	8000d70 <LCD_WR_DATA>
 8003ac8:	2003      	movs	r0, #3
 8003aca:	f7fd f951 	bl	8000d70 <LCD_WR_DATA>
 8003ace:	f240 301f 	movw	r0, #799	; 0x31f
 8003ad2:	f7fd f94d 	bl	8000d70 <LCD_WR_DATA>
 8003ad6:	2001      	movs	r0, #1
 8003ad8:	f7fd f94a 	bl	8000d70 <LCD_WR_DATA>
 8003adc:	f240 10df 	movw	r0, #479	; 0x1df
 8003ae0:	f7fd f946 	bl	8000d70 <LCD_WR_DATA>
 8003ae4:	2000      	movs	r0, #0
 8003ae6:	f7fd f943 	bl	8000d70 <LCD_WR_DATA>
 8003aea:	20b4      	movs	r0, #180	; 0xb4
 8003aec:	f7fd f92c 	bl	8000d48 <LCD_WR_REG>
 8003af0:	2004      	movs	r0, #4
 8003af2:	f7fd f93d 	bl	8000d70 <LCD_WR_DATA>
 8003af6:	f240 401f 	movw	r0, #1055	; 0x41f
 8003afa:	f7fd f939 	bl	8000d70 <LCD_WR_DATA>
 8003afe:	2000      	movs	r0, #0
 8003b00:	f7fd f936 	bl	8000d70 <LCD_WR_DATA>
 8003b04:	202e      	movs	r0, #46	; 0x2e
 8003b06:	f7fd f933 	bl	8000d70 <LCD_WR_DATA>
 8003b0a:	2000      	movs	r0, #0
 8003b0c:	f7fd f930 	bl	8000d70 <LCD_WR_DATA>
 8003b10:	2000      	movs	r0, #0
 8003b12:	f7fd f92d 	bl	8000d70 <LCD_WR_DATA>
 8003b16:	2000      	movs	r0, #0
 8003b18:	f7fd f92a 	bl	8000d70 <LCD_WR_DATA>
 8003b1c:	2000      	movs	r0, #0
 8003b1e:	f7fd f927 	bl	8000d70 <LCD_WR_DATA>
 8003b22:	20b6      	movs	r0, #182	; 0xb6
 8003b24:	f7fd f910 	bl	8000d48 <LCD_WR_REG>
 8003b28:	2002      	movs	r0, #2
 8003b2a:	f7fd f921 	bl	8000d70 <LCD_WR_DATA>
 8003b2e:	f44f 7003 	mov.w	r0, #524	; 0x20c
 8003b32:	f7fd f91d 	bl	8000d70 <LCD_WR_DATA>
 8003b36:	2000      	movs	r0, #0
 8003b38:	f7fd f91a 	bl	8000d70 <LCD_WR_DATA>
 8003b3c:	2017      	movs	r0, #23
 8003b3e:	f7fd f917 	bl	8000d70 <LCD_WR_DATA>
 8003b42:	2015      	movs	r0, #21
 8003b44:	f7fd f914 	bl	8000d70 <LCD_WR_DATA>
 8003b48:	2000      	movs	r0, #0
 8003b4a:	f7fd f911 	bl	8000d70 <LCD_WR_DATA>
 8003b4e:	2000      	movs	r0, #0
 8003b50:	f7fd f90e 	bl	8000d70 <LCD_WR_DATA>
 8003b54:	20f0      	movs	r0, #240	; 0xf0
 8003b56:	f7fd f8f7 	bl	8000d48 <LCD_WR_REG>
 8003b5a:	2003      	movs	r0, #3
 8003b5c:	f7fd f908 	bl	8000d70 <LCD_WR_DATA>
 8003b60:	2029      	movs	r0, #41	; 0x29
 8003b62:	f7fd f8f1 	bl	8000d48 <LCD_WR_REG>
 8003b66:	20d0      	movs	r0, #208	; 0xd0
 8003b68:	f7fd f8ee 	bl	8000d48 <LCD_WR_REG>
 8003b6c:	2000      	movs	r0, #0
 8003b6e:	f7fd f8ff 	bl	8000d70 <LCD_WR_DATA>
 8003b72:	20be      	movs	r0, #190	; 0xbe
 8003b74:	f7fd f8e8 	bl	8000d48 <LCD_WR_REG>
 8003b78:	2005      	movs	r0, #5
 8003b7a:	f7fd f8f9 	bl	8000d70 <LCD_WR_DATA>
 8003b7e:	20fe      	movs	r0, #254	; 0xfe
 8003b80:	f7fd f8f6 	bl	8000d70 <LCD_WR_DATA>
 8003b84:	2001      	movs	r0, #1
 8003b86:	f7fd f8f3 	bl	8000d70 <LCD_WR_DATA>
 8003b8a:	2000      	movs	r0, #0
 8003b8c:	f7fd f8f0 	bl	8000d70 <LCD_WR_DATA>
 8003b90:	2000      	movs	r0, #0
 8003b92:	f7fd f8ed 	bl	8000d70 <LCD_WR_DATA>
 8003b96:	2000      	movs	r0, #0
 8003b98:	f7fd f8ea 	bl	8000d70 <LCD_WR_DATA>
 8003b9c:	20b8      	movs	r0, #184	; 0xb8
 8003b9e:	f7fd f8d3 	bl	8000d48 <LCD_WR_REG>
 8003ba2:	2003      	movs	r0, #3
 8003ba4:	f7fd f8e4 	bl	8000d70 <LCD_WR_DATA>
 8003ba8:	2001      	movs	r0, #1
 8003baa:	f7fd f8e1 	bl	8000d70 <LCD_WR_DATA>
 8003bae:	20ba      	movs	r0, #186	; 0xba
 8003bb0:	f7fd f8ca 	bl	8000d48 <LCD_WR_REG>
 8003bb4:	2001      	movs	r0, #1
 8003bb6:	f7fd f8db 	bl	8000d70 <LCD_WR_DATA>
 8003bba:	2064      	movs	r0, #100	; 0x64
 8003bbc:	f7fd fc34 	bl	8001428 <LCD_SSD_BackLightSet>
 8003bc0:	2000      	movs	r0, #0
 8003bc2:	f7fd fc65 	bl	8001490 <LCD_Display_Dir>
 8003bc6:	4b06      	ldr	r3, [pc, #24]	; (8003be0 <LCD_Init+0x25e0>)
 8003bc8:	2201      	movs	r2, #1
 8003bca:	601a      	str	r2, [r3, #0]
 8003bcc:	f64f 70ff 	movw	r0, #65535	; 0xffff
 8003bd0:	f000 f808 	bl	8003be4 <LCD_Clear>
 8003bd4:	bf00      	nop
 8003bd6:	3718      	adds	r7, #24
 8003bd8:	46bd      	mov	sp, r7
 8003bda:	bd80      	pop	{r7, pc}
 8003bdc:	20000204 	.word	0x20000204
 8003be0:	42218180 	.word	0x42218180

08003be4 <LCD_Clear>:
 8003be4:	b580      	push	{r7, lr}
 8003be6:	b084      	sub	sp, #16
 8003be8:	af00      	add	r7, sp, #0
 8003bea:	4603      	mov	r3, r0
 8003bec:	80fb      	strh	r3, [r7, #6]
 8003bee:	2300      	movs	r3, #0
 8003bf0:	60fb      	str	r3, [r7, #12]
 8003bf2:	4b11      	ldr	r3, [pc, #68]	; (8003c38 <LCD_Clear+0x54>)
 8003bf4:	881b      	ldrh	r3, [r3, #0]
 8003bf6:	60bb      	str	r3, [r7, #8]
 8003bf8:	4b0f      	ldr	r3, [pc, #60]	; (8003c38 <LCD_Clear+0x54>)
 8003bfa:	885b      	ldrh	r3, [r3, #2]
 8003bfc:	461a      	mov	r2, r3
 8003bfe:	68bb      	ldr	r3, [r7, #8]
 8003c00:	fb02 f303 	mul.w	r3, r2, r3
 8003c04:	60bb      	str	r3, [r7, #8]
 8003c06:	2100      	movs	r1, #0
 8003c08:	2000      	movs	r0, #0
 8003c0a:	f7fd f8f9 	bl	8000e00 <LCD_SetCursor>
 8003c0e:	f7fd f8e9 	bl	8000de4 <LCD_WriteRAM_Prepare>
 8003c12:	2300      	movs	r3, #0
 8003c14:	60fb      	str	r3, [r7, #12]
 8003c16:	e005      	b.n	8003c24 <LCD_Clear+0x40>
 8003c18:	4a08      	ldr	r2, [pc, #32]	; (8003c3c <LCD_Clear+0x58>)
 8003c1a:	88fb      	ldrh	r3, [r7, #6]
 8003c1c:	8053      	strh	r3, [r2, #2]
 8003c1e:	68fb      	ldr	r3, [r7, #12]
 8003c20:	3301      	adds	r3, #1
 8003c22:	60fb      	str	r3, [r7, #12]
 8003c24:	68fa      	ldr	r2, [r7, #12]
 8003c26:	68bb      	ldr	r3, [r7, #8]
 8003c28:	429a      	cmp	r2, r3
 8003c2a:	d3f5      	bcc.n	8003c18 <LCD_Clear+0x34>
 8003c2c:	bf00      	nop
 8003c2e:	bf00      	nop
 8003c30:	3710      	adds	r7, #16
 8003c32:	46bd      	mov	sp, r7
 8003c34:	bd80      	pop	{r7, pc}
 8003c36:	bf00      	nop
 8003c38:	20000204 	.word	0x20000204
 8003c3c:	6c0007fe 	.word	0x6c0007fe

08003c40 <LCD_ShowChar>:
 8003c40:	b590      	push	{r4, r7, lr}
 8003c42:	b085      	sub	sp, #20
 8003c44:	af00      	add	r7, sp, #0
 8003c46:	4604      	mov	r4, r0
 8003c48:	4608      	mov	r0, r1
 8003c4a:	4611      	mov	r1, r2
 8003c4c:	461a      	mov	r2, r3
 8003c4e:	4623      	mov	r3, r4
 8003c50:	80fb      	strh	r3, [r7, #6]
 8003c52:	4603      	mov	r3, r0
 8003c54:	80bb      	strh	r3, [r7, #4]
 8003c56:	460b      	mov	r3, r1
 8003c58:	70fb      	strb	r3, [r7, #3]
 8003c5a:	4613      	mov	r3, r2
 8003c5c:	70bb      	strb	r3, [r7, #2]
 8003c5e:	88bb      	ldrh	r3, [r7, #4]
 8003c60:	817b      	strh	r3, [r7, #10]
 8003c62:	78bb      	ldrb	r3, [r7, #2]
 8003c64:	08db      	lsrs	r3, r3, #3
 8003c66:	b2db      	uxtb	r3, r3
 8003c68:	461a      	mov	r2, r3
 8003c6a:	78bb      	ldrb	r3, [r7, #2]
 8003c6c:	f003 0307 	and.w	r3, r3, #7
 8003c70:	b2db      	uxtb	r3, r3
 8003c72:	2b00      	cmp	r3, #0
 8003c74:	bf14      	ite	ne
 8003c76:	2301      	movne	r3, #1
 8003c78:	2300      	moveq	r3, #0
 8003c7a:	b2db      	uxtb	r3, r3
 8003c7c:	4413      	add	r3, r2
 8003c7e:	b2db      	uxtb	r3, r3
 8003c80:	78ba      	ldrb	r2, [r7, #2]
 8003c82:	0852      	lsrs	r2, r2, #1
 8003c84:	b2d2      	uxtb	r2, r2
 8003c86:	fb02 f303 	mul.w	r3, r2, r3
 8003c8a:	727b      	strb	r3, [r7, #9]
 8003c8c:	78fb      	ldrb	r3, [r7, #3]
 8003c8e:	3b20      	subs	r3, #32
 8003c90:	70fb      	strb	r3, [r7, #3]
 8003c92:	2300      	movs	r3, #0
 8003c94:	737b      	strb	r3, [r7, #13]
 8003c96:	e06b      	b.n	8003d70 <LCD_ShowChar+0x130>
 8003c98:	78bb      	ldrb	r3, [r7, #2]
 8003c9a:	2b0c      	cmp	r3, #12
 8003c9c:	d10b      	bne.n	8003cb6 <LCD_ShowChar+0x76>
 8003c9e:	78fa      	ldrb	r2, [r7, #3]
 8003ca0:	7b79      	ldrb	r1, [r7, #13]
 8003ca2:	4839      	ldr	r0, [pc, #228]	; (8003d88 <LCD_ShowChar+0x148>)
 8003ca4:	4613      	mov	r3, r2
 8003ca6:	005b      	lsls	r3, r3, #1
 8003ca8:	4413      	add	r3, r2
 8003caa:	009b      	lsls	r3, r3, #2
 8003cac:	4403      	add	r3, r0
 8003cae:	440b      	add	r3, r1
 8003cb0:	781b      	ldrb	r3, [r3, #0]
 8003cb2:	73fb      	strb	r3, [r7, #15]
 8003cb4:	e019      	b.n	8003cea <LCD_ShowChar+0xaa>
 8003cb6:	78bb      	ldrb	r3, [r7, #2]
 8003cb8:	2b10      	cmp	r3, #16
 8003cba:	d108      	bne.n	8003cce <LCD_ShowChar+0x8e>
 8003cbc:	78fa      	ldrb	r2, [r7, #3]
 8003cbe:	7b7b      	ldrb	r3, [r7, #13]
 8003cc0:	4932      	ldr	r1, [pc, #200]	; (8003d8c <LCD_ShowChar+0x14c>)
 8003cc2:	0112      	lsls	r2, r2, #4
 8003cc4:	440a      	add	r2, r1
 8003cc6:	4413      	add	r3, r2
 8003cc8:	781b      	ldrb	r3, [r3, #0]
 8003cca:	73fb      	strb	r3, [r7, #15]
 8003ccc:	e00d      	b.n	8003cea <LCD_ShowChar+0xaa>
 8003cce:	78bb      	ldrb	r3, [r7, #2]
 8003cd0:	2b18      	cmp	r3, #24
 8003cd2:	d152      	bne.n	8003d7a <LCD_ShowChar+0x13a>
 8003cd4:	78fa      	ldrb	r2, [r7, #3]
 8003cd6:	7b79      	ldrb	r1, [r7, #13]
 8003cd8:	482d      	ldr	r0, [pc, #180]	; (8003d90 <LCD_ShowChar+0x150>)
 8003cda:	4613      	mov	r3, r2
 8003cdc:	00db      	lsls	r3, r3, #3
 8003cde:	4413      	add	r3, r2
 8003ce0:	009b      	lsls	r3, r3, #2
 8003ce2:	4403      	add	r3, r0
 8003ce4:	440b      	add	r3, r1
 8003ce6:	781b      	ldrb	r3, [r3, #0]
 8003ce8:	73fb      	strb	r3, [r7, #15]
 8003cea:	2300      	movs	r3, #0
 8003cec:	73bb      	strb	r3, [r7, #14]
 8003cee:	e037      	b.n	8003d60 <LCD_ShowChar+0x120>
 8003cf0:	f997 300f 	ldrsb.w	r3, [r7, #15]
 8003cf4:	2b00      	cmp	r3, #0
 8003cf6:	da08      	bge.n	8003d0a <LCD_ShowChar+0xca>
 8003cf8:	4b26      	ldr	r3, [pc, #152]	; (8003d94 <LCD_ShowChar+0x154>)
 8003cfa:	681b      	ldr	r3, [r3, #0]
 8003cfc:	b29a      	uxth	r2, r3
 8003cfe:	88b9      	ldrh	r1, [r7, #4]
 8003d00:	88fb      	ldrh	r3, [r7, #6]
 8003d02:	4618      	mov	r0, r3
 8003d04:	f7fd fad0 	bl	80012a8 <LCD_Fast_DrawPoint>
 8003d08:	e00b      	b.n	8003d22 <LCD_ShowChar+0xe2>
 8003d0a:	f897 3020 	ldrb.w	r3, [r7, #32]
 8003d0e:	2b00      	cmp	r3, #0
 8003d10:	d107      	bne.n	8003d22 <LCD_ShowChar+0xe2>
 8003d12:	4b21      	ldr	r3, [pc, #132]	; (8003d98 <LCD_ShowChar+0x158>)
 8003d14:	681b      	ldr	r3, [r3, #0]
 8003d16:	b29a      	uxth	r2, r3
 8003d18:	88b9      	ldrh	r1, [r7, #4]
 8003d1a:	88fb      	ldrh	r3, [r7, #6]
 8003d1c:	4618      	mov	r0, r3
 8003d1e:	f7fd fac3 	bl	80012a8 <LCD_Fast_DrawPoint>
 8003d22:	7bfb      	ldrb	r3, [r7, #15]
 8003d24:	005b      	lsls	r3, r3, #1
 8003d26:	73fb      	strb	r3, [r7, #15]
 8003d28:	88bb      	ldrh	r3, [r7, #4]
 8003d2a:	3301      	adds	r3, #1
 8003d2c:	80bb      	strh	r3, [r7, #4]
 8003d2e:	4b1b      	ldr	r3, [pc, #108]	; (8003d9c <LCD_ShowChar+0x15c>)
 8003d30:	885b      	ldrh	r3, [r3, #2]
 8003d32:	88ba      	ldrh	r2, [r7, #4]
 8003d34:	429a      	cmp	r2, r3
 8003d36:	d222      	bcs.n	8003d7e <LCD_ShowChar+0x13e>
 8003d38:	88ba      	ldrh	r2, [r7, #4]
 8003d3a:	897b      	ldrh	r3, [r7, #10]
 8003d3c:	1ad2      	subs	r2, r2, r3
 8003d3e:	78bb      	ldrb	r3, [r7, #2]
 8003d40:	429a      	cmp	r2, r3
 8003d42:	d10a      	bne.n	8003d5a <LCD_ShowChar+0x11a>
 8003d44:	897b      	ldrh	r3, [r7, #10]
 8003d46:	80bb      	strh	r3, [r7, #4]
 8003d48:	88fb      	ldrh	r3, [r7, #6]
 8003d4a:	3301      	adds	r3, #1
 8003d4c:	80fb      	strh	r3, [r7, #6]
 8003d4e:	4b13      	ldr	r3, [pc, #76]	; (8003d9c <LCD_ShowChar+0x15c>)
 8003d50:	881b      	ldrh	r3, [r3, #0]
 8003d52:	88fa      	ldrh	r2, [r7, #6]
 8003d54:	429a      	cmp	r2, r3
 8003d56:	d307      	bcc.n	8003d68 <LCD_ShowChar+0x128>
 8003d58:	e012      	b.n	8003d80 <LCD_ShowChar+0x140>
 8003d5a:	7bbb      	ldrb	r3, [r7, #14]
 8003d5c:	3301      	adds	r3, #1
 8003d5e:	73bb      	strb	r3, [r7, #14]
 8003d60:	7bbb      	ldrb	r3, [r7, #14]
 8003d62:	2b07      	cmp	r3, #7
 8003d64:	d9c4      	bls.n	8003cf0 <LCD_ShowChar+0xb0>
 8003d66:	e000      	b.n	8003d6a <LCD_ShowChar+0x12a>
 8003d68:	bf00      	nop
 8003d6a:	7b7b      	ldrb	r3, [r7, #13]
 8003d6c:	3301      	adds	r3, #1
 8003d6e:	737b      	strb	r3, [r7, #13]
 8003d70:	7b7a      	ldrb	r2, [r7, #13]
 8003d72:	7a7b      	ldrb	r3, [r7, #9]
 8003d74:	429a      	cmp	r2, r3
 8003d76:	d38f      	bcc.n	8003c98 <LCD_ShowChar+0x58>
 8003d78:	e002      	b.n	8003d80 <LCD_ShowChar+0x140>
 8003d7a:	bf00      	nop
 8003d7c:	e000      	b.n	8003d80 <LCD_ShowChar+0x140>
 8003d7e:	bf00      	nop
 8003d80:	3714      	adds	r7, #20
 8003d82:	46bd      	mov	sp, r7
 8003d84:	bd90      	pop	{r4, r7, pc}
 8003d86:	bf00      	nop
 8003d88:	0800c54c 	.word	0x0800c54c
 8003d8c:	0800c9c0 	.word	0x0800c9c0
 8003d90:	0800cfb0 	.word	0x0800cfb0
 8003d94:	20000000 	.word	0x20000000
 8003d98:	20000004 	.word	0x20000004
 8003d9c:	20000204 	.word	0x20000204

08003da0 <LCD_ShowString>:
 8003da0:	b590      	push	{r4, r7, lr}
 8003da2:	b087      	sub	sp, #28
 8003da4:	af02      	add	r7, sp, #8
 8003da6:	4604      	mov	r4, r0
 8003da8:	4608      	mov	r0, r1
 8003daa:	4611      	mov	r1, r2
 8003dac:	461a      	mov	r2, r3
 8003dae:	4623      	mov	r3, r4
 8003db0:	80fb      	strh	r3, [r7, #6]
 8003db2:	4603      	mov	r3, r0
 8003db4:	80bb      	strh	r3, [r7, #4]
 8003db6:	460b      	mov	r3, r1
 8003db8:	807b      	strh	r3, [r7, #2]
 8003dba:	4613      	mov	r3, r2
 8003dbc:	803b      	strh	r3, [r7, #0]
 8003dbe:	88fb      	ldrh	r3, [r7, #6]
 8003dc0:	73fb      	strb	r3, [r7, #15]
 8003dc2:	887a      	ldrh	r2, [r7, #2]
 8003dc4:	88fb      	ldrh	r3, [r7, #6]
 8003dc6:	4413      	add	r3, r2
 8003dc8:	807b      	strh	r3, [r7, #2]
 8003dca:	883a      	ldrh	r2, [r7, #0]
 8003dcc:	88bb      	ldrh	r3, [r7, #4]
 8003dce:	4413      	add	r3, r2
 8003dd0:	803b      	strh	r3, [r7, #0]
 8003dd2:	e024      	b.n	8003e1e <LCD_ShowString+0x7e>
 8003dd4:	88fa      	ldrh	r2, [r7, #6]
 8003dd6:	887b      	ldrh	r3, [r7, #2]
 8003dd8:	429a      	cmp	r2, r3
 8003dda:	d307      	bcc.n	8003dec <LCD_ShowString+0x4c>
 8003ddc:	7bfb      	ldrb	r3, [r7, #15]
 8003dde:	80fb      	strh	r3, [r7, #6]
 8003de0:	f897 3020 	ldrb.w	r3, [r7, #32]
 8003de4:	b29a      	uxth	r2, r3
 8003de6:	88bb      	ldrh	r3, [r7, #4]
 8003de8:	4413      	add	r3, r2
 8003dea:	80bb      	strh	r3, [r7, #4]
 8003dec:	88ba      	ldrh	r2, [r7, #4]
 8003dee:	883b      	ldrh	r3, [r7, #0]
 8003df0:	429a      	cmp	r2, r3
 8003df2:	d21d      	bcs.n	8003e30 <LCD_ShowString+0x90>
 8003df4:	6a7b      	ldr	r3, [r7, #36]	; 0x24
 8003df6:	781a      	ldrb	r2, [r3, #0]
 8003df8:	f897 3020 	ldrb.w	r3, [r7, #32]
 8003dfc:	88b9      	ldrh	r1, [r7, #4]
 8003dfe:	88f8      	ldrh	r0, [r7, #6]
 8003e00:	2400      	movs	r4, #0
 8003e02:	9400      	str	r4, [sp, #0]
 8003e04:	f7ff ff1c 	bl	8003c40 <LCD_ShowChar>
 8003e08:	f897 3020 	ldrb.w	r3, [r7, #32]
 8003e0c:	085b      	lsrs	r3, r3, #1
 8003e0e:	b2db      	uxtb	r3, r3
 8003e10:	b29a      	uxth	r2, r3
 8003e12:	88fb      	ldrh	r3, [r7, #6]
 8003e14:	4413      	add	r3, r2
 8003e16:	80fb      	strh	r3, [r7, #6]
 8003e18:	6a7b      	ldr	r3, [r7, #36]	; 0x24
 8003e1a:	3301      	adds	r3, #1
 8003e1c:	627b      	str	r3, [r7, #36]	; 0x24
 8003e1e:	6a7b      	ldr	r3, [r7, #36]	; 0x24
 8003e20:	781b      	ldrb	r3, [r3, #0]
 8003e22:	2b7e      	cmp	r3, #126	; 0x7e
 8003e24:	d805      	bhi.n	8003e32 <LCD_ShowString+0x92>
 8003e26:	6a7b      	ldr	r3, [r7, #36]	; 0x24
 8003e28:	781b      	ldrb	r3, [r3, #0]
 8003e2a:	2b1f      	cmp	r3, #31
 8003e2c:	d8d2      	bhi.n	8003dd4 <LCD_ShowString+0x34>
 8003e2e:	e000      	b.n	8003e32 <LCD_ShowString+0x92>
 8003e30:	bf00      	nop
 8003e32:	bf00      	nop
 8003e34:	3714      	adds	r7, #20
 8003e36:	46bd      	mov	sp, r7
 8003e38:	bd90      	pop	{r4, r7, pc}
	...

08003e3c <MX_FSMC_Init>:
 8003e3c:	b580      	push	{r7, lr}
 8003e3e:	b08e      	sub	sp, #56	; 0x38
 8003e40:	af00      	add	r7, sp, #0
 8003e42:	f107 031c 	add.w	r3, r7, #28
 8003e46:	2200      	movs	r2, #0
 8003e48:	601a      	str	r2, [r3, #0]
 8003e4a:	605a      	str	r2, [r3, #4]
 8003e4c:	609a      	str	r2, [r3, #8]
 8003e4e:	60da      	str	r2, [r3, #12]
 8003e50:	611a      	str	r2, [r3, #16]
 8003e52:	615a      	str	r2, [r3, #20]
 8003e54:	619a      	str	r2, [r3, #24]
 8003e56:	463b      	mov	r3, r7
 8003e58:	2200      	movs	r2, #0
 8003e5a:	601a      	str	r2, [r3, #0]
 8003e5c:	605a      	str	r2, [r3, #4]
 8003e5e:	609a      	str	r2, [r3, #8]
 8003e60:	60da      	str	r2, [r3, #12]
 8003e62:	611a      	str	r2, [r3, #16]
 8003e64:	615a      	str	r2, [r3, #20]
 8003e66:	619a      	str	r2, [r3, #24]
 8003e68:	4b30      	ldr	r3, [pc, #192]	; (8003f2c <MX_FSMC_Init+0xf0>)
 8003e6a:	f04f 4220 	mov.w	r2, #2684354560	; 0xa0000000
 8003e6e:	601a      	str	r2, [r3, #0]
 8003e70:	4b2e      	ldr	r3, [pc, #184]	; (8003f2c <MX_FSMC_Init+0xf0>)
 8003e72:	4a2f      	ldr	r2, [pc, #188]	; (8003f30 <MX_FSMC_Init+0xf4>)
 8003e74:	605a      	str	r2, [r3, #4]
 8003e76:	4b2d      	ldr	r3, [pc, #180]	; (8003f2c <MX_FSMC_Init+0xf0>)
 8003e78:	2206      	movs	r2, #6
 8003e7a:	609a      	str	r2, [r3, #8]
 8003e7c:	4b2b      	ldr	r3, [pc, #172]	; (8003f2c <MX_FSMC_Init+0xf0>)
 8003e7e:	2200      	movs	r2, #0
 8003e80:	60da      	str	r2, [r3, #12]
 8003e82:	4b2a      	ldr	r3, [pc, #168]	; (8003f2c <MX_FSMC_Init+0xf0>)
 8003e84:	2200      	movs	r2, #0
 8003e86:	611a      	str	r2, [r3, #16]
 8003e88:	4b28      	ldr	r3, [pc, #160]	; (8003f2c <MX_FSMC_Init+0xf0>)
 8003e8a:	2210      	movs	r2, #16
 8003e8c:	615a      	str	r2, [r3, #20]
 8003e8e:	4b27      	ldr	r3, [pc, #156]	; (8003f2c <MX_FSMC_Init+0xf0>)
 8003e90:	2200      	movs	r2, #0
 8003e92:	619a      	str	r2, [r3, #24]
 8003e94:	4b25      	ldr	r3, [pc, #148]	; (8003f2c <MX_FSMC_Init+0xf0>)
 8003e96:	2200      	movs	r2, #0
 8003e98:	61da      	str	r2, [r3, #28]
 8003e9a:	4b24      	ldr	r3, [pc, #144]	; (8003f2c <MX_FSMC_Init+0xf0>)
 8003e9c:	2200      	movs	r2, #0
 8003e9e:	621a      	str	r2, [r3, #32]
 8003ea0:	4b22      	ldr	r3, [pc, #136]	; (8003f2c <MX_FSMC_Init+0xf0>)
 8003ea2:	2200      	movs	r2, #0
 8003ea4:	625a      	str	r2, [r3, #36]	; 0x24
 8003ea6:	4b21      	ldr	r3, [pc, #132]	; (8003f2c <MX_FSMC_Init+0xf0>)
 8003ea8:	f44f 5280 	mov.w	r2, #4096	; 0x1000
 8003eac:	629a      	str	r2, [r3, #40]	; 0x28
 8003eae:	4b1f      	ldr	r3, [pc, #124]	; (8003f2c <MX_FSMC_Init+0xf0>)
 8003eb0:	2200      	movs	r2, #0
 8003eb2:	62da      	str	r2, [r3, #44]	; 0x2c
 8003eb4:	4b1d      	ldr	r3, [pc, #116]	; (8003f2c <MX_FSMC_Init+0xf0>)
 8003eb6:	f44f 4280 	mov.w	r2, #16384	; 0x4000
 8003eba:	631a      	str	r2, [r3, #48]	; 0x30
 8003ebc:	4b1b      	ldr	r3, [pc, #108]	; (8003f2c <MX_FSMC_Init+0xf0>)
 8003ebe:	2200      	movs	r2, #0
 8003ec0:	635a      	str	r2, [r3, #52]	; 0x34
 8003ec2:	4b1a      	ldr	r3, [pc, #104]	; (8003f2c <MX_FSMC_Init+0xf0>)
 8003ec4:	2200      	movs	r2, #0
 8003ec6:	639a      	str	r2, [r3, #56]	; 0x38
 8003ec8:	2306      	movs	r3, #6
 8003eca:	61fb      	str	r3, [r7, #28]
 8003ecc:	230f      	movs	r3, #15
 8003ece:	623b      	str	r3, [r7, #32]
 8003ed0:	231a      	movs	r3, #26
 8003ed2:	627b      	str	r3, [r7, #36]	; 0x24
 8003ed4:	2300      	movs	r3, #0
 8003ed6:	62bb      	str	r3, [r7, #40]	; 0x28
 8003ed8:	2310      	movs	r3, #16
 8003eda:	62fb      	str	r3, [r7, #44]	; 0x2c
 8003edc:	2311      	movs	r3, #17
 8003ede:	633b      	str	r3, [r7, #48]	; 0x30
 8003ee0:	2300      	movs	r3, #0
 8003ee2:	637b      	str	r3, [r7, #52]	; 0x34
 8003ee4:	2303      	movs	r3, #3
 8003ee6:	603b      	str	r3, [r7, #0]
 8003ee8:	230f      	movs	r3, #15
 8003eea:	607b      	str	r3, [r7, #4]
 8003eec:	2306      	movs	r3, #6
 8003eee:	60bb      	str	r3, [r7, #8]
 8003ef0:	2300      	movs	r3, #0
 8003ef2:	60fb      	str	r3, [r7, #12]
 8003ef4:	2310      	movs	r3, #16
 8003ef6:	613b      	str	r3, [r7, #16]
 8003ef8:	2311      	movs	r3, #17
 8003efa:	617b      	str	r3, [r7, #20]
 8003efc:	2300      	movs	r3, #0
 8003efe:	61bb      	str	r3, [r7, #24]
 8003f00:	463a      	mov	r2, r7
 8003f02:	f107 031c 	add.w	r3, r7, #28
 8003f06:	4619      	mov	r1, r3
 8003f08:	4808      	ldr	r0, [pc, #32]	; (8003f2c <MX_FSMC_Init+0xf0>)
 8003f0a:	f002 ff1b 	bl	8006d44 <HAL_SRAM_Init>
 8003f0e:	4603      	mov	r3, r0
 8003f10:	2b00      	cmp	r3, #0
 8003f12:	d001      	beq.n	8003f18 <MX_FSMC_Init+0xdc>
 8003f14:	f000 fa51 	bl	80043ba <Error_Handler>
 8003f18:	4b06      	ldr	r3, [pc, #24]	; (8003f34 <MX_FSMC_Init+0xf8>)
 8003f1a:	69db      	ldr	r3, [r3, #28]
 8003f1c:	4a05      	ldr	r2, [pc, #20]	; (8003f34 <MX_FSMC_Init+0xf8>)
 8003f1e:	f443 6380 	orr.w	r3, r3, #1024	; 0x400
 8003f22:	61d3      	str	r3, [r2, #28]
 8003f24:	bf00      	nop
 8003f26:	3738      	adds	r7, #56	; 0x38
 8003f28:	46bd      	mov	sp, r7
 8003f2a:	bd80      	pop	{r7, pc}
 8003f2c:	20000214 	.word	0x20000214
 8003f30:	a0000104 	.word	0xa0000104
 8003f34:	40010000 	.word	0x40010000

08003f38 <HAL_FSMC_MspInit>:
 8003f38:	b580      	push	{r7, lr}
 8003f3a:	b086      	sub	sp, #24
 8003f3c:	af00      	add	r7, sp, #0
 8003f3e:	f107 0308 	add.w	r3, r7, #8
 8003f42:	2200      	movs	r2, #0
 8003f44:	601a      	str	r2, [r3, #0]
 8003f46:	605a      	str	r2, [r3, #4]
 8003f48:	609a      	str	r2, [r3, #8]
 8003f4a:	60da      	str	r2, [r3, #12]
 8003f4c:	4b1f      	ldr	r3, [pc, #124]	; (8003fcc <HAL_FSMC_MspInit+0x94>)
 8003f4e:	681b      	ldr	r3, [r3, #0]
 8003f50:	2b00      	cmp	r3, #0
 8003f52:	d136      	bne.n	8003fc2 <HAL_FSMC_MspInit+0x8a>
 8003f54:	4b1d      	ldr	r3, [pc, #116]	; (8003fcc <HAL_FSMC_MspInit+0x94>)
 8003f56:	2201      	movs	r2, #1
 8003f58:	601a      	str	r2, [r3, #0]
 8003f5a:	4b1d      	ldr	r3, [pc, #116]	; (8003fd0 <HAL_FSMC_MspInit+0x98>)
 8003f5c:	695b      	ldr	r3, [r3, #20]
 8003f5e:	4a1c      	ldr	r2, [pc, #112]	; (8003fd0 <HAL_FSMC_MspInit+0x98>)
 8003f60:	f443 7380 	orr.w	r3, r3, #256	; 0x100
 8003f64:	6153      	str	r3, [r2, #20]
 8003f66:	4b1a      	ldr	r3, [pc, #104]	; (8003fd0 <HAL_FSMC_MspInit+0x98>)
 8003f68:	695b      	ldr	r3, [r3, #20]
 8003f6a:	f403 7380 	and.w	r3, r3, #256	; 0x100
 8003f6e:	607b      	str	r3, [r7, #4]
 8003f70:	687b      	ldr	r3, [r7, #4]
 8003f72:	f241 0301 	movw	r3, #4097	; 0x1001
 8003f76:	60bb      	str	r3, [r7, #8]
 8003f78:	2302      	movs	r3, #2
 8003f7a:	60fb      	str	r3, [r7, #12]
 8003f7c:	2303      	movs	r3, #3
 8003f7e:	617b      	str	r3, [r7, #20]
 8003f80:	f107 0308 	add.w	r3, r7, #8
 8003f84:	4619      	mov	r1, r3
 8003f86:	4813      	ldr	r0, [pc, #76]	; (8003fd4 <HAL_FSMC_MspInit+0x9c>)
 8003f88:	f001 f96c 	bl	8005264 <HAL_GPIO_Init>
 8003f8c:	f64f 7380 	movw	r3, #65408	; 0xff80
 8003f90:	60bb      	str	r3, [r7, #8]
 8003f92:	2302      	movs	r3, #2
 8003f94:	60fb      	str	r3, [r7, #12]
 8003f96:	2303      	movs	r3, #3
 8003f98:	617b      	str	r3, [r7, #20]
 8003f9a:	f107 0308 	add.w	r3, r7, #8
 8003f9e:	4619      	mov	r1, r3
 8003fa0:	480d      	ldr	r0, [pc, #52]	; (8003fd8 <HAL_FSMC_MspInit+0xa0>)
 8003fa2:	f001 f95f 	bl	8005264 <HAL_GPIO_Init>
 8003fa6:	f24c 7333 	movw	r3, #50995	; 0xc733
 8003faa:	60bb      	str	r3, [r7, #8]
 8003fac:	2302      	movs	r3, #2
 8003fae:	60fb      	str	r3, [r7, #12]
 8003fb0:	2303      	movs	r3, #3
 8003fb2:	617b      	str	r3, [r7, #20]
 8003fb4:	f107 0308 	add.w	r3, r7, #8
 8003fb8:	4619      	mov	r1, r3
 8003fba:	4808      	ldr	r0, [pc, #32]	; (8003fdc <HAL_FSMC_MspInit+0xa4>)
 8003fbc:	f001 f952 	bl	8005264 <HAL_GPIO_Init>
 8003fc0:	e000      	b.n	8003fc4 <HAL_FSMC_MspInit+0x8c>
 8003fc2:	bf00      	nop
 8003fc4:	3718      	adds	r7, #24
 8003fc6:	46bd      	mov	sp, r7
 8003fc8:	bd80      	pop	{r7, pc}
 8003fca:	bf00      	nop
 8003fcc:	2000025c 	.word	0x2000025c
 8003fd0:	40021000 	.word	0x40021000
 8003fd4:	40012000 	.word	0x40012000
 8003fd8:	40011800 	.word	0x40011800
 8003fdc:	40011400 	.word	0x40011400

08003fe0 <HAL_SRAM_MspInit>:
 8003fe0:	b580      	push	{r7, lr}
 8003fe2:	b082      	sub	sp, #8
 8003fe4:	af00      	add	r7, sp, #0
 8003fe6:	6078      	str	r0, [r7, #4]
 8003fe8:	f7ff ffa6 	bl	8003f38 <HAL_FSMC_MspInit>
 8003fec:	bf00      	nop
 8003fee:	3708      	adds	r7, #8
 8003ff0:	46bd      	mov	sp, r7
 8003ff2:	bd80      	pop	{r7, pc}

08003ff4 <MX_GPIO_Init>:
 8003ff4:	b580      	push	{r7, lr}
 8003ff6:	b08a      	sub	sp, #40	; 0x28
 8003ff8:	af00      	add	r7, sp, #0
 8003ffa:	f107 0318 	add.w	r3, r7, #24
 8003ffe:	2200      	movs	r2, #0
 8004000:	601a      	str	r2, [r3, #0]
 8004002:	605a      	str	r2, [r3, #4]
 8004004:	609a      	str	r2, [r3, #8]
 8004006:	60da      	str	r2, [r3, #12]
 8004008:	4b4f      	ldr	r3, [pc, #316]	; (8004148 <MX_GPIO_Init+0x154>)
 800400a:	699b      	ldr	r3, [r3, #24]
 800400c:	4a4e      	ldr	r2, [pc, #312]	; (8004148 <MX_GPIO_Init+0x154>)
 800400e:	f043 0340 	orr.w	r3, r3, #64	; 0x40
 8004012:	6193      	str	r3, [r2, #24]
 8004014:	4b4c      	ldr	r3, [pc, #304]	; (8004148 <MX_GPIO_Init+0x154>)
 8004016:	699b      	ldr	r3, [r3, #24]
 8004018:	f003 0340 	and.w	r3, r3, #64	; 0x40
 800401c:	617b      	str	r3, [r7, #20]
 800401e:	697b      	ldr	r3, [r7, #20]
 8004020:	4b49      	ldr	r3, [pc, #292]	; (8004148 <MX_GPIO_Init+0x154>)
 8004022:	699b      	ldr	r3, [r3, #24]
 8004024:	4a48      	ldr	r2, [pc, #288]	; (8004148 <MX_GPIO_Init+0x154>)
 8004026:	f043 0310 	orr.w	r3, r3, #16
 800402a:	6193      	str	r3, [r2, #24]
 800402c:	4b46      	ldr	r3, [pc, #280]	; (8004148 <MX_GPIO_Init+0x154>)
 800402e:	699b      	ldr	r3, [r3, #24]
 8004030:	f003 0310 	and.w	r3, r3, #16
 8004034:	613b      	str	r3, [r7, #16]
 8004036:	693b      	ldr	r3, [r7, #16]
 8004038:	4b43      	ldr	r3, [pc, #268]	; (8004148 <MX_GPIO_Init+0x154>)
 800403a:	699b      	ldr	r3, [r3, #24]
 800403c:	4a42      	ldr	r2, [pc, #264]	; (8004148 <MX_GPIO_Init+0x154>)
 800403e:	f043 0304 	orr.w	r3, r3, #4
 8004042:	6193      	str	r3, [r2, #24]
 8004044:	4b40      	ldr	r3, [pc, #256]	; (8004148 <MX_GPIO_Init+0x154>)
 8004046:	699b      	ldr	r3, [r3, #24]
 8004048:	f003 0304 	and.w	r3, r3, #4
 800404c:	60fb      	str	r3, [r7, #12]
 800404e:	68fb      	ldr	r3, [r7, #12]
 8004050:	4b3d      	ldr	r3, [pc, #244]	; (8004148 <MX_GPIO_Init+0x154>)
 8004052:	699b      	ldr	r3, [r3, #24]
 8004054:	4a3c      	ldr	r2, [pc, #240]	; (8004148 <MX_GPIO_Init+0x154>)
 8004056:	f443 7380 	orr.w	r3, r3, #256	; 0x100
 800405a:	6193      	str	r3, [r2, #24]
 800405c:	4b3a      	ldr	r3, [pc, #232]	; (8004148 <MX_GPIO_Init+0x154>)
 800405e:	699b      	ldr	r3, [r3, #24]
 8004060:	f403 7380 	and.w	r3, r3, #256	; 0x100
 8004064:	60bb      	str	r3, [r7, #8]
 8004066:	68bb      	ldr	r3, [r7, #8]
 8004068:	4b37      	ldr	r3, [pc, #220]	; (8004148 <MX_GPIO_Init+0x154>)
 800406a:	699b      	ldr	r3, [r3, #24]
 800406c:	4a36      	ldr	r2, [pc, #216]	; (8004148 <MX_GPIO_Init+0x154>)
 800406e:	f043 0308 	orr.w	r3, r3, #8
 8004072:	6193      	str	r3, [r2, #24]
 8004074:	4b34      	ldr	r3, [pc, #208]	; (8004148 <MX_GPIO_Init+0x154>)
 8004076:	699b      	ldr	r3, [r3, #24]
 8004078:	f003 0308 	and.w	r3, r3, #8
 800407c:	607b      	str	r3, [r7, #4]
 800407e:	687b      	ldr	r3, [r7, #4]
 8004080:	4b31      	ldr	r3, [pc, #196]	; (8004148 <MX_GPIO_Init+0x154>)
 8004082:	699b      	ldr	r3, [r3, #24]
 8004084:	4a30      	ldr	r2, [pc, #192]	; (8004148 <MX_GPIO_Init+0x154>)
 8004086:	f043 0320 	orr.w	r3, r3, #32
 800408a:	6193      	str	r3, [r2, #24]
 800408c:	4b2e      	ldr	r3, [pc, #184]	; (8004148 <MX_GPIO_Init+0x154>)
 800408e:	699b      	ldr	r3, [r3, #24]
 8004090:	f003 0320 	and.w	r3, r3, #32
 8004094:	603b      	str	r3, [r7, #0]
 8004096:	683b      	ldr	r3, [r7, #0]
 8004098:	2200      	movs	r2, #0
 800409a:	2120      	movs	r1, #32
 800409c:	482b      	ldr	r0, [pc, #172]	; (800414c <MX_GPIO_Init+0x158>)
 800409e:	f001 fa75 	bl	800558c <HAL_GPIO_WritePin>
 80040a2:	2201      	movs	r2, #1
 80040a4:	f44f 5180 	mov.w	r1, #4096	; 0x1000
 80040a8:	4829      	ldr	r0, [pc, #164]	; (8004150 <MX_GPIO_Init+0x15c>)
 80040aa:	f001 fa6f 	bl	800558c <HAL_GPIO_WritePin>
 80040ae:	2200      	movs	r2, #0
 80040b0:	2120      	movs	r1, #32
 80040b2:	4827      	ldr	r0, [pc, #156]	; (8004150 <MX_GPIO_Init+0x15c>)
 80040b4:	f001 fa6a 	bl	800558c <HAL_GPIO_WritePin>
 80040b8:	2318      	movs	r3, #24
 80040ba:	61bb      	str	r3, [r7, #24]
 80040bc:	2300      	movs	r3, #0
 80040be:	61fb      	str	r3, [r7, #28]
 80040c0:	2301      	movs	r3, #1
 80040c2:	623b      	str	r3, [r7, #32]
 80040c4:	f107 0318 	add.w	r3, r7, #24
 80040c8:	4619      	mov	r1, r3
 80040ca:	4820      	ldr	r0, [pc, #128]	; (800414c <MX_GPIO_Init+0x158>)
 80040cc:	f001 f8ca 	bl	8005264 <HAL_GPIO_Init>
 80040d0:	2320      	movs	r3, #32
 80040d2:	61bb      	str	r3, [r7, #24]
 80040d4:	2301      	movs	r3, #1
 80040d6:	61fb      	str	r3, [r7, #28]
 80040d8:	2300      	movs	r3, #0
 80040da:	623b      	str	r3, [r7, #32]
 80040dc:	2303      	movs	r3, #3
 80040de:	627b      	str	r3, [r7, #36]	; 0x24
 80040e0:	f107 0318 	add.w	r3, r7, #24
 80040e4:	4619      	mov	r1, r3
 80040e6:	4819      	ldr	r0, [pc, #100]	; (800414c <MX_GPIO_Init+0x158>)
 80040e8:	f001 f8bc 	bl	8005264 <HAL_GPIO_Init>
 80040ec:	2301      	movs	r3, #1
 80040ee:	61bb      	str	r3, [r7, #24]
 80040f0:	2300      	movs	r3, #0
 80040f2:	61fb      	str	r3, [r7, #28]
 80040f4:	2302      	movs	r3, #2
 80040f6:	623b      	str	r3, [r7, #32]
 80040f8:	f107 0318 	add.w	r3, r7, #24
 80040fc:	4619      	mov	r1, r3
 80040fe:	4815      	ldr	r0, [pc, #84]	; (8004154 <MX_GPIO_Init+0x160>)
 8004100:	f001 f8b0 	bl	8005264 <HAL_GPIO_Init>
 8004104:	f44f 5380 	mov.w	r3, #4096	; 0x1000
 8004108:	61bb      	str	r3, [r7, #24]
 800410a:	2301      	movs	r3, #1
 800410c:	61fb      	str	r3, [r7, #28]
 800410e:	2301      	movs	r3, #1
 8004110:	623b      	str	r3, [r7, #32]
 8004112:	2303      	movs	r3, #3
 8004114:	627b      	str	r3, [r7, #36]	; 0x24
 8004116:	f107 0318 	add.w	r3, r7, #24
 800411a:	4619      	mov	r1, r3
 800411c:	480c      	ldr	r0, [pc, #48]	; (8004150 <MX_GPIO_Init+0x15c>)
 800411e:	f001 f8a1 	bl	8005264 <HAL_GPIO_Init>
 8004122:	2320      	movs	r3, #32
 8004124:	61bb      	str	r3, [r7, #24]
 8004126:	2301      	movs	r3, #1
 8004128:	61fb      	str	r3, [r7, #28]
 800412a:	2300      	movs	r3, #0
 800412c:	623b      	str	r3, [r7, #32]
 800412e:	2303      	movs	r3, #3
 8004130:	627b      	str	r3, [r7, #36]	; 0x24
 8004132:	f107 0318 	add.w	r3, r7, #24
 8004136:	4619      	mov	r1, r3
 8004138:	4805      	ldr	r0, [pc, #20]	; (8004150 <MX_GPIO_Init+0x15c>)
 800413a:	f001 f893 	bl	8005264 <HAL_GPIO_Init>
 800413e:	bf00      	nop
 8004140:	3728      	adds	r7, #40	; 0x28
 8004142:	46bd      	mov	sp, r7
 8004144:	bd80      	pop	{r7, pc}
 8004146:	bf00      	nop
 8004148:	40021000 	.word	0x40021000
 800414c:	40011800 	.word	0x40011800
 8004150:	40010c00 	.word	0x40010c00
 8004154:	40010800 	.word	0x40010800

08004158 <main>:
 8004158:	b580      	push	{r7, lr}
 800415a:	b090      	sub	sp, #64	; 0x40
 800415c:	af02      	add	r7, sp, #8
 800415e:	2300      	movs	r3, #0
 8004160:	637b      	str	r3, [r7, #52]	; 0x34
 8004162:	f000 fda9 	bl	8004cb8 <HAL_Init>
 8004166:	f000 f8c9 	bl	80042fc <SystemClock_Config>
 800416a:	f7ff ff43 	bl	8003ff4 <MX_GPIO_Init>
 800416e:	f000 fce9 	bl	8004b44 <MX_USART1_UART_Init>
 8004172:	f7ff fe63 	bl	8003e3c <MX_FSMC_Init>
 8004176:	f000 fb35 	bl	80047e4 <MX_SPI2_Init>
 800417a:	f000 f923 	bl	80043c4 <MX_RTC_Init>
 800417e:	f7fd fa3f 	bl	8001600 <LCD_Init>
 8004182:	4b53      	ldr	r3, [pc, #332]	; (80042d0 <main+0x178>)
 8004184:	f44f 4278 	mov.w	r2, #63488	; 0xf800
 8004188:	601a      	str	r2, [r3, #0]
 800418a:	4b52      	ldr	r3, [pc, #328]	; (80042d4 <main+0x17c>)
 800418c:	889b      	ldrh	r3, [r3, #4]
 800418e:	461a      	mov	r2, r3
 8004190:	f107 0328 	add.w	r3, r7, #40	; 0x28
 8004194:	4950      	ldr	r1, [pc, #320]	; (80042d8 <main+0x180>)
 8004196:	4618      	mov	r0, r3
 8004198:	f004 fbbe 	bl	8008918 <siprintf>
 800419c:	f64f 70ff 	movw	r0, #65535	; 0xffff
 80041a0:	f7ff fd20 	bl	8003be4 <LCD_Clear>
 80041a4:	4b4a      	ldr	r3, [pc, #296]	; (80042d0 <main+0x178>)
 80041a6:	f44f 4278 	mov.w	r2, #63488	; 0xf800
 80041aa:	601a      	str	r2, [r3, #0]
 80041ac:	4b4b      	ldr	r3, [pc, #300]	; (80042dc <main+0x184>)
 80041ae:	9301      	str	r3, [sp, #4]
 80041b0:	2318      	movs	r3, #24
 80041b2:	9300      	str	r3, [sp, #0]
 80041b4:	2318      	movs	r3, #24
 80041b6:	22d2      	movs	r2, #210	; 0xd2
 80041b8:	2128      	movs	r1, #40	; 0x28
 80041ba:	201e      	movs	r0, #30
 80041bc:	f7ff fdf0 	bl	8003da0 <LCD_ShowString>
 80041c0:	4b47      	ldr	r3, [pc, #284]	; (80042e0 <main+0x188>)
 80041c2:	9301      	str	r3, [sp, #4]
 80041c4:	2310      	movs	r3, #16
 80041c6:	9300      	str	r3, [sp, #0]
 80041c8:	2310      	movs	r3, #16
 80041ca:	22c8      	movs	r2, #200	; 0xc8
 80041cc:	2146      	movs	r1, #70	; 0x46
 80041ce:	201e      	movs	r0, #30
 80041d0:	f7ff fde6 	bl	8003da0 <LCD_ShowString>
 80041d4:	f107 0328 	add.w	r3, r7, #40	; 0x28
 80041d8:	9301      	str	r3, [sp, #4]
 80041da:	2310      	movs	r3, #16
 80041dc:	9300      	str	r3, [sp, #0]
 80041de:	2310      	movs	r3, #16
 80041e0:	22c8      	movs	r2, #200	; 0xc8
 80041e2:	215a      	movs	r1, #90	; 0x5a
 80041e4:	201e      	movs	r0, #30
 80041e6:	f7ff fddb 	bl	8003da0 <LCD_ShowString>
 80041ea:	4b3e      	ldr	r3, [pc, #248]	; (80042e4 <main+0x18c>)
 80041ec:	9301      	str	r3, [sp, #4]
 80041ee:	230c      	movs	r3, #12
 80041f0:	9300      	str	r3, [sp, #0]
 80041f2:	230c      	movs	r3, #12
 80041f4:	22c8      	movs	r2, #200	; 0xc8
 80041f6:	216e      	movs	r1, #110	; 0x6e
 80041f8:	201e      	movs	r0, #30
 80041fa:	f7ff fdd1 	bl	8003da0 <LCD_ShowString>
 80041fe:	f107 0310 	add.w	r3, r7, #16
 8004202:	2200      	movs	r2, #0
 8004204:	4619      	mov	r1, r3
 8004206:	4838      	ldr	r0, [pc, #224]	; (80042e8 <main+0x190>)
 8004208:	f002 f828 	bl	800625c <HAL_RTC_GetTime>
 800420c:	f107 030c 	add.w	r3, r7, #12
 8004210:	2200      	movs	r2, #0
 8004212:	4619      	mov	r1, r3
 8004214:	4834      	ldr	r0, [pc, #208]	; (80042e8 <main+0x190>)
 8004216:	f002 f8f9 	bl	800640c <HAL_RTC_GetDate>
 800421a:	7c3b      	ldrb	r3, [r7, #16]
 800421c:	461a      	mov	r2, r3
 800421e:	7c7b      	ldrb	r3, [r7, #17]
 8004220:	4619      	mov	r1, r3
 8004222:	7cbb      	ldrb	r3, [r7, #18]
 8004224:	f107 0014 	add.w	r0, r7, #20
 8004228:	9300      	str	r3, [sp, #0]
 800422a:	460b      	mov	r3, r1
 800422c:	492f      	ldr	r1, [pc, #188]	; (80042ec <main+0x194>)
 800422e:	f004 fb73 	bl	8008918 <siprintf>
 8004232:	f107 0314 	add.w	r3, r7, #20
 8004236:	9301      	str	r3, [sp, #4]
 8004238:	230c      	movs	r3, #12
 800423a:	9300      	str	r3, [sp, #0]
 800423c:	230c      	movs	r3, #12
 800423e:	22c8      	movs	r2, #200	; 0xc8
 8004240:	2196      	movs	r1, #150	; 0x96
 8004242:	201e      	movs	r0, #30
 8004244:	f7ff fdac 	bl	8003da0 <LCD_ShowString>
 8004248:	f107 0314 	add.w	r3, r7, #20
 800424c:	2214      	movs	r2, #20
 800424e:	2100      	movs	r1, #0
 8004250:	4618      	mov	r0, r3
 8004252:	f003 fce7 	bl	8007c24 <memset>
 8004256:	7bfb      	ldrb	r3, [r7, #15]
 8004258:	f503 62fa 	add.w	r2, r3, #2000	; 0x7d0
 800425c:	7b7b      	ldrb	r3, [r7, #13]
 800425e:	4619      	mov	r1, r3
 8004260:	7bbb      	ldrb	r3, [r7, #14]
 8004262:	f107 0014 	add.w	r0, r7, #20
 8004266:	9300      	str	r3, [sp, #0]
 8004268:	460b      	mov	r3, r1
 800426a:	4921      	ldr	r1, [pc, #132]	; (80042f0 <main+0x198>)
 800426c:	f004 fb54 	bl	8008918 <siprintf>
 8004270:	f107 0314 	add.w	r3, r7, #20
 8004274:	9301      	str	r3, [sp, #4]
 8004276:	230c      	movs	r3, #12
 8004278:	9300      	str	r3, [sp, #0]
 800427a:	230c      	movs	r3, #12
 800427c:	22c8      	movs	r2, #200	; 0xc8
 800427e:	2182      	movs	r1, #130	; 0x82
 8004280:	201e      	movs	r0, #30
 8004282:	f7ff fd8d 	bl	8003da0 <LCD_ShowString>
 8004286:	2300      	movs	r3, #0
 8004288:	60bb      	str	r3, [r7, #8]
 800428a:	7c3b      	ldrb	r3, [r7, #16]
 800428c:	713b      	strb	r3, [r7, #4]
 800428e:	7c7b      	ldrb	r3, [r7, #17]
 8004290:	717b      	strb	r3, [r7, #5]
 8004292:	4b18      	ldr	r3, [pc, #96]	; (80042f4 <main+0x19c>)
 8004294:	789b      	ldrb	r3, [r3, #2]
 8004296:	2b31      	cmp	r3, #49	; 0x31
 8004298:	d804      	bhi.n	80042a4 <main+0x14c>
 800429a:	7cbb      	ldrb	r3, [r7, #18]
 800429c:	330a      	adds	r3, #10
 800429e:	b2db      	uxtb	r3, r3
 80042a0:	71bb      	strb	r3, [r7, #6]
 80042a2:	e005      	b.n	80042b0 <main+0x158>
 80042a4:	797b      	ldrb	r3, [r7, #5]
 80042a6:	3301      	adds	r3, #1
 80042a8:	b2db      	uxtb	r3, r3
 80042aa:	717b      	strb	r3, [r7, #5]
 80042ac:	2300      	movs	r3, #0
 80042ae:	71bb      	strb	r3, [r7, #6]
 80042b0:	1d3b      	adds	r3, r7, #4
 80042b2:	2200      	movs	r2, #0
 80042b4:	4619      	mov	r1, r3
 80042b6:	480c      	ldr	r0, [pc, #48]	; (80042e8 <main+0x190>)
 80042b8:	f002 f8fc 	bl	80064b4 <HAL_RTC_SetAlarm_IT>
 80042bc:	f44f 70fa 	mov.w	r0, #500	; 0x1f4
 80042c0:	f000 fd5c 	bl	8004d7c <HAL_Delay>
 80042c4:	2120      	movs	r1, #32
 80042c6:	480c      	ldr	r0, [pc, #48]	; (80042f8 <main+0x1a0>)
 80042c8:	f001 f978 	bl	80055bc <HAL_GPIO_TogglePin>
 80042cc:	e7f6      	b.n	80042bc <main+0x164>
 80042ce:	bf00      	nop
 80042d0:	20000000 	.word	0x20000000
 80042d4:	20000204 	.word	0x20000204
 80042d8:	0800c4b0 	.word	0x0800c4b0
 80042dc:	0800c4bc 	.word	0x0800c4bc
 80042e0:	0800c4d0 	.word	0x0800c4d0
 80042e4:	0800c4e0 	.word	0x0800c4e0
 80042e8:	2000026c 	.word	0x2000026c
 80042ec:	0800c4ec 	.word	0x0800c4ec
 80042f0:	0800c504 	.word	0x0800c504
 80042f4:	20000260 	.word	0x20000260
 80042f8:	40010c00 	.word	0x40010c00

080042fc <SystemClock_Config>:
 80042fc:	b580      	push	{r7, lr}
 80042fe:	b096      	sub	sp, #88	; 0x58
 8004300:	af00      	add	r7, sp, #0
 8004302:	f107 0330 	add.w	r3, r7, #48	; 0x30
 8004306:	2228      	movs	r2, #40	; 0x28
 8004308:	2100      	movs	r1, #0
 800430a:	4618      	mov	r0, r3
 800430c:	f003 fc8a 	bl	8007c24 <memset>
 8004310:	f107 031c 	add.w	r3, r7, #28
 8004314:	2200      	movs	r2, #0
 8004316:	601a      	str	r2, [r3, #0]
 8004318:	605a      	str	r2, [r3, #4]
 800431a:	609a      	str	r2, [r3, #8]
 800431c:	60da      	str	r2, [r3, #12]
 800431e:	611a      	str	r2, [r3, #16]
 8004320:	1d3b      	adds	r3, r7, #4
 8004322:	2200      	movs	r2, #0
 8004324:	601a      	str	r2, [r3, #0]
 8004326:	605a      	str	r2, [r3, #4]
 8004328:	609a      	str	r2, [r3, #8]
 800432a:	60da      	str	r2, [r3, #12]
 800432c:	611a      	str	r2, [r3, #16]
 800432e:	615a      	str	r2, [r3, #20]
 8004330:	2305      	movs	r3, #5
 8004332:	633b      	str	r3, [r7, #48]	; 0x30
 8004334:	f44f 3380 	mov.w	r3, #65536	; 0x10000
 8004338:	637b      	str	r3, [r7, #52]	; 0x34
 800433a:	2300      	movs	r3, #0
 800433c:	63bb      	str	r3, [r7, #56]	; 0x38
 800433e:	2301      	movs	r3, #1
 8004340:	63fb      	str	r3, [r7, #60]	; 0x3c
 8004342:	2301      	movs	r3, #1
 8004344:	643b      	str	r3, [r7, #64]	; 0x40
 8004346:	2302      	movs	r3, #2
 8004348:	64fb      	str	r3, [r7, #76]	; 0x4c
 800434a:	f44f 3380 	mov.w	r3, #65536	; 0x10000
 800434e:	653b      	str	r3, [r7, #80]	; 0x50
 8004350:	f44f 13e0 	mov.w	r3, #1835008	; 0x1c0000
 8004354:	657b      	str	r3, [r7, #84]	; 0x54
 8004356:	f107 0330 	add.w	r3, r7, #48	; 0x30
 800435a:	4618      	mov	r0, r3
 800435c:	f001 f954 	bl	8005608 <HAL_RCC_OscConfig>
 8004360:	4603      	mov	r3, r0
 8004362:	2b00      	cmp	r3, #0
 8004364:	d001      	beq.n	800436a <SystemClock_Config+0x6e>
 8004366:	f000 f828 	bl	80043ba <Error_Handler>
 800436a:	230f      	movs	r3, #15
 800436c:	61fb      	str	r3, [r7, #28]
 800436e:	2302      	movs	r3, #2
 8004370:	623b      	str	r3, [r7, #32]
 8004372:	2300      	movs	r3, #0
 8004374:	627b      	str	r3, [r7, #36]	; 0x24
 8004376:	f44f 6380 	mov.w	r3, #1024	; 0x400
 800437a:	62bb      	str	r3, [r7, #40]	; 0x28
 800437c:	2300      	movs	r3, #0
 800437e:	62fb      	str	r3, [r7, #44]	; 0x2c
 8004380:	f107 031c 	add.w	r3, r7, #28
 8004384:	2102      	movs	r1, #2
 8004386:	4618      	mov	r0, r3
 8004388:	f001 fbc0 	bl	8005b0c <HAL_RCC_ClockConfig>
 800438c:	4603      	mov	r3, r0
 800438e:	2b00      	cmp	r3, #0
 8004390:	d001      	beq.n	8004396 <SystemClock_Config+0x9a>
 8004392:	f000 f812 	bl	80043ba <Error_Handler>
 8004396:	2301      	movs	r3, #1
 8004398:	607b      	str	r3, [r7, #4]
 800439a:	f44f 7380 	mov.w	r3, #256	; 0x100
 800439e:	60bb      	str	r3, [r7, #8]
 80043a0:	1d3b      	adds	r3, r7, #4
 80043a2:	4618      	mov	r0, r3
 80043a4:	f001 fd40 	bl	8005e28 <HAL_RCCEx_PeriphCLKConfig>
 80043a8:	4603      	mov	r3, r0
 80043aa:	2b00      	cmp	r3, #0
 80043ac:	d001      	beq.n	80043b2 <SystemClock_Config+0xb6>
 80043ae:	f000 f804 	bl	80043ba <Error_Handler>
 80043b2:	bf00      	nop
 80043b4:	3758      	adds	r7, #88	; 0x58
 80043b6:	46bd      	mov	sp, r7
 80043b8:	bd80      	pop	{r7, pc}

080043ba <Error_Handler>:
 80043ba:	b480      	push	{r7}
 80043bc:	af00      	add	r7, sp, #0
 80043be:	b672      	cpsid	i
 80043c0:	bf00      	nop
 80043c2:	e7fe      	b.n	80043c2 <Error_Handler+0x8>

080043c4 <MX_RTC_Init>:
 80043c4:	b580      	push	{r7, lr}
 80043c6:	af00      	add	r7, sp, #0
 80043c8:	4b12      	ldr	r3, [pc, #72]	; (8004414 <MX_RTC_Init+0x50>)
 80043ca:	4a13      	ldr	r2, [pc, #76]	; (8004418 <MX_RTC_Init+0x54>)
 80043cc:	601a      	str	r2, [r3, #0]
 80043ce:	4b11      	ldr	r3, [pc, #68]	; (8004414 <MX_RTC_Init+0x50>)
 80043d0:	f04f 32ff 	mov.w	r2, #4294967295
 80043d4:	605a      	str	r2, [r3, #4]
 80043d6:	4b0f      	ldr	r3, [pc, #60]	; (8004414 <MX_RTC_Init+0x50>)
 80043d8:	f44f 7280 	mov.w	r2, #256	; 0x100
 80043dc:	609a      	str	r2, [r3, #8]
 80043de:	480d      	ldr	r0, [pc, #52]	; (8004414 <MX_RTC_Init+0x50>)
 80043e0:	f001 feb0 	bl	8006144 <HAL_RTC_Init>
 80043e4:	4603      	mov	r3, r0
 80043e6:	2b00      	cmp	r3, #0
 80043e8:	d001      	beq.n	80043ee <MX_RTC_Init+0x2a>
 80043ea:	f7ff ffe6 	bl	80043ba <Error_Handler>
 80043ee:	4b09      	ldr	r3, [pc, #36]	; (8004414 <MX_RTC_Init+0x50>)
 80043f0:	681b      	ldr	r3, [r3, #0]
 80043f2:	681a      	ldr	r2, [r3, #0]
 80043f4:	4b07      	ldr	r3, [pc, #28]	; (8004414 <MX_RTC_Init+0x50>)
 80043f6:	681b      	ldr	r3, [r3, #0]
 80043f8:	f042 0201 	orr.w	r2, r2, #1
 80043fc:	601a      	str	r2, [r3, #0]
 80043fe:	4b05      	ldr	r3, [pc, #20]	; (8004414 <MX_RTC_Init+0x50>)
 8004400:	681b      	ldr	r3, [r3, #0]
 8004402:	681a      	ldr	r2, [r3, #0]
 8004404:	4b03      	ldr	r3, [pc, #12]	; (8004414 <MX_RTC_Init+0x50>)
 8004406:	681b      	ldr	r3, [r3, #0]
 8004408:	f042 0202 	orr.w	r2, r2, #2
 800440c:	601a      	str	r2, [r3, #0]
 800440e:	bf00      	nop
 8004410:	bd80      	pop	{r7, pc}
 8004412:	bf00      	nop
 8004414:	2000026c 	.word	0x2000026c
 8004418:	40002800 	.word	0x40002800

0800441c <HAL_RTC_MspInit>:
 800441c:	b580      	push	{r7, lr}
 800441e:	b084      	sub	sp, #16
 8004420:	af00      	add	r7, sp, #0
 8004422:	6078      	str	r0, [r7, #4]
 8004424:	687b      	ldr	r3, [r7, #4]
 8004426:	681b      	ldr	r3, [r3, #0]
 8004428:	4a13      	ldr	r2, [pc, #76]	; (8004478 <HAL_RTC_MspInit+0x5c>)
 800442a:	4293      	cmp	r3, r2
 800442c:	d120      	bne.n	8004470 <HAL_RTC_MspInit+0x54>
 800442e:	f001 f8df 	bl	80055f0 <HAL_PWR_EnableBkUpAccess>
 8004432:	4b12      	ldr	r3, [pc, #72]	; (800447c <HAL_RTC_MspInit+0x60>)
 8004434:	69db      	ldr	r3, [r3, #28]
 8004436:	4a11      	ldr	r2, [pc, #68]	; (800447c <HAL_RTC_MspInit+0x60>)
 8004438:	f043 6300 	orr.w	r3, r3, #134217728	; 0x8000000
 800443c:	61d3      	str	r3, [r2, #28]
 800443e:	4b0f      	ldr	r3, [pc, #60]	; (800447c <HAL_RTC_MspInit+0x60>)
 8004440:	69db      	ldr	r3, [r3, #28]
 8004442:	f003 6300 	and.w	r3, r3, #134217728	; 0x8000000
 8004446:	60fb      	str	r3, [r7, #12]
 8004448:	68fb      	ldr	r3, [r7, #12]
 800444a:	4b0d      	ldr	r3, [pc, #52]	; (8004480 <HAL_RTC_MspInit+0x64>)
 800444c:	2201      	movs	r2, #1
 800444e:	601a      	str	r2, [r3, #0]
 8004450:	2200      	movs	r2, #0
 8004452:	2100      	movs	r1, #0
 8004454:	2003      	movs	r0, #3
 8004456:	f000 fd8c 	bl	8004f72 <HAL_NVIC_SetPriority>
 800445a:	2003      	movs	r0, #3
 800445c:	f000 fda5 	bl	8004faa <HAL_NVIC_EnableIRQ>
 8004460:	2200      	movs	r2, #0
 8004462:	2100      	movs	r1, #0
 8004464:	2029      	movs	r0, #41	; 0x29
 8004466:	f000 fd84 	bl	8004f72 <HAL_NVIC_SetPriority>
 800446a:	2029      	movs	r0, #41	; 0x29
 800446c:	f000 fd9d 	bl	8004faa <HAL_NVIC_EnableIRQ>
 8004470:	bf00      	nop
 8004472:	3710      	adds	r7, #16
 8004474:	46bd      	mov	sp, r7
 8004476:	bd80      	pop	{r7, pc}
 8004478:	40002800 	.word	0x40002800
 800447c:	40021000 	.word	0x40021000
 8004480:	4242043c 	.word	0x4242043c

08004484 <rtc_is_leap_year>:
 8004484:	b480      	push	{r7}
 8004486:	b083      	sub	sp, #12
 8004488:	af00      	add	r7, sp, #0
 800448a:	4603      	mov	r3, r0
 800448c:	80fb      	strh	r3, [r7, #6]
 800448e:	88fb      	ldrh	r3, [r7, #6]
 8004490:	f003 0303 	and.w	r3, r3, #3
 8004494:	b29b      	uxth	r3, r3
 8004496:	2b00      	cmp	r3, #0
 8004498:	d10b      	bne.n	80044b2 <rtc_is_leap_year+0x2e>
 800449a:	88fb      	ldrh	r3, [r7, #6]
 800449c:	4a0f      	ldr	r2, [pc, #60]	; (80044dc <rtc_is_leap_year+0x58>)
 800449e:	fba2 1203 	umull	r1, r2, r2, r3
 80044a2:	0952      	lsrs	r2, r2, #5
 80044a4:	2164      	movs	r1, #100	; 0x64
 80044a6:	fb01 f202 	mul.w	r2, r1, r2
 80044aa:	1a9b      	subs	r3, r3, r2
 80044ac:	b29b      	uxth	r3, r3
 80044ae:	2b00      	cmp	r3, #0
 80044b0:	d10c      	bne.n	80044cc <rtc_is_leap_year+0x48>
 80044b2:	88fb      	ldrh	r3, [r7, #6]
 80044b4:	4a09      	ldr	r2, [pc, #36]	; (80044dc <rtc_is_leap_year+0x58>)
 80044b6:	fba2 1203 	umull	r1, r2, r2, r3
 80044ba:	09d2      	lsrs	r2, r2, #7
 80044bc:	f44f 71c8 	mov.w	r1, #400	; 0x190
 80044c0:	fb01 f202 	mul.w	r2, r1, r2
 80044c4:	1a9b      	subs	r3, r3, r2
 80044c6:	b29b      	uxth	r3, r3
 80044c8:	2b00      	cmp	r3, #0
 80044ca:	d101      	bne.n	80044d0 <rtc_is_leap_year+0x4c>
 80044cc:	2301      	movs	r3, #1
 80044ce:	e000      	b.n	80044d2 <rtc_is_leap_year+0x4e>
 80044d0:	2300      	movs	r3, #0
 80044d2:	4618      	mov	r0, r3
 80044d4:	370c      	adds	r7, #12
 80044d6:	46bd      	mov	sp, r7
 80044d8:	bc80      	pop	{r7}
 80044da:	4770      	bx	lr
 80044dc:	51eb851f 	.word	0x51eb851f

080044e0 <rtc_get_time>:
 80044e0:	b580      	push	{r7, lr}
 80044e2:	b086      	sub	sp, #24
 80044e4:	af00      	add	r7, sp, #0
 80044e6:	2300      	movs	r3, #0
 80044e8:	60fb      	str	r3, [r7, #12]
 80044ea:	2300      	movs	r3, #0
 80044ec:	617b      	str	r3, [r7, #20]
 80044ee:	2300      	movs	r3, #0
 80044f0:	827b      	strh	r3, [r7, #18]
 80044f2:	4a65      	ldr	r2, [pc, #404]	; (8004688 <rtc_get_time+0x1a8>)
 80044f4:	463b      	mov	r3, r7
 80044f6:	ca07      	ldmia	r2, {r0, r1, r2}
 80044f8:	e883 0007 	stmia.w	r3, {r0, r1, r2}
 80044fc:	4b63      	ldr	r3, [pc, #396]	; (800468c <rtc_get_time+0x1ac>)
 80044fe:	699b      	ldr	r3, [r3, #24]
 8004500:	60fb      	str	r3, [r7, #12]
 8004502:	68fb      	ldr	r3, [r7, #12]
 8004504:	041b      	lsls	r3, r3, #16
 8004506:	60fb      	str	r3, [r7, #12]
 8004508:	4b60      	ldr	r3, [pc, #384]	; (800468c <rtc_get_time+0x1ac>)
 800450a:	69db      	ldr	r3, [r3, #28]
 800450c:	68fa      	ldr	r2, [r7, #12]
 800450e:	4413      	add	r3, r2
 8004510:	60fb      	str	r3, [r7, #12]
 8004512:	68fb      	ldr	r3, [r7, #12]
 8004514:	4a5e      	ldr	r2, [pc, #376]	; (8004690 <rtc_get_time+0x1b0>)
 8004516:	fba2 2303 	umull	r2, r3, r2, r3
 800451a:	0c1b      	lsrs	r3, r3, #16
 800451c:	617b      	str	r3, [r7, #20]
 800451e:	4b5d      	ldr	r3, [pc, #372]	; (8004694 <rtc_get_time+0x1b4>)
 8004520:	881b      	ldrh	r3, [r3, #0]
 8004522:	461a      	mov	r2, r3
 8004524:	697b      	ldr	r3, [r7, #20]
 8004526:	4293      	cmp	r3, r2
 8004528:	d064      	beq.n	80045f4 <rtc_get_time+0x114>
 800452a:	697b      	ldr	r3, [r7, #20]
 800452c:	b29a      	uxth	r2, r3
 800452e:	4b59      	ldr	r3, [pc, #356]	; (8004694 <rtc_get_time+0x1b4>)
 8004530:	801a      	strh	r2, [r3, #0]
 8004532:	f240 73b2 	movw	r3, #1970	; 0x7b2
 8004536:	827b      	strh	r3, [r7, #18]
 8004538:	e016      	b.n	8004568 <rtc_get_time+0x88>
 800453a:	8a7b      	ldrh	r3, [r7, #18]
 800453c:	4618      	mov	r0, r3
 800453e:	f7ff ffa1 	bl	8004484 <rtc_is_leap_year>
 8004542:	4603      	mov	r3, r0
 8004544:	2b00      	cmp	r3, #0
 8004546:	d008      	beq.n	800455a <rtc_get_time+0x7a>
 8004548:	697b      	ldr	r3, [r7, #20]
 800454a:	f5b3 7fb7 	cmp.w	r3, #366	; 0x16e
 800454e:	d310      	bcc.n	8004572 <rtc_get_time+0x92>
 8004550:	697b      	ldr	r3, [r7, #20]
 8004552:	f5a3 73b7 	sub.w	r3, r3, #366	; 0x16e
 8004556:	617b      	str	r3, [r7, #20]
 8004558:	e003      	b.n	8004562 <rtc_get_time+0x82>
 800455a:	697b      	ldr	r3, [r7, #20]
 800455c:	f2a3 136d 	subw	r3, r3, #365	; 0x16d
 8004560:	617b      	str	r3, [r7, #20]
 8004562:	8a7b      	ldrh	r3, [r7, #18]
 8004564:	3301      	adds	r3, #1
 8004566:	827b      	strh	r3, [r7, #18]
 8004568:	697b      	ldr	r3, [r7, #20]
 800456a:	f5b3 7fb6 	cmp.w	r3, #364	; 0x16c
 800456e:	d8e4      	bhi.n	800453a <rtc_get_time+0x5a>
 8004570:	e000      	b.n	8004574 <rtc_get_time+0x94>
 8004572:	bf00      	nop
 8004574:	4a48      	ldr	r2, [pc, #288]	; (8004698 <rtc_get_time+0x1b8>)
 8004576:	8a7b      	ldrh	r3, [r7, #18]
 8004578:	8093      	strh	r3, [r2, #4]
 800457a:	2300      	movs	r3, #0
 800457c:	827b      	strh	r3, [r7, #18]
 800457e:	e026      	b.n	80045ce <rtc_get_time+0xee>
 8004580:	4b45      	ldr	r3, [pc, #276]	; (8004698 <rtc_get_time+0x1b8>)
 8004582:	889b      	ldrh	r3, [r3, #4]
 8004584:	4618      	mov	r0, r3
 8004586:	f7ff ff7d 	bl	8004484 <rtc_is_leap_year>
 800458a:	4603      	mov	r3, r0
 800458c:	2b00      	cmp	r3, #0
 800458e:	d009      	beq.n	80045a4 <rtc_get_time+0xc4>
 8004590:	8a7b      	ldrh	r3, [r7, #18]
 8004592:	2b01      	cmp	r3, #1
 8004594:	d106      	bne.n	80045a4 <rtc_get_time+0xc4>
 8004596:	697b      	ldr	r3, [r7, #20]
 8004598:	2b1c      	cmp	r3, #28
 800459a:	d91c      	bls.n	80045d6 <rtc_get_time+0xf6>
 800459c:	697b      	ldr	r3, [r7, #20]
 800459e:	3b1d      	subs	r3, #29
 80045a0:	617b      	str	r3, [r7, #20]
 80045a2:	e011      	b.n	80045c8 <rtc_get_time+0xe8>
 80045a4:	8a7b      	ldrh	r3, [r7, #18]
 80045a6:	3318      	adds	r3, #24
 80045a8:	443b      	add	r3, r7
 80045aa:	f813 3c18 	ldrb.w	r3, [r3, #-24]
 80045ae:	461a      	mov	r2, r3
 80045b0:	697b      	ldr	r3, [r7, #20]
 80045b2:	4293      	cmp	r3, r2
 80045b4:	d311      	bcc.n	80045da <rtc_get_time+0xfa>
 80045b6:	8a7b      	ldrh	r3, [r7, #18]
 80045b8:	3318      	adds	r3, #24
 80045ba:	443b      	add	r3, r7
 80045bc:	f813 3c18 	ldrb.w	r3, [r3, #-24]
 80045c0:	461a      	mov	r2, r3
 80045c2:	697b      	ldr	r3, [r7, #20]
 80045c4:	1a9b      	subs	r3, r3, r2
 80045c6:	617b      	str	r3, [r7, #20]
 80045c8:	8a7b      	ldrh	r3, [r7, #18]
 80045ca:	3301      	adds	r3, #1
 80045cc:	827b      	strh	r3, [r7, #18]
 80045ce:	697b      	ldr	r3, [r7, #20]
 80045d0:	2b1b      	cmp	r3, #27
 80045d2:	d8d5      	bhi.n	8004580 <rtc_get_time+0xa0>
 80045d4:	e002      	b.n	80045dc <rtc_get_time+0xfc>
 80045d6:	bf00      	nop
 80045d8:	e000      	b.n	80045dc <rtc_get_time+0xfc>
 80045da:	bf00      	nop
 80045dc:	8a7b      	ldrh	r3, [r7, #18]
 80045de:	b2db      	uxtb	r3, r3
 80045e0:	3301      	adds	r3, #1
 80045e2:	b2da      	uxtb	r2, r3
 80045e4:	4b2c      	ldr	r3, [pc, #176]	; (8004698 <rtc_get_time+0x1b8>)
 80045e6:	719a      	strb	r2, [r3, #6]
 80045e8:	697b      	ldr	r3, [r7, #20]
 80045ea:	b2db      	uxtb	r3, r3
 80045ec:	3301      	adds	r3, #1
 80045ee:	b2da      	uxtb	r2, r3
 80045f0:	4b29      	ldr	r3, [pc, #164]	; (8004698 <rtc_get_time+0x1b8>)
 80045f2:	71da      	strb	r2, [r3, #7]
 80045f4:	68fb      	ldr	r3, [r7, #12]
 80045f6:	4a26      	ldr	r2, [pc, #152]	; (8004690 <rtc_get_time+0x1b0>)
 80045f8:	fba2 1203 	umull	r1, r2, r2, r3
 80045fc:	0c12      	lsrs	r2, r2, #16
 80045fe:	4927      	ldr	r1, [pc, #156]	; (800469c <rtc_get_time+0x1bc>)
 8004600:	fb01 f202 	mul.w	r2, r1, r2
 8004604:	1a9b      	subs	r3, r3, r2
 8004606:	617b      	str	r3, [r7, #20]
 8004608:	697b      	ldr	r3, [r7, #20]
 800460a:	4a25      	ldr	r2, [pc, #148]	; (80046a0 <rtc_get_time+0x1c0>)
 800460c:	fba2 2303 	umull	r2, r3, r2, r3
 8004610:	0adb      	lsrs	r3, r3, #11
 8004612:	b2da      	uxtb	r2, r3
 8004614:	4b20      	ldr	r3, [pc, #128]	; (8004698 <rtc_get_time+0x1b8>)
 8004616:	701a      	strb	r2, [r3, #0]
 8004618:	697a      	ldr	r2, [r7, #20]
 800461a:	4b21      	ldr	r3, [pc, #132]	; (80046a0 <rtc_get_time+0x1c0>)
 800461c:	fba3 1302 	umull	r1, r3, r3, r2
 8004620:	0adb      	lsrs	r3, r3, #11
 8004622:	f44f 6161 	mov.w	r1, #3600	; 0xe10
 8004626:	fb01 f303 	mul.w	r3, r1, r3
 800462a:	1ad3      	subs	r3, r2, r3
 800462c:	4a1d      	ldr	r2, [pc, #116]	; (80046a4 <rtc_get_time+0x1c4>)
 800462e:	fba2 2303 	umull	r2, r3, r2, r3
 8004632:	095b      	lsrs	r3, r3, #5
 8004634:	b2da      	uxtb	r2, r3
 8004636:	4b18      	ldr	r3, [pc, #96]	; (8004698 <rtc_get_time+0x1b8>)
 8004638:	705a      	strb	r2, [r3, #1]
 800463a:	697b      	ldr	r3, [r7, #20]
 800463c:	4a18      	ldr	r2, [pc, #96]	; (80046a0 <rtc_get_time+0x1c0>)
 800463e:	fba2 1203 	umull	r1, r2, r2, r3
 8004642:	0ad2      	lsrs	r2, r2, #11
 8004644:	f44f 6161 	mov.w	r1, #3600	; 0xe10
 8004648:	fb01 f202 	mul.w	r2, r1, r2
 800464c:	1a9a      	subs	r2, r3, r2
 800464e:	4b15      	ldr	r3, [pc, #84]	; (80046a4 <rtc_get_time+0x1c4>)
 8004650:	fba3 1302 	umull	r1, r3, r3, r2
 8004654:	0959      	lsrs	r1, r3, #5
 8004656:	460b      	mov	r3, r1
 8004658:	011b      	lsls	r3, r3, #4
 800465a:	1a5b      	subs	r3, r3, r1
 800465c:	009b      	lsls	r3, r3, #2
 800465e:	1ad1      	subs	r1, r2, r3
 8004660:	b2ca      	uxtb	r2, r1
 8004662:	4b0d      	ldr	r3, [pc, #52]	; (8004698 <rtc_get_time+0x1b8>)
 8004664:	709a      	strb	r2, [r3, #2]
 8004666:	4b0c      	ldr	r3, [pc, #48]	; (8004698 <rtc_get_time+0x1b8>)
 8004668:	889b      	ldrh	r3, [r3, #4]
 800466a:	4a0b      	ldr	r2, [pc, #44]	; (8004698 <rtc_get_time+0x1b8>)
 800466c:	7991      	ldrb	r1, [r2, #6]
 800466e:	4a0a      	ldr	r2, [pc, #40]	; (8004698 <rtc_get_time+0x1b8>)
 8004670:	79d2      	ldrb	r2, [r2, #7]
 8004672:	4618      	mov	r0, r3
 8004674:	f000 f818 	bl	80046a8 <rtc_get_week>
 8004678:	4603      	mov	r3, r0
 800467a:	461a      	mov	r2, r3
 800467c:	4b06      	ldr	r3, [pc, #24]	; (8004698 <rtc_get_time+0x1b8>)
 800467e:	721a      	strb	r2, [r3, #8]
 8004680:	bf00      	nop
 8004682:	3718      	adds	r7, #24
 8004684:	46bd      	mov	sp, r7
 8004686:	bd80      	pop	{r7, pc}
 8004688:	0800c51c 	.word	0x0800c51c
 800468c:	40002800 	.word	0x40002800
 8004690:	c22e4507 	.word	0xc22e4507
 8004694:	20000280 	.word	0x20000280
 8004698:	20000260 	.word	0x20000260
 800469c:	00015180 	.word	0x00015180
 80046a0:	91a2b3c5 	.word	0x91a2b3c5
 80046a4:	88888889 	.word	0x88888889

080046a8 <rtc_get_week>:
 80046a8:	b480      	push	{r7}
 80046aa:	b085      	sub	sp, #20
 80046ac:	af00      	add	r7, sp, #0
 80046ae:	4603      	mov	r3, r0
 80046b0:	80fb      	strh	r3, [r7, #6]
 80046b2:	460b      	mov	r3, r1
 80046b4:	717b      	strb	r3, [r7, #5]
 80046b6:	4613      	mov	r3, r2
 80046b8:	713b      	strb	r3, [r7, #4]
 80046ba:	2300      	movs	r3, #0
 80046bc:	73fb      	strb	r3, [r7, #15]
 80046be:	797b      	ldrb	r3, [r7, #5]
 80046c0:	2b02      	cmp	r3, #2
 80046c2:	d805      	bhi.n	80046d0 <rtc_get_week+0x28>
 80046c4:	797b      	ldrb	r3, [r7, #5]
 80046c6:	330c      	adds	r3, #12
 80046c8:	717b      	strb	r3, [r7, #5]
 80046ca:	88fb      	ldrh	r3, [r7, #6]
 80046cc:	3b01      	subs	r3, #1
 80046ce:	80fb      	strh	r3, [r7, #6]
 80046d0:	793b      	ldrb	r3, [r7, #4]
 80046d2:	1c5a      	adds	r2, r3, #1
 80046d4:	797b      	ldrb	r3, [r7, #5]
 80046d6:	005b      	lsls	r3, r3, #1
 80046d8:	18d1      	adds	r1, r2, r3
 80046da:	797b      	ldrb	r3, [r7, #5]
 80046dc:	1c5a      	adds	r2, r3, #1
 80046de:	4613      	mov	r3, r2
 80046e0:	005b      	lsls	r3, r3, #1
 80046e2:	4413      	add	r3, r2
 80046e4:	4a16      	ldr	r2, [pc, #88]	; (8004740 <rtc_get_week+0x98>)
 80046e6:	fb82 0203 	smull	r0, r2, r2, r3
 80046ea:	1052      	asrs	r2, r2, #1
 80046ec:	17db      	asrs	r3, r3, #31
 80046ee:	1ad3      	subs	r3, r2, r3
 80046f0:	18ca      	adds	r2, r1, r3
 80046f2:	88fb      	ldrh	r3, [r7, #6]
 80046f4:	4413      	add	r3, r2
 80046f6:	88fa      	ldrh	r2, [r7, #6]
 80046f8:	0892      	lsrs	r2, r2, #2
 80046fa:	b292      	uxth	r2, r2
 80046fc:	4413      	add	r3, r2
 80046fe:	88fa      	ldrh	r2, [r7, #6]
 8004700:	4910      	ldr	r1, [pc, #64]	; (8004744 <rtc_get_week+0x9c>)
 8004702:	fba1 1202 	umull	r1, r2, r1, r2
 8004706:	0952      	lsrs	r2, r2, #5
 8004708:	b292      	uxth	r2, r2
 800470a:	1a9b      	subs	r3, r3, r2
 800470c:	88fa      	ldrh	r2, [r7, #6]
 800470e:	490d      	ldr	r1, [pc, #52]	; (8004744 <rtc_get_week+0x9c>)
 8004710:	fba1 1202 	umull	r1, r2, r1, r2
 8004714:	09d2      	lsrs	r2, r2, #7
 8004716:	b292      	uxth	r2, r2
 8004718:	441a      	add	r2, r3
 800471a:	4b0b      	ldr	r3, [pc, #44]	; (8004748 <rtc_get_week+0xa0>)
 800471c:	fb83 1302 	smull	r1, r3, r3, r2
 8004720:	4413      	add	r3, r2
 8004722:	1099      	asrs	r1, r3, #2
 8004724:	17d3      	asrs	r3, r2, #31
 8004726:	1ac9      	subs	r1, r1, r3
 8004728:	460b      	mov	r3, r1
 800472a:	00db      	lsls	r3, r3, #3
 800472c:	1a5b      	subs	r3, r3, r1
 800472e:	1ad1      	subs	r1, r2, r3
 8004730:	460b      	mov	r3, r1
 8004732:	73fb      	strb	r3, [r7, #15]
 8004734:	7bfb      	ldrb	r3, [r7, #15]
 8004736:	4618      	mov	r0, r3
 8004738:	3714      	adds	r7, #20
 800473a:	46bd      	mov	sp, r7
 800473c:	bc80      	pop	{r7}
 800473e:	4770      	bx	lr
 8004740:	66666667 	.word	0x66666667
 8004744:	51eb851f 	.word	0x51eb851f
 8004748:	92492493 	.word	0x92492493

0800474c <HAL_RTCEx_RTCEventCallback>:
 800474c:	b580      	push	{r7, lr}
 800474e:	b08a      	sub	sp, #40	; 0x28
 8004750:	af02      	add	r7, sp, #8
 8004752:	6078      	str	r0, [r7, #4]
 8004754:	2300      	movs	r3, #0
 8004756:	60fb      	str	r3, [r7, #12]
 8004758:	f107 0310 	add.w	r3, r7, #16
 800475c:	2200      	movs	r2, #0
 800475e:	601a      	str	r2, [r3, #0]
 8004760:	605a      	str	r2, [r3, #4]
 8004762:	609a      	str	r2, [r3, #8]
 8004764:	60da      	str	r2, [r3, #12]
 8004766:	f7ff febb 	bl	80044e0 <rtc_get_time>
 800476a:	4b0f      	ldr	r3, [pc, #60]	; (80047a8 <HAL_RTCEx_RTCEventCallback+0x5c>)
 800476c:	781b      	ldrb	r3, [r3, #0]
 800476e:	461a      	mov	r2, r3
 8004770:	4b0d      	ldr	r3, [pc, #52]	; (80047a8 <HAL_RTCEx_RTCEventCallback+0x5c>)
 8004772:	785b      	ldrb	r3, [r3, #1]
 8004774:	4619      	mov	r1, r3
 8004776:	4b0c      	ldr	r3, [pc, #48]	; (80047a8 <HAL_RTCEx_RTCEventCallback+0x5c>)
 8004778:	789b      	ldrb	r3, [r3, #2]
 800477a:	f107 000c 	add.w	r0, r7, #12
 800477e:	9300      	str	r3, [sp, #0]
 8004780:	460b      	mov	r3, r1
 8004782:	490a      	ldr	r1, [pc, #40]	; (80047ac <HAL_RTCEx_RTCEventCallback+0x60>)
 8004784:	f004 f8c8 	bl	8008918 <siprintf>
 8004788:	f107 030c 	add.w	r3, r7, #12
 800478c:	9301      	str	r3, [sp, #4]
 800478e:	230c      	movs	r3, #12
 8004790:	9300      	str	r3, [sp, #0]
 8004792:	230c      	movs	r3, #12
 8004794:	22c8      	movs	r2, #200	; 0xc8
 8004796:	2196      	movs	r1, #150	; 0x96
 8004798:	201e      	movs	r0, #30
 800479a:	f7ff fb01 	bl	8003da0 <LCD_ShowString>
 800479e:	bf00      	nop
 80047a0:	3720      	adds	r7, #32
 80047a2:	46bd      	mov	sp, r7
 80047a4:	bd80      	pop	{r7, pc}
 80047a6:	bf00      	nop
 80047a8:	20000260 	.word	0x20000260
 80047ac:	0800c528 	.word	0x0800c528

080047b0 <HAL_RTC_AlarmAEventCallback>:
 80047b0:	b580      	push	{r7, lr}
 80047b2:	b084      	sub	sp, #16
 80047b4:	af02      	add	r7, sp, #8
 80047b6:	6078      	str	r0, [r7, #4]
 80047b8:	2120      	movs	r1, #32
 80047ba:	4808      	ldr	r0, [pc, #32]	; (80047dc <HAL_RTC_AlarmAEventCallback+0x2c>)
 80047bc:	f000 fefe 	bl	80055bc <HAL_GPIO_TogglePin>
 80047c0:	4b07      	ldr	r3, [pc, #28]	; (80047e0 <HAL_RTC_AlarmAEventCallback+0x30>)
 80047c2:	9301      	str	r3, [sp, #4]
 80047c4:	230c      	movs	r3, #12
 80047c6:	9300      	str	r3, [sp, #0]
 80047c8:	230c      	movs	r3, #12
 80047ca:	22c8      	movs	r2, #200	; 0xc8
 80047cc:	21aa      	movs	r1, #170	; 0xaa
 80047ce:	201e      	movs	r0, #30
 80047d0:	f7ff fae6 	bl	8003da0 <LCD_ShowString>
 80047d4:	bf00      	nop
 80047d6:	3708      	adds	r7, #8
 80047d8:	46bd      	mov	sp, r7
 80047da:	bd80      	pop	{r7, pc}
 80047dc:	40011800 	.word	0x40011800
 80047e0:	0800c540 	.word	0x0800c540

080047e4 <MX_SPI2_Init>:
 80047e4:	b580      	push	{r7, lr}
 80047e6:	af00      	add	r7, sp, #0
 80047e8:	4b17      	ldr	r3, [pc, #92]	; (8004848 <MX_SPI2_Init+0x64>)
 80047ea:	4a18      	ldr	r2, [pc, #96]	; (800484c <MX_SPI2_Init+0x68>)
 80047ec:	601a      	str	r2, [r3, #0]
 80047ee:	4b16      	ldr	r3, [pc, #88]	; (8004848 <MX_SPI2_Init+0x64>)
 80047f0:	f44f 7282 	mov.w	r2, #260	; 0x104
 80047f4:	605a      	str	r2, [r3, #4]
 80047f6:	4b14      	ldr	r3, [pc, #80]	; (8004848 <MX_SPI2_Init+0x64>)
 80047f8:	2200      	movs	r2, #0
 80047fa:	609a      	str	r2, [r3, #8]
 80047fc:	4b12      	ldr	r3, [pc, #72]	; (8004848 <MX_SPI2_Init+0x64>)
 80047fe:	2200      	movs	r2, #0
 8004800:	60da      	str	r2, [r3, #12]
 8004802:	4b11      	ldr	r3, [pc, #68]	; (8004848 <MX_SPI2_Init+0x64>)
 8004804:	2202      	movs	r2, #2
 8004806:	611a      	str	r2, [r3, #16]
 8004808:	4b0f      	ldr	r3, [pc, #60]	; (8004848 <MX_SPI2_Init+0x64>)
 800480a:	2201      	movs	r2, #1
 800480c:	615a      	str	r2, [r3, #20]
 800480e:	4b0e      	ldr	r3, [pc, #56]	; (8004848 <MX_SPI2_Init+0x64>)
 8004810:	f44f 7200 	mov.w	r2, #512	; 0x200
 8004814:	619a      	str	r2, [r3, #24]
 8004816:	4b0c      	ldr	r3, [pc, #48]	; (8004848 <MX_SPI2_Init+0x64>)
 8004818:	2210      	movs	r2, #16
 800481a:	61da      	str	r2, [r3, #28]
 800481c:	4b0a      	ldr	r3, [pc, #40]	; (8004848 <MX_SPI2_Init+0x64>)
 800481e:	2200      	movs	r2, #0
 8004820:	621a      	str	r2, [r3, #32]
 8004822:	4b09      	ldr	r3, [pc, #36]	; (8004848 <MX_SPI2_Init+0x64>)
 8004824:	2200      	movs	r2, #0
 8004826:	625a      	str	r2, [r3, #36]	; 0x24
 8004828:	4b07      	ldr	r3, [pc, #28]	; (8004848 <MX_SPI2_Init+0x64>)
 800482a:	2200      	movs	r2, #0
 800482c:	629a      	str	r2, [r3, #40]	; 0x28
 800482e:	4b06      	ldr	r3, [pc, #24]	; (8004848 <MX_SPI2_Init+0x64>)
 8004830:	220a      	movs	r2, #10
 8004832:	62da      	str	r2, [r3, #44]	; 0x2c
 8004834:	4804      	ldr	r0, [pc, #16]	; (8004848 <MX_SPI2_Init+0x64>)
 8004836:	f002 fa01 	bl	8006c3c <HAL_SPI_Init>
 800483a:	4603      	mov	r3, r0
 800483c:	2b00      	cmp	r3, #0
 800483e:	d001      	beq.n	8004844 <MX_SPI2_Init+0x60>
 8004840:	f7ff fdbb 	bl	80043ba <Error_Handler>
 8004844:	bf00      	nop
 8004846:	bd80      	pop	{r7, pc}
 8004848:	20000284 	.word	0x20000284
 800484c:	40003800 	.word	0x40003800

08004850 <HAL_SPI_MspInit>:
 8004850:	b580      	push	{r7, lr}
 8004852:	b088      	sub	sp, #32
 8004854:	af00      	add	r7, sp, #0
 8004856:	6078      	str	r0, [r7, #4]
 8004858:	f107 0310 	add.w	r3, r7, #16
 800485c:	2200      	movs	r2, #0
 800485e:	601a      	str	r2, [r3, #0]
 8004860:	605a      	str	r2, [r3, #4]
 8004862:	609a      	str	r2, [r3, #8]
 8004864:	60da      	str	r2, [r3, #12]
 8004866:	687b      	ldr	r3, [r7, #4]
 8004868:	681b      	ldr	r3, [r3, #0]
 800486a:	4a1c      	ldr	r2, [pc, #112]	; (80048dc <HAL_SPI_MspInit+0x8c>)
 800486c:	4293      	cmp	r3, r2
 800486e:	d131      	bne.n	80048d4 <HAL_SPI_MspInit+0x84>
 8004870:	4b1b      	ldr	r3, [pc, #108]	; (80048e0 <HAL_SPI_MspInit+0x90>)
 8004872:	69db      	ldr	r3, [r3, #28]
 8004874:	4a1a      	ldr	r2, [pc, #104]	; (80048e0 <HAL_SPI_MspInit+0x90>)
 8004876:	f443 4380 	orr.w	r3, r3, #16384	; 0x4000
 800487a:	61d3      	str	r3, [r2, #28]
 800487c:	4b18      	ldr	r3, [pc, #96]	; (80048e0 <HAL_SPI_MspInit+0x90>)
 800487e:	69db      	ldr	r3, [r3, #28]
 8004880:	f403 4380 	and.w	r3, r3, #16384	; 0x4000
 8004884:	60fb      	str	r3, [r7, #12]
 8004886:	68fb      	ldr	r3, [r7, #12]
 8004888:	4b15      	ldr	r3, [pc, #84]	; (80048e0 <HAL_SPI_MspInit+0x90>)
 800488a:	699b      	ldr	r3, [r3, #24]
 800488c:	4a14      	ldr	r2, [pc, #80]	; (80048e0 <HAL_SPI_MspInit+0x90>)
 800488e:	f043 0308 	orr.w	r3, r3, #8
 8004892:	6193      	str	r3, [r2, #24]
 8004894:	4b12      	ldr	r3, [pc, #72]	; (80048e0 <HAL_SPI_MspInit+0x90>)
 8004896:	699b      	ldr	r3, [r3, #24]
 8004898:	f003 0308 	and.w	r3, r3, #8
 800489c:	60bb      	str	r3, [r7, #8]
 800489e:	68bb      	ldr	r3, [r7, #8]
 80048a0:	f44f 4320 	mov.w	r3, #40960	; 0xa000
 80048a4:	613b      	str	r3, [r7, #16]
 80048a6:	2302      	movs	r3, #2
 80048a8:	617b      	str	r3, [r7, #20]
 80048aa:	2303      	movs	r3, #3
 80048ac:	61fb      	str	r3, [r7, #28]
 80048ae:	f107 0310 	add.w	r3, r7, #16
 80048b2:	4619      	mov	r1, r3
 80048b4:	480b      	ldr	r0, [pc, #44]	; (80048e4 <HAL_SPI_MspInit+0x94>)
 80048b6:	f000 fcd5 	bl	8005264 <HAL_GPIO_Init>
 80048ba:	f44f 4380 	mov.w	r3, #16384	; 0x4000
 80048be:	613b      	str	r3, [r7, #16]
 80048c0:	2300      	movs	r3, #0
 80048c2:	617b      	str	r3, [r7, #20]
 80048c4:	2300      	movs	r3, #0
 80048c6:	61bb      	str	r3, [r7, #24]
 80048c8:	f107 0310 	add.w	r3, r7, #16
 80048cc:	4619      	mov	r1, r3
 80048ce:	4805      	ldr	r0, [pc, #20]	; (80048e4 <HAL_SPI_MspInit+0x94>)
 80048d0:	f000 fcc8 	bl	8005264 <HAL_GPIO_Init>
 80048d4:	bf00      	nop
 80048d6:	3720      	adds	r7, #32
 80048d8:	46bd      	mov	sp, r7
 80048da:	bd80      	pop	{r7, pc}
 80048dc:	40003800 	.word	0x40003800
 80048e0:	40021000 	.word	0x40021000
 80048e4:	40010c00 	.word	0x40010c00

080048e8 <HAL_MspInit>:
 80048e8:	b480      	push	{r7}
 80048ea:	b083      	sub	sp, #12
 80048ec:	af00      	add	r7, sp, #0
 80048ee:	4b0e      	ldr	r3, [pc, #56]	; (8004928 <HAL_MspInit+0x40>)
 80048f0:	699b      	ldr	r3, [r3, #24]
 80048f2:	4a0d      	ldr	r2, [pc, #52]	; (8004928 <HAL_MspInit+0x40>)
 80048f4:	f043 0301 	orr.w	r3, r3, #1
 80048f8:	6193      	str	r3, [r2, #24]
 80048fa:	4b0b      	ldr	r3, [pc, #44]	; (8004928 <HAL_MspInit+0x40>)
 80048fc:	699b      	ldr	r3, [r3, #24]
 80048fe:	f003 0301 	and.w	r3, r3, #1
 8004902:	607b      	str	r3, [r7, #4]
 8004904:	687b      	ldr	r3, [r7, #4]
 8004906:	4b08      	ldr	r3, [pc, #32]	; (8004928 <HAL_MspInit+0x40>)
 8004908:	69db      	ldr	r3, [r3, #28]
 800490a:	4a07      	ldr	r2, [pc, #28]	; (8004928 <HAL_MspInit+0x40>)
 800490c:	f043 5380 	orr.w	r3, r3, #268435456	; 0x10000000
 8004910:	61d3      	str	r3, [r2, #28]
 8004912:	4b05      	ldr	r3, [pc, #20]	; (8004928 <HAL_MspInit+0x40>)
 8004914:	69db      	ldr	r3, [r3, #28]
 8004916:	f003 5380 	and.w	r3, r3, #268435456	; 0x10000000
 800491a:	603b      	str	r3, [r7, #0]
 800491c:	683b      	ldr	r3, [r7, #0]
 800491e:	bf00      	nop
 8004920:	370c      	adds	r7, #12
 8004922:	46bd      	mov	sp, r7
 8004924:	bc80      	pop	{r7}
 8004926:	4770      	bx	lr
 8004928:	40021000 	.word	0x40021000

0800492c <NMI_Handler>:
 800492c:	b480      	push	{r7}
 800492e:	af00      	add	r7, sp, #0
 8004930:	e7fe      	b.n	8004930 <NMI_Handler+0x4>

08004932 <HardFault_Handler>:
 8004932:	b480      	push	{r7}
 8004934:	af00      	add	r7, sp, #0
 8004936:	e7fe      	b.n	8004936 <HardFault_Handler+0x4>

08004938 <MemManage_Handler>:
 8004938:	b480      	push	{r7}
 800493a:	af00      	add	r7, sp, #0
 800493c:	e7fe      	b.n	800493c <MemManage_Handler+0x4>

0800493e <BusFault_Handler>:
 800493e:	b480      	push	{r7}
 8004940:	af00      	add	r7, sp, #0
 8004942:	e7fe      	b.n	8004942 <BusFault_Handler+0x4>

08004944 <UsageFault_Handler>:
 8004944:	b480      	push	{r7}
 8004946:	af00      	add	r7, sp, #0
 8004948:	e7fe      	b.n	8004948 <UsageFault_Handler+0x4>

0800494a <SVC_Handler>:
 800494a:	b480      	push	{r7}
 800494c:	af00      	add	r7, sp, #0
 800494e:	bf00      	nop
 8004950:	46bd      	mov	sp, r7
 8004952:	bc80      	pop	{r7}
 8004954:	4770      	bx	lr

08004956 <DebugMon_Handler>:
 8004956:	b480      	push	{r7}
 8004958:	af00      	add	r7, sp, #0
 800495a:	bf00      	nop
 800495c:	46bd      	mov	sp, r7
 800495e:	bc80      	pop	{r7}
 8004960:	4770      	bx	lr

08004962 <PendSV_Handler>:
 8004962:	b480      	push	{r7}
 8004964:	af00      	add	r7, sp, #0
 8004966:	bf00      	nop
 8004968:	46bd      	mov	sp, r7
 800496a:	bc80      	pop	{r7}
 800496c:	4770      	bx	lr

0800496e <SysTick_Handler>:
 800496e:	b580      	push	{r7, lr}
 8004970:	af00      	add	r7, sp, #0
 8004972:	f000 f9e7 	bl	8004d44 <HAL_IncTick>
 8004976:	bf00      	nop
 8004978:	bd80      	pop	{r7, pc}
	...

0800497c <RTC_IRQHandler>:
 800497c:	b580      	push	{r7, lr}
 800497e:	af00      	add	r7, sp, #0
 8004980:	4802      	ldr	r0, [pc, #8]	; (800498c <RTC_IRQHandler+0x10>)
 8004982:	f002 f91b 	bl	8006bbc <HAL_RTCEx_RTCIRQHandler>
 8004986:	bf00      	nop
 8004988:	bd80      	pop	{r7, pc}
 800498a:	bf00      	nop
 800498c:	2000026c 	.word	0x2000026c

08004990 <USART1_IRQHandler>:
 8004990:	b580      	push	{r7, lr}
 8004992:	af00      	add	r7, sp, #0
 8004994:	4802      	ldr	r0, [pc, #8]	; (80049a0 <USART1_IRQHandler+0x10>)
 8004996:	f002 faf5 	bl	8006f84 <HAL_UART_IRQHandler>
 800499a:	bf00      	nop
 800499c:	bd80      	pop	{r7, pc}
 800499e:	bf00      	nop
 80049a0:	200002e0 	.word	0x200002e0

080049a4 <RTC_Alarm_IRQHandler>:
 80049a4:	b580      	push	{r7, lr}
 80049a6:	af00      	add	r7, sp, #0
 80049a8:	4802      	ldr	r0, [pc, #8]	; (80049b4 <RTC_Alarm_IRQHandler+0x10>)
 80049aa:	f001 fe3b 	bl	8006624 <HAL_RTC_AlarmIRQHandler>
 80049ae:	bf00      	nop
 80049b0:	bd80      	pop	{r7, pc}
 80049b2:	bf00      	nop
 80049b4:	2000026c 	.word	0x2000026c

080049b8 <_getpid>:
 80049b8:	b480      	push	{r7}
 80049ba:	af00      	add	r7, sp, #0
 80049bc:	2301      	movs	r3, #1
 80049be:	4618      	mov	r0, r3
 80049c0:	46bd      	mov	sp, r7
 80049c2:	bc80      	pop	{r7}
 80049c4:	4770      	bx	lr

080049c6 <_kill>:
 80049c6:	b580      	push	{r7, lr}
 80049c8:	b082      	sub	sp, #8
 80049ca:	af00      	add	r7, sp, #0
 80049cc:	6078      	str	r0, [r7, #4]
 80049ce:	6039      	str	r1, [r7, #0]
 80049d0:	f003 f8fe 	bl	8007bd0 <__errno>
 80049d4:	4603      	mov	r3, r0
 80049d6:	2216      	movs	r2, #22
 80049d8:	601a      	str	r2, [r3, #0]
 80049da:	f04f 33ff 	mov.w	r3, #4294967295
 80049de:	4618      	mov	r0, r3
 80049e0:	3708      	adds	r7, #8
 80049e2:	46bd      	mov	sp, r7
 80049e4:	bd80      	pop	{r7, pc}

080049e6 <_exit>:
 80049e6:	b580      	push	{r7, lr}
 80049e8:	b082      	sub	sp, #8
 80049ea:	af00      	add	r7, sp, #0
 80049ec:	6078      	str	r0, [r7, #4]
 80049ee:	f04f 31ff 	mov.w	r1, #4294967295
 80049f2:	6878      	ldr	r0, [r7, #4]
 80049f4:	f7ff ffe7 	bl	80049c6 <_kill>
 80049f8:	e7fe      	b.n	80049f8 <_exit+0x12>

080049fa <_read>:
 80049fa:	b580      	push	{r7, lr}
 80049fc:	b086      	sub	sp, #24
 80049fe:	af00      	add	r7, sp, #0
 8004a00:	60f8      	str	r0, [r7, #12]
 8004a02:	60b9      	str	r1, [r7, #8]
 8004a04:	607a      	str	r2, [r7, #4]
 8004a06:	2300      	movs	r3, #0
 8004a08:	617b      	str	r3, [r7, #20]
 8004a0a:	e00a      	b.n	8004a22 <_read+0x28>
 8004a0c:	f3af 8000 	nop.w
 8004a10:	4601      	mov	r1, r0
 8004a12:	68bb      	ldr	r3, [r7, #8]
 8004a14:	1c5a      	adds	r2, r3, #1
 8004a16:	60ba      	str	r2, [r7, #8]
 8004a18:	b2ca      	uxtb	r2, r1
 8004a1a:	701a      	strb	r2, [r3, #0]
 8004a1c:	697b      	ldr	r3, [r7, #20]
 8004a1e:	3301      	adds	r3, #1
 8004a20:	617b      	str	r3, [r7, #20]
 8004a22:	697a      	ldr	r2, [r7, #20]
 8004a24:	687b      	ldr	r3, [r7, #4]
 8004a26:	429a      	cmp	r2, r3
 8004a28:	dbf0      	blt.n	8004a0c <_read+0x12>
 8004a2a:	687b      	ldr	r3, [r7, #4]
 8004a2c:	4618      	mov	r0, r3
 8004a2e:	3718      	adds	r7, #24
 8004a30:	46bd      	mov	sp, r7
 8004a32:	bd80      	pop	{r7, pc}

08004a34 <_write>:
 8004a34:	b580      	push	{r7, lr}
 8004a36:	b086      	sub	sp, #24
 8004a38:	af00      	add	r7, sp, #0
 8004a3a:	60f8      	str	r0, [r7, #12]
 8004a3c:	60b9      	str	r1, [r7, #8]
 8004a3e:	607a      	str	r2, [r7, #4]
 8004a40:	2300      	movs	r3, #0
 8004a42:	617b      	str	r3, [r7, #20]
 8004a44:	e009      	b.n	8004a5a <_write+0x26>
 8004a46:	68bb      	ldr	r3, [r7, #8]
 8004a48:	1c5a      	adds	r2, r3, #1
 8004a4a:	60ba      	str	r2, [r7, #8]
 8004a4c:	781b      	ldrb	r3, [r3, #0]
 8004a4e:	4618      	mov	r0, r3
 8004a50:	f000 f8f6 	bl	8004c40 <__io_putchar>
 8004a54:	697b      	ldr	r3, [r7, #20]
 8004a56:	3301      	adds	r3, #1
 8004a58:	617b      	str	r3, [r7, #20]
 8004a5a:	697a      	ldr	r2, [r7, #20]
 8004a5c:	687b      	ldr	r3, [r7, #4]
 8004a5e:	429a      	cmp	r2, r3
 8004a60:	dbf1      	blt.n	8004a46 <_write+0x12>
 8004a62:	687b      	ldr	r3, [r7, #4]
 8004a64:	4618      	mov	r0, r3
 8004a66:	3718      	adds	r7, #24
 8004a68:	46bd      	mov	sp, r7
 8004a6a:	bd80      	pop	{r7, pc}

08004a6c <_close>:
 8004a6c:	b480      	push	{r7}
 8004a6e:	b083      	sub	sp, #12
 8004a70:	af00      	add	r7, sp, #0
 8004a72:	6078      	str	r0, [r7, #4]
 8004a74:	f04f 33ff 	mov.w	r3, #4294967295
 8004a78:	4618      	mov	r0, r3
 8004a7a:	370c      	adds	r7, #12
 8004a7c:	46bd      	mov	sp, r7
 8004a7e:	bc80      	pop	{r7}
 8004a80:	4770      	bx	lr

08004a82 <_fstat>:
 8004a82:	b480      	push	{r7}
 8004a84:	b083      	sub	sp, #12
 8004a86:	af00      	add	r7, sp, #0
 8004a88:	6078      	str	r0, [r7, #4]
 8004a8a:	6039      	str	r1, [r7, #0]
 8004a8c:	683b      	ldr	r3, [r7, #0]
 8004a8e:	f44f 5200 	mov.w	r2, #8192	; 0x2000
 8004a92:	605a      	str	r2, [r3, #4]
 8004a94:	2300      	movs	r3, #0
 8004a96:	4618      	mov	r0, r3
 8004a98:	370c      	adds	r7, #12
 8004a9a:	46bd      	mov	sp, r7
 8004a9c:	bc80      	pop	{r7}
 8004a9e:	4770      	bx	lr

08004aa0 <_isatty>:
 8004aa0:	b480      	push	{r7}
 8004aa2:	b083      	sub	sp, #12
 8004aa4:	af00      	add	r7, sp, #0
 8004aa6:	6078      	str	r0, [r7, #4]
 8004aa8:	2301      	movs	r3, #1
 8004aaa:	4618      	mov	r0, r3
 8004aac:	370c      	adds	r7, #12
 8004aae:	46bd      	mov	sp, r7
 8004ab0:	bc80      	pop	{r7}
 8004ab2:	4770      	bx	lr

08004ab4 <_lseek>:
 8004ab4:	b480      	push	{r7}
 8004ab6:	b085      	sub	sp, #20
 8004ab8:	af00      	add	r7, sp, #0
 8004aba:	60f8      	str	r0, [r7, #12]
 8004abc:	60b9      	str	r1, [r7, #8]
 8004abe:	607a      	str	r2, [r7, #4]
 8004ac0:	2300      	movs	r3, #0
 8004ac2:	4618      	mov	r0, r3
 8004ac4:	3714      	adds	r7, #20
 8004ac6:	46bd      	mov	sp, r7
 8004ac8:	bc80      	pop	{r7}
 8004aca:	4770      	bx	lr

08004acc <_sbrk>:
 8004acc:	b580      	push	{r7, lr}
 8004ace:	b086      	sub	sp, #24
 8004ad0:	af00      	add	r7, sp, #0
 8004ad2:	6078      	str	r0, [r7, #4]
 8004ad4:	4a14      	ldr	r2, [pc, #80]	; (8004b28 <_sbrk+0x5c>)
 8004ad6:	4b15      	ldr	r3, [pc, #84]	; (8004b2c <_sbrk+0x60>)
 8004ad8:	1ad3      	subs	r3, r2, r3
 8004ada:	617b      	str	r3, [r7, #20]
 8004adc:	697b      	ldr	r3, [r7, #20]
 8004ade:	613b      	str	r3, [r7, #16]
 8004ae0:	4b13      	ldr	r3, [pc, #76]	; (8004b30 <_sbrk+0x64>)
 8004ae2:	681b      	ldr	r3, [r3, #0]
 8004ae4:	2b00      	cmp	r3, #0
 8004ae6:	d102      	bne.n	8004aee <_sbrk+0x22>
 8004ae8:	4b11      	ldr	r3, [pc, #68]	; (8004b30 <_sbrk+0x64>)
 8004aea:	4a12      	ldr	r2, [pc, #72]	; (8004b34 <_sbrk+0x68>)
 8004aec:	601a      	str	r2, [r3, #0]
 8004aee:	4b10      	ldr	r3, [pc, #64]	; (8004b30 <_sbrk+0x64>)
 8004af0:	681a      	ldr	r2, [r3, #0]
 8004af2:	687b      	ldr	r3, [r7, #4]
 8004af4:	4413      	add	r3, r2
 8004af6:	693a      	ldr	r2, [r7, #16]
 8004af8:	429a      	cmp	r2, r3
 8004afa:	d207      	bcs.n	8004b0c <_sbrk+0x40>
 8004afc:	f003 f868 	bl	8007bd0 <__errno>
 8004b00:	4603      	mov	r3, r0
 8004b02:	220c      	movs	r2, #12
 8004b04:	601a      	str	r2, [r3, #0]
 8004b06:	f04f 33ff 	mov.w	r3, #4294967295
 8004b0a:	e009      	b.n	8004b20 <_sbrk+0x54>
 8004b0c:	4b08      	ldr	r3, [pc, #32]	; (8004b30 <_sbrk+0x64>)
 8004b0e:	681b      	ldr	r3, [r3, #0]
 8004b10:	60fb      	str	r3, [r7, #12]
 8004b12:	4b07      	ldr	r3, [pc, #28]	; (8004b30 <_sbrk+0x64>)
 8004b14:	681a      	ldr	r2, [r3, #0]
 8004b16:	687b      	ldr	r3, [r7, #4]
 8004b18:	4413      	add	r3, r2
 8004b1a:	4a05      	ldr	r2, [pc, #20]	; (8004b30 <_sbrk+0x64>)
 8004b1c:	6013      	str	r3, [r2, #0]
 8004b1e:	68fb      	ldr	r3, [r7, #12]
 8004b20:	4618      	mov	r0, r3
 8004b22:	3718      	adds	r7, #24
 8004b24:	46bd      	mov	sp, r7
 8004b26:	bd80      	pop	{r7, pc}
 8004b28:	20010000 	.word	0x20010000
 8004b2c:	00000400 	.word	0x00000400
 8004b30:	200002dc 	.word	0x200002dc
 8004b34:	20000340 	.word	0x20000340

08004b38 <SystemInit>:
 8004b38:	b480      	push	{r7}
 8004b3a:	af00      	add	r7, sp, #0
 8004b3c:	bf00      	nop
 8004b3e:	46bd      	mov	sp, r7
 8004b40:	bc80      	pop	{r7}
 8004b42:	4770      	bx	lr

08004b44 <MX_USART1_UART_Init>:
 8004b44:	b580      	push	{r7, lr}
 8004b46:	af00      	add	r7, sp, #0
 8004b48:	4b11      	ldr	r3, [pc, #68]	; (8004b90 <MX_USART1_UART_Init+0x4c>)
 8004b4a:	4a12      	ldr	r2, [pc, #72]	; (8004b94 <MX_USART1_UART_Init+0x50>)
 8004b4c:	601a      	str	r2, [r3, #0]
 8004b4e:	4b10      	ldr	r3, [pc, #64]	; (8004b90 <MX_USART1_UART_Init+0x4c>)
 8004b50:	f44f 32e1 	mov.w	r2, #115200	; 0x1c200
 8004b54:	605a      	str	r2, [r3, #4]
 8004b56:	4b0e      	ldr	r3, [pc, #56]	; (8004b90 <MX_USART1_UART_Init+0x4c>)
 8004b58:	2200      	movs	r2, #0
 8004b5a:	609a      	str	r2, [r3, #8]
 8004b5c:	4b0c      	ldr	r3, [pc, #48]	; (8004b90 <MX_USART1_UART_Init+0x4c>)
 8004b5e:	2200      	movs	r2, #0
 8004b60:	60da      	str	r2, [r3, #12]
 8004b62:	4b0b      	ldr	r3, [pc, #44]	; (8004b90 <MX_USART1_UART_Init+0x4c>)
 8004b64:	2200      	movs	r2, #0
 8004b66:	611a      	str	r2, [r3, #16]
 8004b68:	4b09      	ldr	r3, [pc, #36]	; (8004b90 <MX_USART1_UART_Init+0x4c>)
 8004b6a:	220c      	movs	r2, #12
 8004b6c:	615a      	str	r2, [r3, #20]
 8004b6e:	4b08      	ldr	r3, [pc, #32]	; (8004b90 <MX_USART1_UART_Init+0x4c>)
 8004b70:	2200      	movs	r2, #0
 8004b72:	619a      	str	r2, [r3, #24]
 8004b74:	4b06      	ldr	r3, [pc, #24]	; (8004b90 <MX_USART1_UART_Init+0x4c>)
 8004b76:	2200      	movs	r2, #0
 8004b78:	61da      	str	r2, [r3, #28]
 8004b7a:	4805      	ldr	r0, [pc, #20]	; (8004b90 <MX_USART1_UART_Init+0x4c>)
 8004b7c:	f002 f92f 	bl	8006dde <HAL_UART_Init>
 8004b80:	4603      	mov	r3, r0
 8004b82:	2b00      	cmp	r3, #0
 8004b84:	d001      	beq.n	8004b8a <MX_USART1_UART_Init+0x46>
 8004b86:	f7ff fc18 	bl	80043ba <Error_Handler>
 8004b8a:	bf00      	nop
 8004b8c:	bd80      	pop	{r7, pc}
 8004b8e:	bf00      	nop
 8004b90:	200002e0 	.word	0x200002e0
 8004b94:	40013800 	.word	0x40013800

08004b98 <HAL_UART_MspInit>:
 8004b98:	b580      	push	{r7, lr}
 8004b9a:	b088      	sub	sp, #32
 8004b9c:	af00      	add	r7, sp, #0
 8004b9e:	6078      	str	r0, [r7, #4]
 8004ba0:	f107 0310 	add.w	r3, r7, #16
 8004ba4:	2200      	movs	r2, #0
 8004ba6:	601a      	str	r2, [r3, #0]
 8004ba8:	605a      	str	r2, [r3, #4]
 8004baa:	609a      	str	r2, [r3, #8]
 8004bac:	60da      	str	r2, [r3, #12]
 8004bae:	687b      	ldr	r3, [r7, #4]
 8004bb0:	681b      	ldr	r3, [r3, #0]
 8004bb2:	4a20      	ldr	r2, [pc, #128]	; (8004c34 <HAL_UART_MspInit+0x9c>)
 8004bb4:	4293      	cmp	r3, r2
 8004bb6:	d139      	bne.n	8004c2c <HAL_UART_MspInit+0x94>
 8004bb8:	4b1f      	ldr	r3, [pc, #124]	; (8004c38 <HAL_UART_MspInit+0xa0>)
 8004bba:	699b      	ldr	r3, [r3, #24]
 8004bbc:	4a1e      	ldr	r2, [pc, #120]	; (8004c38 <HAL_UART_MspInit+0xa0>)
 8004bbe:	f443 4380 	orr.w	r3, r3, #16384	; 0x4000
 8004bc2:	6193      	str	r3, [r2, #24]
 8004bc4:	4b1c      	ldr	r3, [pc, #112]	; (8004c38 <HAL_UART_MspInit+0xa0>)
 8004bc6:	699b      	ldr	r3, [r3, #24]
 8004bc8:	f403 4380 	and.w	r3, r3, #16384	; 0x4000
 8004bcc:	60fb      	str	r3, [r7, #12]
 8004bce:	68fb      	ldr	r3, [r7, #12]
 8004bd0:	4b19      	ldr	r3, [pc, #100]	; (8004c38 <HAL_UART_MspInit+0xa0>)
 8004bd2:	699b      	ldr	r3, [r3, #24]
 8004bd4:	4a18      	ldr	r2, [pc, #96]	; (8004c38 <HAL_UART_MspInit+0xa0>)
 8004bd6:	f043 0304 	orr.w	r3, r3, #4
 8004bda:	6193      	str	r3, [r2, #24]
 8004bdc:	4b16      	ldr	r3, [pc, #88]	; (8004c38 <HAL_UART_MspInit+0xa0>)
 8004bde:	699b      	ldr	r3, [r3, #24]
 8004be0:	f003 0304 	and.w	r3, r3, #4
 8004be4:	60bb      	str	r3, [r7, #8]
 8004be6:	68bb      	ldr	r3, [r7, #8]
 8004be8:	f44f 7300 	mov.w	r3, #512	; 0x200
 8004bec:	613b      	str	r3, [r7, #16]
 8004bee:	2302      	movs	r3, #2
 8004bf0:	617b      	str	r3, [r7, #20]
 8004bf2:	2303      	movs	r3, #3
 8004bf4:	61fb      	str	r3, [r7, #28]
 8004bf6:	f107 0310 	add.w	r3, r7, #16
 8004bfa:	4619      	mov	r1, r3
 8004bfc:	480f      	ldr	r0, [pc, #60]	; (8004c3c <HAL_UART_MspInit+0xa4>)
 8004bfe:	f000 fb31 	bl	8005264 <HAL_GPIO_Init>
 8004c02:	f44f 6380 	mov.w	r3, #1024	; 0x400
 8004c06:	613b      	str	r3, [r7, #16]
 8004c08:	2300      	movs	r3, #0
 8004c0a:	617b      	str	r3, [r7, #20]
 8004c0c:	2300      	movs	r3, #0
 8004c0e:	61bb      	str	r3, [r7, #24]
 8004c10:	f107 0310 	add.w	r3, r7, #16
 8004c14:	4619      	mov	r1, r3
 8004c16:	4809      	ldr	r0, [pc, #36]	; (8004c3c <HAL_UART_MspInit+0xa4>)
 8004c18:	f000 fb24 	bl	8005264 <HAL_GPIO_Init>
 8004c1c:	2200      	movs	r2, #0
 8004c1e:	2100      	movs	r1, #0
 8004c20:	2025      	movs	r0, #37	; 0x25
 8004c22:	f000 f9a6 	bl	8004f72 <HAL_NVIC_SetPriority>
 8004c26:	2025      	movs	r0, #37	; 0x25
 8004c28:	f000 f9bf 	bl	8004faa <HAL_NVIC_EnableIRQ>
 8004c2c:	bf00      	nop
 8004c2e:	3720      	adds	r7, #32
 8004c30:	46bd      	mov	sp, r7
 8004c32:	bd80      	pop	{r7, pc}
 8004c34:	40013800 	.word	0x40013800
 8004c38:	40021000 	.word	0x40021000
 8004c3c:	40010800 	.word	0x40010800

08004c40 <__io_putchar>:
 8004c40:	b580      	push	{r7, lr}
 8004c42:	b084      	sub	sp, #16
 8004c44:	af00      	add	r7, sp, #0
 8004c46:	6078      	str	r0, [r7, #4]
 8004c48:	687b      	ldr	r3, [r7, #4]
 8004c4a:	b2db      	uxtb	r3, r3
 8004c4c:	73fb      	strb	r3, [r7, #15]
 8004c4e:	f107 010f 	add.w	r1, r7, #15
 8004c52:	2364      	movs	r3, #100	; 0x64
 8004c54:	2201      	movs	r2, #1
 8004c56:	4804      	ldr	r0, [pc, #16]	; (8004c68 <__io_putchar+0x28>)
 8004c58:	f002 f911 	bl	8006e7e <HAL_UART_Transmit>
 8004c5c:	687b      	ldr	r3, [r7, #4]
 8004c5e:	4618      	mov	r0, r3
 8004c60:	3710      	adds	r7, #16
 8004c62:	46bd      	mov	sp, r7
 8004c64:	bd80      	pop	{r7, pc}
 8004c66:	bf00      	nop
 8004c68:	200002e0 	.word	0x200002e0

08004c6c <Reset_Handler>:
 8004c6c:	f7ff ff64 	bl	8004b38 <SystemInit>
 8004c70:	480b      	ldr	r0, [pc, #44]	; (8004ca0 <LoopFillZerobss+0xe>)
 8004c72:	490c      	ldr	r1, [pc, #48]	; (8004ca4 <LoopFillZerobss+0x12>)
 8004c74:	4a0c      	ldr	r2, [pc, #48]	; (8004ca8 <LoopFillZerobss+0x16>)
 8004c76:	2300      	movs	r3, #0
 8004c78:	e002      	b.n	8004c80 <LoopCopyDataInit>

08004c7a <CopyDataInit>:
 8004c7a:	58d4      	ldr	r4, [r2, r3]
 8004c7c:	50c4      	str	r4, [r0, r3]
 8004c7e:	3304      	adds	r3, #4

08004c80 <LoopCopyDataInit>:
 8004c80:	18c4      	adds	r4, r0, r3
 8004c82:	428c      	cmp	r4, r1
 8004c84:	d3f9      	bcc.n	8004c7a <CopyDataInit>
 8004c86:	4a09      	ldr	r2, [pc, #36]	; (8004cac <LoopFillZerobss+0x1a>)
 8004c88:	4c09      	ldr	r4, [pc, #36]	; (8004cb0 <LoopFillZerobss+0x1e>)
 8004c8a:	2300      	movs	r3, #0
 8004c8c:	e001      	b.n	8004c92 <LoopFillZerobss>

08004c8e <FillZerobss>:
 8004c8e:	6013      	str	r3, [r2, #0]
 8004c90:	3204      	adds	r2, #4

08004c92 <LoopFillZerobss>:
 8004c92:	42a2      	cmp	r2, r4
 8004c94:	d3fb      	bcc.n	8004c8e <FillZerobss>
 8004c96:	f002 ffa1 	bl	8007bdc <__libc_init_array>
 8004c9a:	f7ff fa5d 	bl	8004158 <main>
 8004c9e:	4770      	bx	lr
 8004ca0:	20000000 	.word	0x20000000
 8004ca4:	200001e8 	.word	0x200001e8
 8004ca8:	0800e1fc 	.word	0x0800e1fc
 8004cac:	200001e8 	.word	0x200001e8
 8004cb0:	2000033c 	.word	0x2000033c

08004cb4 <ADC1_2_IRQHandler>:
 8004cb4:	e7fe      	b.n	8004cb4 <ADC1_2_IRQHandler>
	...

08004cb8 <HAL_Init>:
 8004cb8:	b580      	push	{r7, lr}
 8004cba:	af00      	add	r7, sp, #0
 8004cbc:	4b08      	ldr	r3, [pc, #32]	; (8004ce0 <HAL_Init+0x28>)
 8004cbe:	681b      	ldr	r3, [r3, #0]
 8004cc0:	4a07      	ldr	r2, [pc, #28]	; (8004ce0 <HAL_Init+0x28>)
 8004cc2:	f043 0310 	orr.w	r3, r3, #16
 8004cc6:	6013      	str	r3, [r2, #0]
 8004cc8:	2003      	movs	r0, #3
 8004cca:	f000 f947 	bl	8004f5c <HAL_NVIC_SetPriorityGrouping>
 8004cce:	200f      	movs	r0, #15
 8004cd0:	f000 f808 	bl	8004ce4 <HAL_InitTick>
 8004cd4:	f7ff fe08 	bl	80048e8 <HAL_MspInit>
 8004cd8:	2300      	movs	r3, #0
 8004cda:	4618      	mov	r0, r3
 8004cdc:	bd80      	pop	{r7, pc}
 8004cde:	bf00      	nop
 8004ce0:	40022000 	.word	0x40022000

08004ce4 <HAL_InitTick>:
 8004ce4:	b580      	push	{r7, lr}
 8004ce6:	b082      	sub	sp, #8
 8004ce8:	af00      	add	r7, sp, #0
 8004cea:	6078      	str	r0, [r7, #4]
 8004cec:	4b12      	ldr	r3, [pc, #72]	; (8004d38 <HAL_InitTick+0x54>)
 8004cee:	681a      	ldr	r2, [r3, #0]
 8004cf0:	4b12      	ldr	r3, [pc, #72]	; (8004d3c <HAL_InitTick+0x58>)
 8004cf2:	781b      	ldrb	r3, [r3, #0]
 8004cf4:	4619      	mov	r1, r3
 8004cf6:	f44f 737a 	mov.w	r3, #1000	; 0x3e8
 8004cfa:	fbb3 f3f1 	udiv	r3, r3, r1
 8004cfe:	fbb2 f3f3 	udiv	r3, r2, r3
 8004d02:	4618      	mov	r0, r3
 8004d04:	f000 f95f 	bl	8004fc6 <HAL_SYSTICK_Config>
 8004d08:	4603      	mov	r3, r0
 8004d0a:	2b00      	cmp	r3, #0
 8004d0c:	d001      	beq.n	8004d12 <HAL_InitTick+0x2e>
 8004d0e:	2301      	movs	r3, #1
 8004d10:	e00e      	b.n	8004d30 <HAL_InitTick+0x4c>
 8004d12:	687b      	ldr	r3, [r7, #4]
 8004d14:	2b0f      	cmp	r3, #15
 8004d16:	d80a      	bhi.n	8004d2e <HAL_InitTick+0x4a>
 8004d18:	2200      	movs	r2, #0
 8004d1a:	6879      	ldr	r1, [r7, #4]
 8004d1c:	f04f 30ff 	mov.w	r0, #4294967295
 8004d20:	f000 f927 	bl	8004f72 <HAL_NVIC_SetPriority>
 8004d24:	4a06      	ldr	r2, [pc, #24]	; (8004d40 <HAL_InitTick+0x5c>)
 8004d26:	687b      	ldr	r3, [r7, #4]
 8004d28:	6013      	str	r3, [r2, #0]
 8004d2a:	2300      	movs	r3, #0
 8004d2c:	e000      	b.n	8004d30 <HAL_InitTick+0x4c>
 8004d2e:	2301      	movs	r3, #1
 8004d30:	4618      	mov	r0, r3
 8004d32:	3708      	adds	r7, #8
 8004d34:	46bd      	mov	sp, r7
 8004d36:	bd80      	pop	{r7, pc}
 8004d38:	20000008 	.word	0x20000008
 8004d3c:	20000010 	.word	0x20000010
 8004d40:	2000000c 	.word	0x2000000c

08004d44 <HAL_IncTick>:
 8004d44:	b480      	push	{r7}
 8004d46:	af00      	add	r7, sp, #0
 8004d48:	4b05      	ldr	r3, [pc, #20]	; (8004d60 <HAL_IncTick+0x1c>)
 8004d4a:	781b      	ldrb	r3, [r3, #0]
 8004d4c:	461a      	mov	r2, r3
 8004d4e:	4b05      	ldr	r3, [pc, #20]	; (8004d64 <HAL_IncTick+0x20>)
 8004d50:	681b      	ldr	r3, [r3, #0]
 8004d52:	4413      	add	r3, r2
 8004d54:	4a03      	ldr	r2, [pc, #12]	; (8004d64 <HAL_IncTick+0x20>)
 8004d56:	6013      	str	r3, [r2, #0]
 8004d58:	bf00      	nop
 8004d5a:	46bd      	mov	sp, r7
 8004d5c:	bc80      	pop	{r7}
 8004d5e:	4770      	bx	lr
 8004d60:	20000010 	.word	0x20000010
 8004d64:	20000328 	.word	0x20000328

08004d68 <HAL_GetTick>:
 8004d68:	b480      	push	{r7}
 8004d6a:	af00      	add	r7, sp, #0
 8004d6c:	4b02      	ldr	r3, [pc, #8]	; (8004d78 <HAL_GetTick+0x10>)
 8004d6e:	681b      	ldr	r3, [r3, #0]
 8004d70:	4618      	mov	r0, r3
 8004d72:	46bd      	mov	sp, r7
 8004d74:	bc80      	pop	{r7}
 8004d76:	4770      	bx	lr
 8004d78:	20000328 	.word	0x20000328

08004d7c <HAL_Delay>:
 8004d7c:	b580      	push	{r7, lr}
 8004d7e:	b084      	sub	sp, #16
 8004d80:	af00      	add	r7, sp, #0
 8004d82:	6078      	str	r0, [r7, #4]
 8004d84:	f7ff fff0 	bl	8004d68 <HAL_GetTick>
 8004d88:	60b8      	str	r0, [r7, #8]
 8004d8a:	687b      	ldr	r3, [r7, #4]
 8004d8c:	60fb      	str	r3, [r7, #12]
 8004d8e:	68fb      	ldr	r3, [r7, #12]
 8004d90:	f1b3 3fff 	cmp.w	r3, #4294967295
 8004d94:	d005      	beq.n	8004da2 <HAL_Delay+0x26>
 8004d96:	4b0a      	ldr	r3, [pc, #40]	; (8004dc0 <HAL_Delay+0x44>)
 8004d98:	781b      	ldrb	r3, [r3, #0]
 8004d9a:	461a      	mov	r2, r3
 8004d9c:	68fb      	ldr	r3, [r7, #12]
 8004d9e:	4413      	add	r3, r2
 8004da0:	60fb      	str	r3, [r7, #12]
 8004da2:	bf00      	nop
 8004da4:	f7ff ffe0 	bl	8004d68 <HAL_GetTick>
 8004da8:	4602      	mov	r2, r0
 8004daa:	68bb      	ldr	r3, [r7, #8]
 8004dac:	1ad3      	subs	r3, r2, r3
 8004dae:	68fa      	ldr	r2, [r7, #12]
 8004db0:	429a      	cmp	r2, r3
 8004db2:	d8f7      	bhi.n	8004da4 <HAL_Delay+0x28>
 8004db4:	bf00      	nop
 8004db6:	bf00      	nop
 8004db8:	3710      	adds	r7, #16
 8004dba:	46bd      	mov	sp, r7
 8004dbc:	bd80      	pop	{r7, pc}
 8004dbe:	bf00      	nop
 8004dc0:	20000010 	.word	0x20000010

08004dc4 <__NVIC_SetPriorityGrouping>:
 8004dc4:	b480      	push	{r7}
 8004dc6:	b085      	sub	sp, #20
 8004dc8:	af00      	add	r7, sp, #0
 8004dca:	6078      	str	r0, [r7, #4]
 8004dcc:	687b      	ldr	r3, [r7, #4]
 8004dce:	f003 0307 	and.w	r3, r3, #7
 8004dd2:	60fb      	str	r3, [r7, #12]
 8004dd4:	4b0c      	ldr	r3, [pc, #48]	; (8004e08 <__NVIC_SetPriorityGrouping+0x44>)
 8004dd6:	68db      	ldr	r3, [r3, #12]
 8004dd8:	60bb      	str	r3, [r7, #8]
 8004dda:	68ba      	ldr	r2, [r7, #8]
 8004ddc:	f64f 03ff 	movw	r3, #63743	; 0xf8ff
 8004de0:	4013      	ands	r3, r2
 8004de2:	60bb      	str	r3, [r7, #8]
 8004de4:	68fb      	ldr	r3, [r7, #12]
 8004de6:	021a      	lsls	r2, r3, #8
 8004de8:	68bb      	ldr	r3, [r7, #8]
 8004dea:	4313      	orrs	r3, r2
 8004dec:	f043 63bf 	orr.w	r3, r3, #100139008	; 0x5f80000
 8004df0:	f443 3300 	orr.w	r3, r3, #131072	; 0x20000
 8004df4:	60bb      	str	r3, [r7, #8]
 8004df6:	4a04      	ldr	r2, [pc, #16]	; (8004e08 <__NVIC_SetPriorityGrouping+0x44>)
 8004df8:	68bb      	ldr	r3, [r7, #8]
 8004dfa:	60d3      	str	r3, [r2, #12]
 8004dfc:	bf00      	nop
 8004dfe:	3714      	adds	r7, #20
 8004e00:	46bd      	mov	sp, r7
 8004e02:	bc80      	pop	{r7}
 8004e04:	4770      	bx	lr
 8004e06:	bf00      	nop
 8004e08:	e000ed00 	.word	0xe000ed00

08004e0c <__NVIC_GetPriorityGrouping>:
 8004e0c:	b480      	push	{r7}
 8004e0e:	af00      	add	r7, sp, #0
 8004e10:	4b04      	ldr	r3, [pc, #16]	; (8004e24 <__NVIC_GetPriorityGrouping+0x18>)
 8004e12:	68db      	ldr	r3, [r3, #12]
 8004e14:	0a1b      	lsrs	r3, r3, #8
 8004e16:	f003 0307 	and.w	r3, r3, #7
 8004e1a:	4618      	mov	r0, r3
 8004e1c:	46bd      	mov	sp, r7
 8004e1e:	bc80      	pop	{r7}
 8004e20:	4770      	bx	lr
 8004e22:	bf00      	nop
 8004e24:	e000ed00 	.word	0xe000ed00

08004e28 <__NVIC_EnableIRQ>:
 8004e28:	b480      	push	{r7}
 8004e2a:	b083      	sub	sp, #12
 8004e2c:	af00      	add	r7, sp, #0
 8004e2e:	4603      	mov	r3, r0
 8004e30:	71fb      	strb	r3, [r7, #7]
 8004e32:	f997 3007 	ldrsb.w	r3, [r7, #7]
 8004e36:	2b00      	cmp	r3, #0
 8004e38:	db0b      	blt.n	8004e52 <__NVIC_EnableIRQ+0x2a>
 8004e3a:	79fb      	ldrb	r3, [r7, #7]
 8004e3c:	f003 021f 	and.w	r2, r3, #31
 8004e40:	4906      	ldr	r1, [pc, #24]	; (8004e5c <__NVIC_EnableIRQ+0x34>)
 8004e42:	f997 3007 	ldrsb.w	r3, [r7, #7]
 8004e46:	095b      	lsrs	r3, r3, #5
 8004e48:	2001      	movs	r0, #1
 8004e4a:	fa00 f202 	lsl.w	r2, r0, r2
 8004e4e:	f841 2023 	str.w	r2, [r1, r3, lsl #2]
 8004e52:	bf00      	nop
 8004e54:	370c      	adds	r7, #12
 8004e56:	46bd      	mov	sp, r7
 8004e58:	bc80      	pop	{r7}
 8004e5a:	4770      	bx	lr
 8004e5c:	e000e100 	.word	0xe000e100

08004e60 <__NVIC_SetPriority>:
 8004e60:	b480      	push	{r7}
 8004e62:	b083      	sub	sp, #12
 8004e64:	af00      	add	r7, sp, #0
 8004e66:	4603      	mov	r3, r0
 8004e68:	6039      	str	r1, [r7, #0]
 8004e6a:	71fb      	strb	r3, [r7, #7]
 8004e6c:	f997 3007 	ldrsb.w	r3, [r7, #7]
 8004e70:	2b00      	cmp	r3, #0
 8004e72:	db0a      	blt.n	8004e8a <__NVIC_SetPriority+0x2a>
 8004e74:	683b      	ldr	r3, [r7, #0]
 8004e76:	b2da      	uxtb	r2, r3
 8004e78:	490c      	ldr	r1, [pc, #48]	; (8004eac <__NVIC_SetPriority+0x4c>)
 8004e7a:	f997 3007 	ldrsb.w	r3, [r7, #7]
 8004e7e:	0112      	lsls	r2, r2, #4
 8004e80:	b2d2      	uxtb	r2, r2
 8004e82:	440b      	add	r3, r1
 8004e84:	f883 2300 	strb.w	r2, [r3, #768]	; 0x300
 8004e88:	e00a      	b.n	8004ea0 <__NVIC_SetPriority+0x40>
 8004e8a:	683b      	ldr	r3, [r7, #0]
 8004e8c:	b2da      	uxtb	r2, r3
 8004e8e:	4908      	ldr	r1, [pc, #32]	; (8004eb0 <__NVIC_SetPriority+0x50>)
 8004e90:	79fb      	ldrb	r3, [r7, #7]
 8004e92:	f003 030f 	and.w	r3, r3, #15
 8004e96:	3b04      	subs	r3, #4
 8004e98:	0112      	lsls	r2, r2, #4
 8004e9a:	b2d2      	uxtb	r2, r2
 8004e9c:	440b      	add	r3, r1
 8004e9e:	761a      	strb	r2, [r3, #24]
 8004ea0:	bf00      	nop
 8004ea2:	370c      	adds	r7, #12
 8004ea4:	46bd      	mov	sp, r7
 8004ea6:	bc80      	pop	{r7}
 8004ea8:	4770      	bx	lr
 8004eaa:	bf00      	nop
 8004eac:	e000e100 	.word	0xe000e100
 8004eb0:	e000ed00 	.word	0xe000ed00

08004eb4 <NVIC_EncodePriority>:
 8004eb4:	b480      	push	{r7}
 8004eb6:	b089      	sub	sp, #36	; 0x24
 8004eb8:	af00      	add	r7, sp, #0
 8004eba:	60f8      	str	r0, [r7, #12]
 8004ebc:	60b9      	str	r1, [r7, #8]
 8004ebe:	607a      	str	r2, [r7, #4]
 8004ec0:	68fb      	ldr	r3, [r7, #12]
 8004ec2:	f003 0307 	and.w	r3, r3, #7
 8004ec6:	61fb      	str	r3, [r7, #28]
 8004ec8:	69fb      	ldr	r3, [r7, #28]
 8004eca:	f1c3 0307 	rsb	r3, r3, #7
 8004ece:	2b04      	cmp	r3, #4
 8004ed0:	bf28      	it	cs
 8004ed2:	2304      	movcs	r3, #4
 8004ed4:	61bb      	str	r3, [r7, #24]
 8004ed6:	69fb      	ldr	r3, [r7, #28]
 8004ed8:	3304      	adds	r3, #4
 8004eda:	2b06      	cmp	r3, #6
 8004edc:	d902      	bls.n	8004ee4 <NVIC_EncodePriority+0x30>
 8004ede:	69fb      	ldr	r3, [r7, #28]
 8004ee0:	3b03      	subs	r3, #3
 8004ee2:	e000      	b.n	8004ee6 <NVIC_EncodePriority+0x32>
 8004ee4:	2300      	movs	r3, #0
 8004ee6:	617b      	str	r3, [r7, #20]
 8004ee8:	f04f 32ff 	mov.w	r2, #4294967295
 8004eec:	69bb      	ldr	r3, [r7, #24]
 8004eee:	fa02 f303 	lsl.w	r3, r2, r3
 8004ef2:	43da      	mvns	r2, r3
 8004ef4:	68bb      	ldr	r3, [r7, #8]
 8004ef6:	401a      	ands	r2, r3
 8004ef8:	697b      	ldr	r3, [r7, #20]
 8004efa:	409a      	lsls	r2, r3
 8004efc:	f04f 31ff 	mov.w	r1, #4294967295
 8004f00:	697b      	ldr	r3, [r7, #20]
 8004f02:	fa01 f303 	lsl.w	r3, r1, r3
 8004f06:	43d9      	mvns	r1, r3
 8004f08:	687b      	ldr	r3, [r7, #4]
 8004f0a:	400b      	ands	r3, r1
 8004f0c:	4313      	orrs	r3, r2
 8004f0e:	4618      	mov	r0, r3
 8004f10:	3724      	adds	r7, #36	; 0x24
 8004f12:	46bd      	mov	sp, r7
 8004f14:	bc80      	pop	{r7}
 8004f16:	4770      	bx	lr

08004f18 <SysTick_Config>:
 8004f18:	b580      	push	{r7, lr}
 8004f1a:	b082      	sub	sp, #8
 8004f1c:	af00      	add	r7, sp, #0
 8004f1e:	6078      	str	r0, [r7, #4]
 8004f20:	687b      	ldr	r3, [r7, #4]
 8004f22:	3b01      	subs	r3, #1
 8004f24:	f1b3 7f80 	cmp.w	r3, #16777216	; 0x1000000
 8004f28:	d301      	bcc.n	8004f2e <SysTick_Config+0x16>
 8004f2a:	2301      	movs	r3, #1
 8004f2c:	e00f      	b.n	8004f4e <SysTick_Config+0x36>
 8004f2e:	4a0a      	ldr	r2, [pc, #40]	; (8004f58 <SysTick_Config+0x40>)
 8004f30:	687b      	ldr	r3, [r7, #4]
 8004f32:	3b01      	subs	r3, #1
 8004f34:	6053      	str	r3, [r2, #4]
 8004f36:	210f      	movs	r1, #15
 8004f38:	f04f 30ff 	mov.w	r0, #4294967295
 8004f3c:	f7ff ff90 	bl	8004e60 <__NVIC_SetPriority>
 8004f40:	4b05      	ldr	r3, [pc, #20]	; (8004f58 <SysTick_Config+0x40>)
 8004f42:	2200      	movs	r2, #0
 8004f44:	609a      	str	r2, [r3, #8]
 8004f46:	4b04      	ldr	r3, [pc, #16]	; (8004f58 <SysTick_Config+0x40>)
 8004f48:	2207      	movs	r2, #7
 8004f4a:	601a      	str	r2, [r3, #0]
 8004f4c:	2300      	movs	r3, #0
 8004f4e:	4618      	mov	r0, r3
 8004f50:	3708      	adds	r7, #8
 8004f52:	46bd      	mov	sp, r7
 8004f54:	bd80      	pop	{r7, pc}
 8004f56:	bf00      	nop
 8004f58:	e000e010 	.word	0xe000e010

08004f5c <HAL_NVIC_SetPriorityGrouping>:
 8004f5c:	b580      	push	{r7, lr}
 8004f5e:	b082      	sub	sp, #8
 8004f60:	af00      	add	r7, sp, #0
 8004f62:	6078      	str	r0, [r7, #4]
 8004f64:	6878      	ldr	r0, [r7, #4]
 8004f66:	f7ff ff2d 	bl	8004dc4 <__NVIC_SetPriorityGrouping>
 8004f6a:	bf00      	nop
 8004f6c:	3708      	adds	r7, #8
 8004f6e:	46bd      	mov	sp, r7
 8004f70:	bd80      	pop	{r7, pc}

08004f72 <HAL_NVIC_SetPriority>:
 8004f72:	b580      	push	{r7, lr}
 8004f74:	b086      	sub	sp, #24
 8004f76:	af00      	add	r7, sp, #0
 8004f78:	4603      	mov	r3, r0
 8004f7a:	60b9      	str	r1, [r7, #8]
 8004f7c:	607a      	str	r2, [r7, #4]
 8004f7e:	73fb      	strb	r3, [r7, #15]
 8004f80:	2300      	movs	r3, #0
 8004f82:	617b      	str	r3, [r7, #20]
 8004f84:	f7ff ff42 	bl	8004e0c <__NVIC_GetPriorityGrouping>
 8004f88:	6178      	str	r0, [r7, #20]
 8004f8a:	687a      	ldr	r2, [r7, #4]
 8004f8c:	68b9      	ldr	r1, [r7, #8]
 8004f8e:	6978      	ldr	r0, [r7, #20]
 8004f90:	f7ff ff90 	bl	8004eb4 <NVIC_EncodePriority>
 8004f94:	4602      	mov	r2, r0
 8004f96:	f997 300f 	ldrsb.w	r3, [r7, #15]
 8004f9a:	4611      	mov	r1, r2
 8004f9c:	4618      	mov	r0, r3
 8004f9e:	f7ff ff5f 	bl	8004e60 <__NVIC_SetPriority>
 8004fa2:	bf00      	nop
 8004fa4:	3718      	adds	r7, #24
 8004fa6:	46bd      	mov	sp, r7
 8004fa8:	bd80      	pop	{r7, pc}

08004faa <HAL_NVIC_EnableIRQ>:
 8004faa:	b580      	push	{r7, lr}
 8004fac:	b082      	sub	sp, #8
 8004fae:	af00      	add	r7, sp, #0
 8004fb0:	4603      	mov	r3, r0
 8004fb2:	71fb      	strb	r3, [r7, #7]
 8004fb4:	f997 3007 	ldrsb.w	r3, [r7, #7]
 8004fb8:	4618      	mov	r0, r3
 8004fba:	f7ff ff35 	bl	8004e28 <__NVIC_EnableIRQ>
 8004fbe:	bf00      	nop
 8004fc0:	3708      	adds	r7, #8
 8004fc2:	46bd      	mov	sp, r7
 8004fc4:	bd80      	pop	{r7, pc}

08004fc6 <HAL_SYSTICK_Config>:
 8004fc6:	b580      	push	{r7, lr}
 8004fc8:	b082      	sub	sp, #8
 8004fca:	af00      	add	r7, sp, #0
 8004fcc:	6078      	str	r0, [r7, #4]
 8004fce:	6878      	ldr	r0, [r7, #4]
 8004fd0:	f7ff ffa2 	bl	8004f18 <SysTick_Config>
 8004fd4:	4603      	mov	r3, r0
 8004fd6:	4618      	mov	r0, r3
 8004fd8:	3708      	adds	r7, #8
 8004fda:	46bd      	mov	sp, r7
 8004fdc:	bd80      	pop	{r7, pc}

08004fde <HAL_DMA_Abort>:
 8004fde:	b480      	push	{r7}
 8004fe0:	b085      	sub	sp, #20
 8004fe2:	af00      	add	r7, sp, #0
 8004fe4:	6078      	str	r0, [r7, #4]
 8004fe6:	2300      	movs	r3, #0
 8004fe8:	73fb      	strb	r3, [r7, #15]
 8004fea:	687b      	ldr	r3, [r7, #4]
 8004fec:	f893 3021 	ldrb.w	r3, [r3, #33]	; 0x21
 8004ff0:	b2db      	uxtb	r3, r3
 8004ff2:	2b02      	cmp	r3, #2
 8004ff4:	d008      	beq.n	8005008 <HAL_DMA_Abort+0x2a>
 8004ff6:	687b      	ldr	r3, [r7, #4]
 8004ff8:	2204      	movs	r2, #4
 8004ffa:	639a      	str	r2, [r3, #56]	; 0x38
 8004ffc:	687b      	ldr	r3, [r7, #4]
 8004ffe:	2200      	movs	r2, #0
 8005000:	f883 2020 	strb.w	r2, [r3, #32]
 8005004:	2301      	movs	r3, #1
 8005006:	e020      	b.n	800504a <HAL_DMA_Abort+0x6c>
 8005008:	687b      	ldr	r3, [r7, #4]
 800500a:	681b      	ldr	r3, [r3, #0]
 800500c:	681a      	ldr	r2, [r3, #0]
 800500e:	687b      	ldr	r3, [r7, #4]
 8005010:	681b      	ldr	r3, [r3, #0]
 8005012:	f022 020e 	bic.w	r2, r2, #14
 8005016:	601a      	str	r2, [r3, #0]
 8005018:	687b      	ldr	r3, [r7, #4]
 800501a:	681b      	ldr	r3, [r3, #0]
 800501c:	681a      	ldr	r2, [r3, #0]
 800501e:	687b      	ldr	r3, [r7, #4]
 8005020:	681b      	ldr	r3, [r3, #0]
 8005022:	f022 0201 	bic.w	r2, r2, #1
 8005026:	601a      	str	r2, [r3, #0]
 8005028:	687b      	ldr	r3, [r7, #4]
 800502a:	6c1a      	ldr	r2, [r3, #64]	; 0x40
 800502c:	687b      	ldr	r3, [r7, #4]
 800502e:	6bdb      	ldr	r3, [r3, #60]	; 0x3c
 8005030:	2101      	movs	r1, #1
 8005032:	fa01 f202 	lsl.w	r2, r1, r2
 8005036:	605a      	str	r2, [r3, #4]
 8005038:	687b      	ldr	r3, [r7, #4]
 800503a:	2201      	movs	r2, #1
 800503c:	f883 2021 	strb.w	r2, [r3, #33]	; 0x21
 8005040:	687b      	ldr	r3, [r7, #4]
 8005042:	2200      	movs	r2, #0
 8005044:	f883 2020 	strb.w	r2, [r3, #32]
 8005048:	7bfb      	ldrb	r3, [r7, #15]
 800504a:	4618      	mov	r0, r3
 800504c:	3714      	adds	r7, #20
 800504e:	46bd      	mov	sp, r7
 8005050:	bc80      	pop	{r7}
 8005052:	4770      	bx	lr

08005054 <HAL_DMA_Abort_IT>:
 8005054:	b580      	push	{r7, lr}
 8005056:	b084      	sub	sp, #16
 8005058:	af00      	add	r7, sp, #0
 800505a:	6078      	str	r0, [r7, #4]
 800505c:	2300      	movs	r3, #0
 800505e:	73fb      	strb	r3, [r7, #15]
 8005060:	687b      	ldr	r3, [r7, #4]
 8005062:	f893 3021 	ldrb.w	r3, [r3, #33]	; 0x21
 8005066:	b2db      	uxtb	r3, r3
 8005068:	2b02      	cmp	r3, #2
 800506a:	d005      	beq.n	8005078 <HAL_DMA_Abort_IT+0x24>
 800506c:	687b      	ldr	r3, [r7, #4]
 800506e:	2204      	movs	r2, #4
 8005070:	639a      	str	r2, [r3, #56]	; 0x38
 8005072:	2301      	movs	r3, #1
 8005074:	73fb      	strb	r3, [r7, #15]
 8005076:	e0d6      	b.n	8005226 <HAL_DMA_Abort_IT+0x1d2>
 8005078:	687b      	ldr	r3, [r7, #4]
 800507a:	681b      	ldr	r3, [r3, #0]
 800507c:	681a      	ldr	r2, [r3, #0]
 800507e:	687b      	ldr	r3, [r7, #4]
 8005080:	681b      	ldr	r3, [r3, #0]
 8005082:	f022 020e 	bic.w	r2, r2, #14
 8005086:	601a      	str	r2, [r3, #0]
 8005088:	687b      	ldr	r3, [r7, #4]
 800508a:	681b      	ldr	r3, [r3, #0]
 800508c:	681a      	ldr	r2, [r3, #0]
 800508e:	687b      	ldr	r3, [r7, #4]
 8005090:	681b      	ldr	r3, [r3, #0]
 8005092:	f022 0201 	bic.w	r2, r2, #1
 8005096:	601a      	str	r2, [r3, #0]
 8005098:	687b      	ldr	r3, [r7, #4]
 800509a:	681b      	ldr	r3, [r3, #0]
 800509c:	461a      	mov	r2, r3
 800509e:	4b64      	ldr	r3, [pc, #400]	; (8005230 <HAL_DMA_Abort_IT+0x1dc>)
 80050a0:	429a      	cmp	r2, r3
 80050a2:	d958      	bls.n	8005156 <HAL_DMA_Abort_IT+0x102>
 80050a4:	687b      	ldr	r3, [r7, #4]
 80050a6:	681b      	ldr	r3, [r3, #0]
 80050a8:	4a62      	ldr	r2, [pc, #392]	; (8005234 <HAL_DMA_Abort_IT+0x1e0>)
 80050aa:	4293      	cmp	r3, r2
 80050ac:	d04f      	beq.n	800514e <HAL_DMA_Abort_IT+0xfa>
 80050ae:	687b      	ldr	r3, [r7, #4]
 80050b0:	681b      	ldr	r3, [r3, #0]
 80050b2:	4a61      	ldr	r2, [pc, #388]	; (8005238 <HAL_DMA_Abort_IT+0x1e4>)
 80050b4:	4293      	cmp	r3, r2
 80050b6:	d048      	beq.n	800514a <HAL_DMA_Abort_IT+0xf6>
 80050b8:	687b      	ldr	r3, [r7, #4]
 80050ba:	681b      	ldr	r3, [r3, #0]
 80050bc:	4a5f      	ldr	r2, [pc, #380]	; (800523c <HAL_DMA_Abort_IT+0x1e8>)
 80050be:	4293      	cmp	r3, r2
 80050c0:	d040      	beq.n	8005144 <HAL_DMA_Abort_IT+0xf0>
 80050c2:	687b      	ldr	r3, [r7, #4]
 80050c4:	681b      	ldr	r3, [r3, #0]
 80050c6:	4a5e      	ldr	r2, [pc, #376]	; (8005240 <HAL_DMA_Abort_IT+0x1ec>)
 80050c8:	4293      	cmp	r3, r2
 80050ca:	d038      	beq.n	800513e <HAL_DMA_Abort_IT+0xea>
 80050cc:	687b      	ldr	r3, [r7, #4]
 80050ce:	681b      	ldr	r3, [r3, #0]
 80050d0:	4a5c      	ldr	r2, [pc, #368]	; (8005244 <HAL_DMA_Abort_IT+0x1f0>)
 80050d2:	4293      	cmp	r3, r2
 80050d4:	d030      	beq.n	8005138 <HAL_DMA_Abort_IT+0xe4>
 80050d6:	687b      	ldr	r3, [r7, #4]
 80050d8:	681b      	ldr	r3, [r3, #0]
 80050da:	4a5b      	ldr	r2, [pc, #364]	; (8005248 <HAL_DMA_Abort_IT+0x1f4>)
 80050dc:	4293      	cmp	r3, r2
 80050de:	d028      	beq.n	8005132 <HAL_DMA_Abort_IT+0xde>
 80050e0:	687b      	ldr	r3, [r7, #4]
 80050e2:	681b      	ldr	r3, [r3, #0]
 80050e4:	4a52      	ldr	r2, [pc, #328]	; (8005230 <HAL_DMA_Abort_IT+0x1dc>)
 80050e6:	4293      	cmp	r3, r2
 80050e8:	d020      	beq.n	800512c <HAL_DMA_Abort_IT+0xd8>
 80050ea:	687b      	ldr	r3, [r7, #4]
 80050ec:	681b      	ldr	r3, [r3, #0]
 80050ee:	4a57      	ldr	r2, [pc, #348]	; (800524c <HAL_DMA_Abort_IT+0x1f8>)
 80050f0:	4293      	cmp	r3, r2
 80050f2:	d019      	beq.n	8005128 <HAL_DMA_Abort_IT+0xd4>
 80050f4:	687b      	ldr	r3, [r7, #4]
 80050f6:	681b      	ldr	r3, [r3, #0]
 80050f8:	4a55      	ldr	r2, [pc, #340]	; (8005250 <HAL_DMA_Abort_IT+0x1fc>)
 80050fa:	4293      	cmp	r3, r2
 80050fc:	d012      	beq.n	8005124 <HAL_DMA_Abort_IT+0xd0>
 80050fe:	687b      	ldr	r3, [r7, #4]
 8005100:	681b      	ldr	r3, [r3, #0]
 8005102:	4a54      	ldr	r2, [pc, #336]	; (8005254 <HAL_DMA_Abort_IT+0x200>)
 8005104:	4293      	cmp	r3, r2
 8005106:	d00a      	beq.n	800511e <HAL_DMA_Abort_IT+0xca>
 8005108:	687b      	ldr	r3, [r7, #4]
 800510a:	681b      	ldr	r3, [r3, #0]
 800510c:	4a52      	ldr	r2, [pc, #328]	; (8005258 <HAL_DMA_Abort_IT+0x204>)
 800510e:	4293      	cmp	r3, r2
 8005110:	d102      	bne.n	8005118 <HAL_DMA_Abort_IT+0xc4>
 8005112:	f44f 5380 	mov.w	r3, #4096	; 0x1000
 8005116:	e01b      	b.n	8005150 <HAL_DMA_Abort_IT+0xfc>
 8005118:	f44f 3380 	mov.w	r3, #65536	; 0x10000
 800511c:	e018      	b.n	8005150 <HAL_DMA_Abort_IT+0xfc>
 800511e:	f44f 7380 	mov.w	r3, #256	; 0x100
 8005122:	e015      	b.n	8005150 <HAL_DMA_Abort_IT+0xfc>
 8005124:	2310      	movs	r3, #16
 8005126:	e013      	b.n	8005150 <HAL_DMA_Abort_IT+0xfc>
 8005128:	2301      	movs	r3, #1
 800512a:	e011      	b.n	8005150 <HAL_DMA_Abort_IT+0xfc>
 800512c:	f04f 7380 	mov.w	r3, #16777216	; 0x1000000
 8005130:	e00e      	b.n	8005150 <HAL_DMA_Abort_IT+0xfc>
 8005132:	f44f 1380 	mov.w	r3, #1048576	; 0x100000
 8005136:	e00b      	b.n	8005150 <HAL_DMA_Abort_IT+0xfc>
 8005138:	f44f 3380 	mov.w	r3, #65536	; 0x10000
 800513c:	e008      	b.n	8005150 <HAL_DMA_Abort_IT+0xfc>
 800513e:	f44f 5380 	mov.w	r3, #4096	; 0x1000
 8005142:	e005      	b.n	8005150 <HAL_DMA_Abort_IT+0xfc>
 8005144:	f44f 7380 	mov.w	r3, #256	; 0x100
 8005148:	e002      	b.n	8005150 <HAL_DMA_Abort_IT+0xfc>
 800514a:	2310      	movs	r3, #16
 800514c:	e000      	b.n	8005150 <HAL_DMA_Abort_IT+0xfc>
 800514e:	2301      	movs	r3, #1
 8005150:	4a42      	ldr	r2, [pc, #264]	; (800525c <HAL_DMA_Abort_IT+0x208>)
 8005152:	6053      	str	r3, [r2, #4]
 8005154:	e057      	b.n	8005206 <HAL_DMA_Abort_IT+0x1b2>
 8005156:	687b      	ldr	r3, [r7, #4]
 8005158:	681b      	ldr	r3, [r3, #0]
 800515a:	4a36      	ldr	r2, [pc, #216]	; (8005234 <HAL_DMA_Abort_IT+0x1e0>)
 800515c:	4293      	cmp	r3, r2
 800515e:	d04f      	beq.n	8005200 <HAL_DMA_Abort_IT+0x1ac>
 8005160:	687b      	ldr	r3, [r7, #4]
 8005162:	681b      	ldr	r3, [r3, #0]
 8005164:	4a34      	ldr	r2, [pc, #208]	; (8005238 <HAL_DMA_Abort_IT+0x1e4>)
 8005166:	4293      	cmp	r3, r2
 8005168:	d048      	beq.n	80051fc <HAL_DMA_Abort_IT+0x1a8>
 800516a:	687b      	ldr	r3, [r7, #4]
 800516c:	681b      	ldr	r3, [r3, #0]
 800516e:	4a33      	ldr	r2, [pc, #204]	; (800523c <HAL_DMA_Abort_IT+0x1e8>)
 8005170:	4293      	cmp	r3, r2
 8005172:	d040      	beq.n	80051f6 <HAL_DMA_Abort_IT+0x1a2>
 8005174:	687b      	ldr	r3, [r7, #4]
 8005176:	681b      	ldr	r3, [r3, #0]
 8005178:	4a31      	ldr	r2, [pc, #196]	; (8005240 <HAL_DMA_Abort_IT+0x1ec>)
 800517a:	4293      	cmp	r3, r2
 800517c:	d038      	beq.n	80051f0 <HAL_DMA_Abort_IT+0x19c>
 800517e:	687b      	ldr	r3, [r7, #4]
 8005180:	681b      	ldr	r3, [r3, #0]
 8005182:	4a30      	ldr	r2, [pc, #192]	; (8005244 <HAL_DMA_Abort_IT+0x1f0>)
 8005184:	4293      	cmp	r3, r2
 8005186:	d030      	beq.n	80051ea <HAL_DMA_Abort_IT+0x196>
 8005188:	687b      	ldr	r3, [r7, #4]
 800518a:	681b      	ldr	r3, [r3, #0]
 800518c:	4a2e      	ldr	r2, [pc, #184]	; (8005248 <HAL_DMA_Abort_IT+0x1f4>)
 800518e:	4293      	cmp	r3, r2
 8005190:	d028      	beq.n	80051e4 <HAL_DMA_Abort_IT+0x190>
 8005192:	687b      	ldr	r3, [r7, #4]
 8005194:	681b      	ldr	r3, [r3, #0]
 8005196:	4a26      	ldr	r2, [pc, #152]	; (8005230 <HAL_DMA_Abort_IT+0x1dc>)
 8005198:	4293      	cmp	r3, r2
 800519a:	d020      	beq.n	80051de <HAL_DMA_Abort_IT+0x18a>
 800519c:	687b      	ldr	r3, [r7, #4]
 800519e:	681b      	ldr	r3, [r3, #0]
 80051a0:	4a2a      	ldr	r2, [pc, #168]	; (800524c <HAL_DMA_Abort_IT+0x1f8>)
 80051a2:	4293      	cmp	r3, r2
 80051a4:	d019      	beq.n	80051da <HAL_DMA_Abort_IT+0x186>
 80051a6:	687b      	ldr	r3, [r7, #4]
 80051a8:	681b      	ldr	r3, [r3, #0]
 80051aa:	4a29      	ldr	r2, [pc, #164]	; (8005250 <HAL_DMA_Abort_IT+0x1fc>)
 80051ac:	4293      	cmp	r3, r2
 80051ae:	d012      	beq.n	80051d6 <HAL_DMA_Abort_IT+0x182>
 80051b0:	687b      	ldr	r3, [r7, #4]
 80051b2:	681b      	ldr	r3, [r3, #0]
 80051b4:	4a27      	ldr	r2, [pc, #156]	; (8005254 <HAL_DMA_Abort_IT+0x200>)
 80051b6:	4293      	cmp	r3, r2
 80051b8:	d00a      	beq.n	80051d0 <HAL_DMA_Abort_IT+0x17c>
 80051ba:	687b      	ldr	r3, [r7, #4]
 80051bc:	681b      	ldr	r3, [r3, #0]
 80051be:	4a26      	ldr	r2, [pc, #152]	; (8005258 <HAL_DMA_Abort_IT+0x204>)
 80051c0:	4293      	cmp	r3, r2
 80051c2:	d102      	bne.n	80051ca <HAL_DMA_Abort_IT+0x176>
 80051c4:	f44f 5380 	mov.w	r3, #4096	; 0x1000
 80051c8:	e01b      	b.n	8005202 <HAL_DMA_Abort_IT+0x1ae>
 80051ca:	f44f 3380 	mov.w	r3, #65536	; 0x10000
 80051ce:	e018      	b.n	8005202 <HAL_DMA_Abort_IT+0x1ae>
 80051d0:	f44f 7380 	mov.w	r3, #256	; 0x100
 80051d4:	e015      	b.n	8005202 <HAL_DMA_Abort_IT+0x1ae>
 80051d6:	2310      	movs	r3, #16
 80051d8:	e013      	b.n	8005202 <HAL_DMA_Abort_IT+0x1ae>
 80051da:	2301      	movs	r3, #1
 80051dc:	e011      	b.n	8005202 <HAL_DMA_Abort_IT+0x1ae>
 80051de:	f04f 7380 	mov.w	r3, #16777216	; 0x1000000
 80051e2:	e00e      	b.n	8005202 <HAL_DMA_Abort_IT+0x1ae>
 80051e4:	f44f 1380 	mov.w	r3, #1048576	; 0x100000
 80051e8:	e00b      	b.n	8005202 <HAL_DMA_Abort_IT+0x1ae>
 80051ea:	f44f 3380 	mov.w	r3, #65536	; 0x10000
 80051ee:	e008      	b.n	8005202 <HAL_DMA_Abort_IT+0x1ae>
 80051f0:	f44f 5380 	mov.w	r3, #4096	; 0x1000
 80051f4:	e005      	b.n	8005202 <HAL_DMA_Abort_IT+0x1ae>
 80051f6:	f44f 7380 	mov.w	r3, #256	; 0x100
 80051fa:	e002      	b.n	8005202 <HAL_DMA_Abort_IT+0x1ae>
 80051fc:	2310      	movs	r3, #16
 80051fe:	e000      	b.n	8005202 <HAL_DMA_Abort_IT+0x1ae>
 8005200:	2301      	movs	r3, #1
 8005202:	4a17      	ldr	r2, [pc, #92]	; (8005260 <HAL_DMA_Abort_IT+0x20c>)
 8005204:	6053      	str	r3, [r2, #4]
 8005206:	687b      	ldr	r3, [r7, #4]
 8005208:	2201      	movs	r2, #1
 800520a:	f883 2021 	strb.w	r2, [r3, #33]	; 0x21
 800520e:	687b      	ldr	r3, [r7, #4]
 8005210:	2200      	movs	r2, #0
 8005212:	f883 2020 	strb.w	r2, [r3, #32]
 8005216:	687b      	ldr	r3, [r7, #4]
 8005218:	6b5b      	ldr	r3, [r3, #52]	; 0x34
 800521a:	2b00      	cmp	r3, #0
 800521c:	d003      	beq.n	8005226 <HAL_DMA_Abort_IT+0x1d2>
 800521e:	687b      	ldr	r3, [r7, #4]
 8005220:	6b5b      	ldr	r3, [r3, #52]	; 0x34
 8005222:	6878      	ldr	r0, [r7, #4]
 8005224:	4798      	blx	r3
 8005226:	7bfb      	ldrb	r3, [r7, #15]
 8005228:	4618      	mov	r0, r3
 800522a:	3710      	adds	r7, #16
 800522c:	46bd      	mov	sp, r7
 800522e:	bd80      	pop	{r7, pc}
 8005230:	40020080 	.word	0x40020080
 8005234:	40020008 	.word	0x40020008
 8005238:	4002001c 	.word	0x4002001c
 800523c:	40020030 	.word	0x40020030
 8005240:	40020044 	.word	0x40020044
 8005244:	40020058 	.word	0x40020058
 8005248:	4002006c 	.word	0x4002006c
 800524c:	40020408 	.word	0x40020408
 8005250:	4002041c 	.word	0x4002041c
 8005254:	40020430 	.word	0x40020430
 8005258:	40020444 	.word	0x40020444
 800525c:	40020400 	.word	0x40020400
 8005260:	40020000 	.word	0x40020000

08005264 <HAL_GPIO_Init>:
 8005264:	b480      	push	{r7}
 8005266:	b08b      	sub	sp, #44	; 0x2c
 8005268:	af00      	add	r7, sp, #0
 800526a:	6078      	str	r0, [r7, #4]
 800526c:	6039      	str	r1, [r7, #0]
 800526e:	2300      	movs	r3, #0
 8005270:	627b      	str	r3, [r7, #36]	; 0x24
 8005272:	2300      	movs	r3, #0
 8005274:	623b      	str	r3, [r7, #32]
 8005276:	e179      	b.n	800556c <HAL_GPIO_Init+0x308>
 8005278:	2201      	movs	r2, #1
 800527a:	6a7b      	ldr	r3, [r7, #36]	; 0x24
 800527c:	fa02 f303 	lsl.w	r3, r2, r3
 8005280:	61fb      	str	r3, [r7, #28]
 8005282:	683b      	ldr	r3, [r7, #0]
 8005284:	681b      	ldr	r3, [r3, #0]
 8005286:	69fa      	ldr	r2, [r7, #28]
 8005288:	4013      	ands	r3, r2
 800528a:	61bb      	str	r3, [r7, #24]
 800528c:	69ba      	ldr	r2, [r7, #24]
 800528e:	69fb      	ldr	r3, [r7, #28]
 8005290:	429a      	cmp	r2, r3
 8005292:	f040 8168 	bne.w	8005566 <HAL_GPIO_Init+0x302>
 8005296:	683b      	ldr	r3, [r7, #0]
 8005298:	685b      	ldr	r3, [r3, #4]
 800529a:	4a96      	ldr	r2, [pc, #600]	; (80054f4 <HAL_GPIO_Init+0x290>)
 800529c:	4293      	cmp	r3, r2
 800529e:	d05e      	beq.n	800535e <HAL_GPIO_Init+0xfa>
 80052a0:	4a94      	ldr	r2, [pc, #592]	; (80054f4 <HAL_GPIO_Init+0x290>)
 80052a2:	4293      	cmp	r3, r2
 80052a4:	d875      	bhi.n	8005392 <HAL_GPIO_Init+0x12e>
 80052a6:	4a94      	ldr	r2, [pc, #592]	; (80054f8 <HAL_GPIO_Init+0x294>)
 80052a8:	4293      	cmp	r3, r2
 80052aa:	d058      	beq.n	800535e <HAL_GPIO_Init+0xfa>
 80052ac:	4a92      	ldr	r2, [pc, #584]	; (80054f8 <HAL_GPIO_Init+0x294>)
 80052ae:	4293      	cmp	r3, r2
 80052b0:	d86f      	bhi.n	8005392 <HAL_GPIO_Init+0x12e>
 80052b2:	4a92      	ldr	r2, [pc, #584]	; (80054fc <HAL_GPIO_Init+0x298>)
 80052b4:	4293      	cmp	r3, r2
 80052b6:	d052      	beq.n	800535e <HAL_GPIO_Init+0xfa>
 80052b8:	4a90      	ldr	r2, [pc, #576]	; (80054fc <HAL_GPIO_Init+0x298>)
 80052ba:	4293      	cmp	r3, r2
 80052bc:	d869      	bhi.n	8005392 <HAL_GPIO_Init+0x12e>
 80052be:	4a90      	ldr	r2, [pc, #576]	; (8005500 <HAL_GPIO_Init+0x29c>)
 80052c0:	4293      	cmp	r3, r2
 80052c2:	d04c      	beq.n	800535e <HAL_GPIO_Init+0xfa>
 80052c4:	4a8e      	ldr	r2, [pc, #568]	; (8005500 <HAL_GPIO_Init+0x29c>)
 80052c6:	4293      	cmp	r3, r2
 80052c8:	d863      	bhi.n	8005392 <HAL_GPIO_Init+0x12e>
 80052ca:	4a8e      	ldr	r2, [pc, #568]	; (8005504 <HAL_GPIO_Init+0x2a0>)
 80052cc:	4293      	cmp	r3, r2
 80052ce:	d046      	beq.n	800535e <HAL_GPIO_Init+0xfa>
 80052d0:	4a8c      	ldr	r2, [pc, #560]	; (8005504 <HAL_GPIO_Init+0x2a0>)
 80052d2:	4293      	cmp	r3, r2
 80052d4:	d85d      	bhi.n	8005392 <HAL_GPIO_Init+0x12e>
 80052d6:	2b12      	cmp	r3, #18
 80052d8:	d82a      	bhi.n	8005330 <HAL_GPIO_Init+0xcc>
 80052da:	2b12      	cmp	r3, #18
 80052dc:	d859      	bhi.n	8005392 <HAL_GPIO_Init+0x12e>
 80052de:	a201      	add	r2, pc, #4	; (adr r2, 80052e4 <HAL_GPIO_Init+0x80>)
 80052e0:	f852 f023 	ldr.w	pc, [r2, r3, lsl #2]
 80052e4:	0800535f 	.word	0x0800535f
 80052e8:	08005339 	.word	0x08005339
 80052ec:	0800534b 	.word	0x0800534b
 80052f0:	0800538d 	.word	0x0800538d
 80052f4:	08005393 	.word	0x08005393
 80052f8:	08005393 	.word	0x08005393
 80052fc:	08005393 	.word	0x08005393
 8005300:	08005393 	.word	0x08005393
 8005304:	08005393 	.word	0x08005393
 8005308:	08005393 	.word	0x08005393
 800530c:	08005393 	.word	0x08005393
 8005310:	08005393 	.word	0x08005393
 8005314:	08005393 	.word	0x08005393
 8005318:	08005393 	.word	0x08005393
 800531c:	08005393 	.word	0x08005393
 8005320:	08005393 	.word	0x08005393
 8005324:	08005393 	.word	0x08005393
 8005328:	08005341 	.word	0x08005341
 800532c:	08005355 	.word	0x08005355
 8005330:	4a75      	ldr	r2, [pc, #468]	; (8005508 <HAL_GPIO_Init+0x2a4>)
 8005332:	4293      	cmp	r3, r2
 8005334:	d013      	beq.n	800535e <HAL_GPIO_Init+0xfa>
 8005336:	e02c      	b.n	8005392 <HAL_GPIO_Init+0x12e>
 8005338:	683b      	ldr	r3, [r7, #0]
 800533a:	68db      	ldr	r3, [r3, #12]
 800533c:	623b      	str	r3, [r7, #32]
 800533e:	e029      	b.n	8005394 <HAL_GPIO_Init+0x130>
 8005340:	683b      	ldr	r3, [r7, #0]
 8005342:	68db      	ldr	r3, [r3, #12]
 8005344:	3304      	adds	r3, #4
 8005346:	623b      	str	r3, [r7, #32]
 8005348:	e024      	b.n	8005394 <HAL_GPIO_Init+0x130>
 800534a:	683b      	ldr	r3, [r7, #0]
 800534c:	68db      	ldr	r3, [r3, #12]
 800534e:	3308      	adds	r3, #8
 8005350:	623b      	str	r3, [r7, #32]
 8005352:	e01f      	b.n	8005394 <HAL_GPIO_Init+0x130>
 8005354:	683b      	ldr	r3, [r7, #0]
 8005356:	68db      	ldr	r3, [r3, #12]
 8005358:	330c      	adds	r3, #12
 800535a:	623b      	str	r3, [r7, #32]
 800535c:	e01a      	b.n	8005394 <HAL_GPIO_Init+0x130>
 800535e:	683b      	ldr	r3, [r7, #0]
 8005360:	689b      	ldr	r3, [r3, #8]
 8005362:	2b00      	cmp	r3, #0
 8005364:	d102      	bne.n	800536c <HAL_GPIO_Init+0x108>
 8005366:	2304      	movs	r3, #4
 8005368:	623b      	str	r3, [r7, #32]
 800536a:	e013      	b.n	8005394 <HAL_GPIO_Init+0x130>
 800536c:	683b      	ldr	r3, [r7, #0]
 800536e:	689b      	ldr	r3, [r3, #8]
 8005370:	2b01      	cmp	r3, #1
 8005372:	d105      	bne.n	8005380 <HAL_GPIO_Init+0x11c>
 8005374:	2308      	movs	r3, #8
 8005376:	623b      	str	r3, [r7, #32]
 8005378:	687b      	ldr	r3, [r7, #4]
 800537a:	69fa      	ldr	r2, [r7, #28]
 800537c:	611a      	str	r2, [r3, #16]
 800537e:	e009      	b.n	8005394 <HAL_GPIO_Init+0x130>
 8005380:	2308      	movs	r3, #8
 8005382:	623b      	str	r3, [r7, #32]
 8005384:	687b      	ldr	r3, [r7, #4]
 8005386:	69fa      	ldr	r2, [r7, #28]
 8005388:	615a      	str	r2, [r3, #20]
 800538a:	e003      	b.n	8005394 <HAL_GPIO_Init+0x130>
 800538c:	2300      	movs	r3, #0
 800538e:	623b      	str	r3, [r7, #32]
 8005390:	e000      	b.n	8005394 <HAL_GPIO_Init+0x130>
 8005392:	bf00      	nop
 8005394:	69bb      	ldr	r3, [r7, #24]
 8005396:	2bff      	cmp	r3, #255	; 0xff
 8005398:	d801      	bhi.n	800539e <HAL_GPIO_Init+0x13a>
 800539a:	687b      	ldr	r3, [r7, #4]
 800539c:	e001      	b.n	80053a2 <HAL_GPIO_Init+0x13e>
 800539e:	687b      	ldr	r3, [r7, #4]
 80053a0:	3304      	adds	r3, #4
 80053a2:	617b      	str	r3, [r7, #20]
 80053a4:	69bb      	ldr	r3, [r7, #24]
 80053a6:	2bff      	cmp	r3, #255	; 0xff
 80053a8:	d802      	bhi.n	80053b0 <HAL_GPIO_Init+0x14c>
 80053aa:	6a7b      	ldr	r3, [r7, #36]	; 0x24
 80053ac:	009b      	lsls	r3, r3, #2
 80053ae:	e002      	b.n	80053b6 <HAL_GPIO_Init+0x152>
 80053b0:	6a7b      	ldr	r3, [r7, #36]	; 0x24
 80053b2:	3b08      	subs	r3, #8
 80053b4:	009b      	lsls	r3, r3, #2
 80053b6:	613b      	str	r3, [r7, #16]
 80053b8:	697b      	ldr	r3, [r7, #20]
 80053ba:	681a      	ldr	r2, [r3, #0]
 80053bc:	210f      	movs	r1, #15
 80053be:	693b      	ldr	r3, [r7, #16]
 80053c0:	fa01 f303 	lsl.w	r3, r1, r3
 80053c4:	43db      	mvns	r3, r3
 80053c6:	401a      	ands	r2, r3
 80053c8:	6a39      	ldr	r1, [r7, #32]
 80053ca:	693b      	ldr	r3, [r7, #16]
 80053cc:	fa01 f303 	lsl.w	r3, r1, r3
 80053d0:	431a      	orrs	r2, r3
 80053d2:	697b      	ldr	r3, [r7, #20]
 80053d4:	601a      	str	r2, [r3, #0]
 80053d6:	683b      	ldr	r3, [r7, #0]
 80053d8:	685b      	ldr	r3, [r3, #4]
 80053da:	f003 5380 	and.w	r3, r3, #268435456	; 0x10000000
 80053de:	2b00      	cmp	r3, #0
 80053e0:	f000 80c1 	beq.w	8005566 <HAL_GPIO_Init+0x302>
 80053e4:	4b49      	ldr	r3, [pc, #292]	; (800550c <HAL_GPIO_Init+0x2a8>)
 80053e6:	699b      	ldr	r3, [r3, #24]
 80053e8:	4a48      	ldr	r2, [pc, #288]	; (800550c <HAL_GPIO_Init+0x2a8>)
 80053ea:	f043 0301 	orr.w	r3, r3, #1
 80053ee:	6193      	str	r3, [r2, #24]
 80053f0:	4b46      	ldr	r3, [pc, #280]	; (800550c <HAL_GPIO_Init+0x2a8>)
 80053f2:	699b      	ldr	r3, [r3, #24]
 80053f4:	f003 0301 	and.w	r3, r3, #1
 80053f8:	60bb      	str	r3, [r7, #8]
 80053fa:	68bb      	ldr	r3, [r7, #8]
 80053fc:	4a44      	ldr	r2, [pc, #272]	; (8005510 <HAL_GPIO_Init+0x2ac>)
 80053fe:	6a7b      	ldr	r3, [r7, #36]	; 0x24
 8005400:	089b      	lsrs	r3, r3, #2
 8005402:	3302      	adds	r3, #2
 8005404:	f852 3023 	ldr.w	r3, [r2, r3, lsl #2]
 8005408:	60fb      	str	r3, [r7, #12]
 800540a:	6a7b      	ldr	r3, [r7, #36]	; 0x24
 800540c:	f003 0303 	and.w	r3, r3, #3
 8005410:	009b      	lsls	r3, r3, #2
 8005412:	220f      	movs	r2, #15
 8005414:	fa02 f303 	lsl.w	r3, r2, r3
 8005418:	43db      	mvns	r3, r3
 800541a:	68fa      	ldr	r2, [r7, #12]
 800541c:	4013      	ands	r3, r2
 800541e:	60fb      	str	r3, [r7, #12]
 8005420:	687b      	ldr	r3, [r7, #4]
 8005422:	4a3c      	ldr	r2, [pc, #240]	; (8005514 <HAL_GPIO_Init+0x2b0>)
 8005424:	4293      	cmp	r3, r2
 8005426:	d01f      	beq.n	8005468 <HAL_GPIO_Init+0x204>
 8005428:	687b      	ldr	r3, [r7, #4]
 800542a:	4a3b      	ldr	r2, [pc, #236]	; (8005518 <HAL_GPIO_Init+0x2b4>)
 800542c:	4293      	cmp	r3, r2
 800542e:	d019      	beq.n	8005464 <HAL_GPIO_Init+0x200>
 8005430:	687b      	ldr	r3, [r7, #4]
 8005432:	4a3a      	ldr	r2, [pc, #232]	; (800551c <HAL_GPIO_Init+0x2b8>)
 8005434:	4293      	cmp	r3, r2
 8005436:	d013      	beq.n	8005460 <HAL_GPIO_Init+0x1fc>
 8005438:	687b      	ldr	r3, [r7, #4]
 800543a:	4a39      	ldr	r2, [pc, #228]	; (8005520 <HAL_GPIO_Init+0x2bc>)
 800543c:	4293      	cmp	r3, r2
 800543e:	d00d      	beq.n	800545c <HAL_GPIO_Init+0x1f8>
 8005440:	687b      	ldr	r3, [r7, #4]
 8005442:	4a38      	ldr	r2, [pc, #224]	; (8005524 <HAL_GPIO_Init+0x2c0>)
 8005444:	4293      	cmp	r3, r2
 8005446:	d007      	beq.n	8005458 <HAL_GPIO_Init+0x1f4>
 8005448:	687b      	ldr	r3, [r7, #4]
 800544a:	4a37      	ldr	r2, [pc, #220]	; (8005528 <HAL_GPIO_Init+0x2c4>)
 800544c:	4293      	cmp	r3, r2
 800544e:	d101      	bne.n	8005454 <HAL_GPIO_Init+0x1f0>
 8005450:	2305      	movs	r3, #5
 8005452:	e00a      	b.n	800546a <HAL_GPIO_Init+0x206>
 8005454:	2306      	movs	r3, #6
 8005456:	e008      	b.n	800546a <HAL_GPIO_Init+0x206>
 8005458:	2304      	movs	r3, #4
 800545a:	e006      	b.n	800546a <HAL_GPIO_Init+0x206>
 800545c:	2303      	movs	r3, #3
 800545e:	e004      	b.n	800546a <HAL_GPIO_Init+0x206>
 8005460:	2302      	movs	r3, #2
 8005462:	e002      	b.n	800546a <HAL_GPIO_Init+0x206>
 8005464:	2301      	movs	r3, #1
 8005466:	e000      	b.n	800546a <HAL_GPIO_Init+0x206>
 8005468:	2300      	movs	r3, #0
 800546a:	6a7a      	ldr	r2, [r7, #36]	; 0x24
 800546c:	f002 0203 	and.w	r2, r2, #3
 8005470:	0092      	lsls	r2, r2, #2
 8005472:	4093      	lsls	r3, r2
 8005474:	68fa      	ldr	r2, [r7, #12]
 8005476:	4313      	orrs	r3, r2
 8005478:	60fb      	str	r3, [r7, #12]
 800547a:	4925      	ldr	r1, [pc, #148]	; (8005510 <HAL_GPIO_Init+0x2ac>)
 800547c:	6a7b      	ldr	r3, [r7, #36]	; 0x24
 800547e:	089b      	lsrs	r3, r3, #2
 8005480:	3302      	adds	r3, #2
 8005482:	68fa      	ldr	r2, [r7, #12]
 8005484:	f841 2023 	str.w	r2, [r1, r3, lsl #2]
 8005488:	683b      	ldr	r3, [r7, #0]
 800548a:	685b      	ldr	r3, [r3, #4]
 800548c:	f403 1380 	and.w	r3, r3, #1048576	; 0x100000
 8005490:	2b00      	cmp	r3, #0
 8005492:	d006      	beq.n	80054a2 <HAL_GPIO_Init+0x23e>
 8005494:	4b25      	ldr	r3, [pc, #148]	; (800552c <HAL_GPIO_Init+0x2c8>)
 8005496:	689a      	ldr	r2, [r3, #8]
 8005498:	4924      	ldr	r1, [pc, #144]	; (800552c <HAL_GPIO_Init+0x2c8>)
 800549a:	69bb      	ldr	r3, [r7, #24]
 800549c:	4313      	orrs	r3, r2
 800549e:	608b      	str	r3, [r1, #8]
 80054a0:	e006      	b.n	80054b0 <HAL_GPIO_Init+0x24c>
 80054a2:	4b22      	ldr	r3, [pc, #136]	; (800552c <HAL_GPIO_Init+0x2c8>)
 80054a4:	689a      	ldr	r2, [r3, #8]
 80054a6:	69bb      	ldr	r3, [r7, #24]
 80054a8:	43db      	mvns	r3, r3
 80054aa:	4920      	ldr	r1, [pc, #128]	; (800552c <HAL_GPIO_Init+0x2c8>)
 80054ac:	4013      	ands	r3, r2
 80054ae:	608b      	str	r3, [r1, #8]
 80054b0:	683b      	ldr	r3, [r7, #0]
 80054b2:	685b      	ldr	r3, [r3, #4]
 80054b4:	f403 1300 	and.w	r3, r3, #2097152	; 0x200000
 80054b8:	2b00      	cmp	r3, #0
 80054ba:	d006      	beq.n	80054ca <HAL_GPIO_Init+0x266>
 80054bc:	4b1b      	ldr	r3, [pc, #108]	; (800552c <HAL_GPIO_Init+0x2c8>)
 80054be:	68da      	ldr	r2, [r3, #12]
 80054c0:	491a      	ldr	r1, [pc, #104]	; (800552c <HAL_GPIO_Init+0x2c8>)
 80054c2:	69bb      	ldr	r3, [r7, #24]
 80054c4:	4313      	orrs	r3, r2
 80054c6:	60cb      	str	r3, [r1, #12]
 80054c8:	e006      	b.n	80054d8 <HAL_GPIO_Init+0x274>
 80054ca:	4b18      	ldr	r3, [pc, #96]	; (800552c <HAL_GPIO_Init+0x2c8>)
 80054cc:	68da      	ldr	r2, [r3, #12]
 80054ce:	69bb      	ldr	r3, [r7, #24]
 80054d0:	43db      	mvns	r3, r3
 80054d2:	4916      	ldr	r1, [pc, #88]	; (800552c <HAL_GPIO_Init+0x2c8>)
 80054d4:	4013      	ands	r3, r2
 80054d6:	60cb      	str	r3, [r1, #12]
 80054d8:	683b      	ldr	r3, [r7, #0]
 80054da:	685b      	ldr	r3, [r3, #4]
 80054dc:	f403 3300 	and.w	r3, r3, #131072	; 0x20000
 80054e0:	2b00      	cmp	r3, #0
 80054e2:	d025      	beq.n	8005530 <HAL_GPIO_Init+0x2cc>
 80054e4:	4b11      	ldr	r3, [pc, #68]	; (800552c <HAL_GPIO_Init+0x2c8>)
 80054e6:	685a      	ldr	r2, [r3, #4]
 80054e8:	4910      	ldr	r1, [pc, #64]	; (800552c <HAL_GPIO_Init+0x2c8>)
 80054ea:	69bb      	ldr	r3, [r7, #24]
 80054ec:	4313      	orrs	r3, r2
 80054ee:	604b      	str	r3, [r1, #4]
 80054f0:	e025      	b.n	800553e <HAL_GPIO_Init+0x2da>
 80054f2:	bf00      	nop
 80054f4:	10320000 	.word	0x10320000
 80054f8:	10310000 	.word	0x10310000
 80054fc:	10220000 	.word	0x10220000
 8005500:	10210000 	.word	0x10210000
 8005504:	10120000 	.word	0x10120000
 8005508:	10110000 	.word	0x10110000
 800550c:	40021000 	.word	0x40021000
 8005510:	40010000 	.word	0x40010000
 8005514:	40010800 	.word	0x40010800
 8005518:	40010c00 	.word	0x40010c00
 800551c:	40011000 	.word	0x40011000
 8005520:	40011400 	.word	0x40011400
 8005524:	40011800 	.word	0x40011800
 8005528:	40011c00 	.word	0x40011c00
 800552c:	40010400 	.word	0x40010400
 8005530:	4b15      	ldr	r3, [pc, #84]	; (8005588 <HAL_GPIO_Init+0x324>)
 8005532:	685a      	ldr	r2, [r3, #4]
 8005534:	69bb      	ldr	r3, [r7, #24]
 8005536:	43db      	mvns	r3, r3
 8005538:	4913      	ldr	r1, [pc, #76]	; (8005588 <HAL_GPIO_Init+0x324>)
 800553a:	4013      	ands	r3, r2
 800553c:	604b      	str	r3, [r1, #4]
 800553e:	683b      	ldr	r3, [r7, #0]
 8005540:	685b      	ldr	r3, [r3, #4]
 8005542:	f403 3380 	and.w	r3, r3, #65536	; 0x10000
 8005546:	2b00      	cmp	r3, #0
 8005548:	d006      	beq.n	8005558 <HAL_GPIO_Init+0x2f4>
 800554a:	4b0f      	ldr	r3, [pc, #60]	; (8005588 <HAL_GPIO_Init+0x324>)
 800554c:	681a      	ldr	r2, [r3, #0]
 800554e:	490e      	ldr	r1, [pc, #56]	; (8005588 <HAL_GPIO_Init+0x324>)
 8005550:	69bb      	ldr	r3, [r7, #24]
 8005552:	4313      	orrs	r3, r2
 8005554:	600b      	str	r3, [r1, #0]
 8005556:	e006      	b.n	8005566 <HAL_GPIO_Init+0x302>
 8005558:	4b0b      	ldr	r3, [pc, #44]	; (8005588 <HAL_GPIO_Init+0x324>)
 800555a:	681a      	ldr	r2, [r3, #0]
 800555c:	69bb      	ldr	r3, [r7, #24]
 800555e:	43db      	mvns	r3, r3
 8005560:	4909      	ldr	r1, [pc, #36]	; (8005588 <HAL_GPIO_Init+0x324>)
 8005562:	4013      	ands	r3, r2
 8005564:	600b      	str	r3, [r1, #0]
 8005566:	6a7b      	ldr	r3, [r7, #36]	; 0x24
 8005568:	3301      	adds	r3, #1
 800556a:	627b      	str	r3, [r7, #36]	; 0x24
 800556c:	683b      	ldr	r3, [r7, #0]
 800556e:	681a      	ldr	r2, [r3, #0]
 8005570:	6a7b      	ldr	r3, [r7, #36]	; 0x24
 8005572:	fa22 f303 	lsr.w	r3, r2, r3
 8005576:	2b00      	cmp	r3, #0
 8005578:	f47f ae7e 	bne.w	8005278 <HAL_GPIO_Init+0x14>
 800557c:	bf00      	nop
 800557e:	bf00      	nop
 8005580:	372c      	adds	r7, #44	; 0x2c
 8005582:	46bd      	mov	sp, r7
 8005584:	bc80      	pop	{r7}
 8005586:	4770      	bx	lr
 8005588:	40010400 	.word	0x40010400

0800558c <HAL_GPIO_WritePin>:
 800558c:	b480      	push	{r7}
 800558e:	b083      	sub	sp, #12
 8005590:	af00      	add	r7, sp, #0
 8005592:	6078      	str	r0, [r7, #4]
 8005594:	460b      	mov	r3, r1
 8005596:	807b      	strh	r3, [r7, #2]
 8005598:	4613      	mov	r3, r2
 800559a:	707b      	strb	r3, [r7, #1]
 800559c:	787b      	ldrb	r3, [r7, #1]
 800559e:	2b00      	cmp	r3, #0
 80055a0:	d003      	beq.n	80055aa <HAL_GPIO_WritePin+0x1e>
 80055a2:	887a      	ldrh	r2, [r7, #2]
 80055a4:	687b      	ldr	r3, [r7, #4]
 80055a6:	611a      	str	r2, [r3, #16]
 80055a8:	e003      	b.n	80055b2 <HAL_GPIO_WritePin+0x26>
 80055aa:	887b      	ldrh	r3, [r7, #2]
 80055ac:	041a      	lsls	r2, r3, #16
 80055ae:	687b      	ldr	r3, [r7, #4]
 80055b0:	611a      	str	r2, [r3, #16]
 80055b2:	bf00      	nop
 80055b4:	370c      	adds	r7, #12
 80055b6:	46bd      	mov	sp, r7
 80055b8:	bc80      	pop	{r7}
 80055ba:	4770      	bx	lr

080055bc <HAL_GPIO_TogglePin>:
 80055bc:	b480      	push	{r7}
 80055be:	b085      	sub	sp, #20
 80055c0:	af00      	add	r7, sp, #0
 80055c2:	6078      	str	r0, [r7, #4]
 80055c4:	460b      	mov	r3, r1
 80055c6:	807b      	strh	r3, [r7, #2]
 80055c8:	687b      	ldr	r3, [r7, #4]
 80055ca:	68db      	ldr	r3, [r3, #12]
 80055cc:	60fb      	str	r3, [r7, #12]
 80055ce:	887a      	ldrh	r2, [r7, #2]
 80055d0:	68fb      	ldr	r3, [r7, #12]
 80055d2:	4013      	ands	r3, r2
 80055d4:	041a      	lsls	r2, r3, #16
 80055d6:	68fb      	ldr	r3, [r7, #12]
 80055d8:	43d9      	mvns	r1, r3
 80055da:	887b      	ldrh	r3, [r7, #2]
 80055dc:	400b      	ands	r3, r1
 80055de:	431a      	orrs	r2, r3
 80055e0:	687b      	ldr	r3, [r7, #4]
 80055e2:	611a      	str	r2, [r3, #16]
 80055e4:	bf00      	nop
 80055e6:	3714      	adds	r7, #20
 80055e8:	46bd      	mov	sp, r7
 80055ea:	bc80      	pop	{r7}
 80055ec:	4770      	bx	lr
	...

080055f0 <HAL_PWR_EnableBkUpAccess>:
 80055f0:	b480      	push	{r7}
 80055f2:	af00      	add	r7, sp, #0
 80055f4:	4b03      	ldr	r3, [pc, #12]	; (8005604 <HAL_PWR_EnableBkUpAccess+0x14>)
 80055f6:	2201      	movs	r2, #1
 80055f8:	601a      	str	r2, [r3, #0]
 80055fa:	bf00      	nop
 80055fc:	46bd      	mov	sp, r7
 80055fe:	bc80      	pop	{r7}
 8005600:	4770      	bx	lr
 8005602:	bf00      	nop
 8005604:	420e0020 	.word	0x420e0020

08005608 <HAL_RCC_OscConfig>:
 8005608:	b580      	push	{r7, lr}
 800560a:	b086      	sub	sp, #24
 800560c:	af00      	add	r7, sp, #0
 800560e:	6078      	str	r0, [r7, #4]
 8005610:	687b      	ldr	r3, [r7, #4]
 8005612:	2b00      	cmp	r3, #0
 8005614:	d101      	bne.n	800561a <HAL_RCC_OscConfig+0x12>
 8005616:	2301      	movs	r3, #1
 8005618:	e272      	b.n	8005b00 <HAL_RCC_OscConfig+0x4f8>
 800561a:	687b      	ldr	r3, [r7, #4]
 800561c:	681b      	ldr	r3, [r3, #0]
 800561e:	f003 0301 	and.w	r3, r3, #1
 8005622:	2b00      	cmp	r3, #0
 8005624:	f000 8087 	beq.w	8005736 <HAL_RCC_OscConfig+0x12e>
 8005628:	4b92      	ldr	r3, [pc, #584]	; (8005874 <HAL_RCC_OscConfig+0x26c>)
 800562a:	685b      	ldr	r3, [r3, #4]
 800562c:	f003 030c 	and.w	r3, r3, #12
 8005630:	2b04      	cmp	r3, #4
 8005632:	d00c      	beq.n	800564e <HAL_RCC_OscConfig+0x46>
 8005634:	4b8f      	ldr	r3, [pc, #572]	; (8005874 <HAL_RCC_OscConfig+0x26c>)
 8005636:	685b      	ldr	r3, [r3, #4]
 8005638:	f003 030c 	and.w	r3, r3, #12
 800563c:	2b08      	cmp	r3, #8
 800563e:	d112      	bne.n	8005666 <HAL_RCC_OscConfig+0x5e>
 8005640:	4b8c      	ldr	r3, [pc, #560]	; (8005874 <HAL_RCC_OscConfig+0x26c>)
 8005642:	685b      	ldr	r3, [r3, #4]
 8005644:	f403 3380 	and.w	r3, r3, #65536	; 0x10000
 8005648:	f5b3 3f80 	cmp.w	r3, #65536	; 0x10000
 800564c:	d10b      	bne.n	8005666 <HAL_RCC_OscConfig+0x5e>
 800564e:	4b89      	ldr	r3, [pc, #548]	; (8005874 <HAL_RCC_OscConfig+0x26c>)
 8005650:	681b      	ldr	r3, [r3, #0]
 8005652:	f403 3300 	and.w	r3, r3, #131072	; 0x20000
 8005656:	2b00      	cmp	r3, #0
 8005658:	d06c      	beq.n	8005734 <HAL_RCC_OscConfig+0x12c>
 800565a:	687b      	ldr	r3, [r7, #4]
 800565c:	685b      	ldr	r3, [r3, #4]
 800565e:	2b00      	cmp	r3, #0
 8005660:	d168      	bne.n	8005734 <HAL_RCC_OscConfig+0x12c>
 8005662:	2301      	movs	r3, #1
 8005664:	e24c      	b.n	8005b00 <HAL_RCC_OscConfig+0x4f8>
 8005666:	687b      	ldr	r3, [r7, #4]
 8005668:	685b      	ldr	r3, [r3, #4]
 800566a:	f5b3 3f80 	cmp.w	r3, #65536	; 0x10000
 800566e:	d106      	bne.n	800567e <HAL_RCC_OscConfig+0x76>
 8005670:	4b80      	ldr	r3, [pc, #512]	; (8005874 <HAL_RCC_OscConfig+0x26c>)
 8005672:	681b      	ldr	r3, [r3, #0]
 8005674:	4a7f      	ldr	r2, [pc, #508]	; (8005874 <HAL_RCC_OscConfig+0x26c>)
 8005676:	f443 3380 	orr.w	r3, r3, #65536	; 0x10000
 800567a:	6013      	str	r3, [r2, #0]
 800567c:	e02e      	b.n	80056dc <HAL_RCC_OscConfig+0xd4>
 800567e:	687b      	ldr	r3, [r7, #4]
 8005680:	685b      	ldr	r3, [r3, #4]
 8005682:	2b00      	cmp	r3, #0
 8005684:	d10c      	bne.n	80056a0 <HAL_RCC_OscConfig+0x98>
 8005686:	4b7b      	ldr	r3, [pc, #492]	; (8005874 <HAL_RCC_OscConfig+0x26c>)
 8005688:	681b      	ldr	r3, [r3, #0]
 800568a:	4a7a      	ldr	r2, [pc, #488]	; (8005874 <HAL_RCC_OscConfig+0x26c>)
 800568c:	f423 3380 	bic.w	r3, r3, #65536	; 0x10000
 8005690:	6013      	str	r3, [r2, #0]
 8005692:	4b78      	ldr	r3, [pc, #480]	; (8005874 <HAL_RCC_OscConfig+0x26c>)
 8005694:	681b      	ldr	r3, [r3, #0]
 8005696:	4a77      	ldr	r2, [pc, #476]	; (8005874 <HAL_RCC_OscConfig+0x26c>)
 8005698:	f423 2380 	bic.w	r3, r3, #262144	; 0x40000
 800569c:	6013      	str	r3, [r2, #0]
 800569e:	e01d      	b.n	80056dc <HAL_RCC_OscConfig+0xd4>
 80056a0:	687b      	ldr	r3, [r7, #4]
 80056a2:	685b      	ldr	r3, [r3, #4]
 80056a4:	f5b3 2fa0 	cmp.w	r3, #327680	; 0x50000
 80056a8:	d10c      	bne.n	80056c4 <HAL_RCC_OscConfig+0xbc>
 80056aa:	4b72      	ldr	r3, [pc, #456]	; (8005874 <HAL_RCC_OscConfig+0x26c>)
 80056ac:	681b      	ldr	r3, [r3, #0]
 80056ae:	4a71      	ldr	r2, [pc, #452]	; (8005874 <HAL_RCC_OscConfig+0x26c>)
 80056b0:	f443 2380 	orr.w	r3, r3, #262144	; 0x40000
 80056b4:	6013      	str	r3, [r2, #0]
 80056b6:	4b6f      	ldr	r3, [pc, #444]	; (8005874 <HAL_RCC_OscConfig+0x26c>)
 80056b8:	681b      	ldr	r3, [r3, #0]
 80056ba:	4a6e      	ldr	r2, [pc, #440]	; (8005874 <HAL_RCC_OscConfig+0x26c>)
 80056bc:	f443 3380 	orr.w	r3, r3, #65536	; 0x10000
 80056c0:	6013      	str	r3, [r2, #0]
 80056c2:	e00b      	b.n	80056dc <HAL_RCC_OscConfig+0xd4>
 80056c4:	4b6b      	ldr	r3, [pc, #428]	; (8005874 <HAL_RCC_OscConfig+0x26c>)
 80056c6:	681b      	ldr	r3, [r3, #0]
 80056c8:	4a6a      	ldr	r2, [pc, #424]	; (8005874 <HAL_RCC_OscConfig+0x26c>)
 80056ca:	f423 3380 	bic.w	r3, r3, #65536	; 0x10000
 80056ce:	6013      	str	r3, [r2, #0]
 80056d0:	4b68      	ldr	r3, [pc, #416]	; (8005874 <HAL_RCC_OscConfig+0x26c>)
 80056d2:	681b      	ldr	r3, [r3, #0]
 80056d4:	4a67      	ldr	r2, [pc, #412]	; (8005874 <HAL_RCC_OscConfig+0x26c>)
 80056d6:	f423 2380 	bic.w	r3, r3, #262144	; 0x40000
 80056da:	6013      	str	r3, [r2, #0]
 80056dc:	687b      	ldr	r3, [r7, #4]
 80056de:	685b      	ldr	r3, [r3, #4]
 80056e0:	2b00      	cmp	r3, #0
 80056e2:	d013      	beq.n	800570c <HAL_RCC_OscConfig+0x104>
 80056e4:	f7ff fb40 	bl	8004d68 <HAL_GetTick>
 80056e8:	6138      	str	r0, [r7, #16]
 80056ea:	e008      	b.n	80056fe <HAL_RCC_OscConfig+0xf6>
 80056ec:	f7ff fb3c 	bl	8004d68 <HAL_GetTick>
 80056f0:	4602      	mov	r2, r0
 80056f2:	693b      	ldr	r3, [r7, #16]
 80056f4:	1ad3      	subs	r3, r2, r3
 80056f6:	2b64      	cmp	r3, #100	; 0x64
 80056f8:	d901      	bls.n	80056fe <HAL_RCC_OscConfig+0xf6>
 80056fa:	2303      	movs	r3, #3
 80056fc:	e200      	b.n	8005b00 <HAL_RCC_OscConfig+0x4f8>
 80056fe:	4b5d      	ldr	r3, [pc, #372]	; (8005874 <HAL_RCC_OscConfig+0x26c>)
 8005700:	681b      	ldr	r3, [r3, #0]
 8005702:	f403 3300 	and.w	r3, r3, #131072	; 0x20000
 8005706:	2b00      	cmp	r3, #0
 8005708:	d0f0      	beq.n	80056ec <HAL_RCC_OscConfig+0xe4>
 800570a:	e014      	b.n	8005736 <HAL_RCC_OscConfig+0x12e>
 800570c:	f7ff fb2c 	bl	8004d68 <HAL_GetTick>
 8005710:	6138      	str	r0, [r7, #16]
 8005712:	e008      	b.n	8005726 <HAL_RCC_OscConfig+0x11e>
 8005714:	f7ff fb28 	bl	8004d68 <HAL_GetTick>
 8005718:	4602      	mov	r2, r0
 800571a:	693b      	ldr	r3, [r7, #16]
 800571c:	1ad3      	subs	r3, r2, r3
 800571e:	2b64      	cmp	r3, #100	; 0x64
 8005720:	d901      	bls.n	8005726 <HAL_RCC_OscConfig+0x11e>
 8005722:	2303      	movs	r3, #3
 8005724:	e1ec      	b.n	8005b00 <HAL_RCC_OscConfig+0x4f8>
 8005726:	4b53      	ldr	r3, [pc, #332]	; (8005874 <HAL_RCC_OscConfig+0x26c>)
 8005728:	681b      	ldr	r3, [r3, #0]
 800572a:	f403 3300 	and.w	r3, r3, #131072	; 0x20000
 800572e:	2b00      	cmp	r3, #0
 8005730:	d1f0      	bne.n	8005714 <HAL_RCC_OscConfig+0x10c>
 8005732:	e000      	b.n	8005736 <HAL_RCC_OscConfig+0x12e>
 8005734:	bf00      	nop
 8005736:	687b      	ldr	r3, [r7, #4]
 8005738:	681b      	ldr	r3, [r3, #0]
 800573a:	f003 0302 	and.w	r3, r3, #2
 800573e:	2b00      	cmp	r3, #0
 8005740:	d063      	beq.n	800580a <HAL_RCC_OscConfig+0x202>
 8005742:	4b4c      	ldr	r3, [pc, #304]	; (8005874 <HAL_RCC_OscConfig+0x26c>)
 8005744:	685b      	ldr	r3, [r3, #4]
 8005746:	f003 030c 	and.w	r3, r3, #12
 800574a:	2b00      	cmp	r3, #0
 800574c:	d00b      	beq.n	8005766 <HAL_RCC_OscConfig+0x15e>
 800574e:	4b49      	ldr	r3, [pc, #292]	; (8005874 <HAL_RCC_OscConfig+0x26c>)
 8005750:	685b      	ldr	r3, [r3, #4]
 8005752:	f003 030c 	and.w	r3, r3, #12
 8005756:	2b08      	cmp	r3, #8
 8005758:	d11c      	bne.n	8005794 <HAL_RCC_OscConfig+0x18c>
 800575a:	4b46      	ldr	r3, [pc, #280]	; (8005874 <HAL_RCC_OscConfig+0x26c>)
 800575c:	685b      	ldr	r3, [r3, #4]
 800575e:	f403 3380 	and.w	r3, r3, #65536	; 0x10000
 8005762:	2b00      	cmp	r3, #0
 8005764:	d116      	bne.n	8005794 <HAL_RCC_OscConfig+0x18c>
 8005766:	4b43      	ldr	r3, [pc, #268]	; (8005874 <HAL_RCC_OscConfig+0x26c>)
 8005768:	681b      	ldr	r3, [r3, #0]
 800576a:	f003 0302 	and.w	r3, r3, #2
 800576e:	2b00      	cmp	r3, #0
 8005770:	d005      	beq.n	800577e <HAL_RCC_OscConfig+0x176>
 8005772:	687b      	ldr	r3, [r7, #4]
 8005774:	691b      	ldr	r3, [r3, #16]
 8005776:	2b01      	cmp	r3, #1
 8005778:	d001      	beq.n	800577e <HAL_RCC_OscConfig+0x176>
 800577a:	2301      	movs	r3, #1
 800577c:	e1c0      	b.n	8005b00 <HAL_RCC_OscConfig+0x4f8>
 800577e:	4b3d      	ldr	r3, [pc, #244]	; (8005874 <HAL_RCC_OscConfig+0x26c>)
 8005780:	681b      	ldr	r3, [r3, #0]
 8005782:	f023 02f8 	bic.w	r2, r3, #248	; 0xf8
 8005786:	687b      	ldr	r3, [r7, #4]
 8005788:	695b      	ldr	r3, [r3, #20]
 800578a:	00db      	lsls	r3, r3, #3
 800578c:	4939      	ldr	r1, [pc, #228]	; (8005874 <HAL_RCC_OscConfig+0x26c>)
 800578e:	4313      	orrs	r3, r2
 8005790:	600b      	str	r3, [r1, #0]
 8005792:	e03a      	b.n	800580a <HAL_RCC_OscConfig+0x202>
 8005794:	687b      	ldr	r3, [r7, #4]
 8005796:	691b      	ldr	r3, [r3, #16]
 8005798:	2b00      	cmp	r3, #0
 800579a:	d020      	beq.n	80057de <HAL_RCC_OscConfig+0x1d6>
 800579c:	4b36      	ldr	r3, [pc, #216]	; (8005878 <HAL_RCC_OscConfig+0x270>)
 800579e:	2201      	movs	r2, #1
 80057a0:	601a      	str	r2, [r3, #0]
 80057a2:	f7ff fae1 	bl	8004d68 <HAL_GetTick>
 80057a6:	6138      	str	r0, [r7, #16]
 80057a8:	e008      	b.n	80057bc <HAL_RCC_OscConfig+0x1b4>
 80057aa:	f7ff fadd 	bl	8004d68 <HAL_GetTick>
 80057ae:	4602      	mov	r2, r0
 80057b0:	693b      	ldr	r3, [r7, #16]
 80057b2:	1ad3      	subs	r3, r2, r3
 80057b4:	2b02      	cmp	r3, #2
 80057b6:	d901      	bls.n	80057bc <HAL_RCC_OscConfig+0x1b4>
 80057b8:	2303      	movs	r3, #3
 80057ba:	e1a1      	b.n	8005b00 <HAL_RCC_OscConfig+0x4f8>
 80057bc:	4b2d      	ldr	r3, [pc, #180]	; (8005874 <HAL_RCC_OscConfig+0x26c>)
 80057be:	681b      	ldr	r3, [r3, #0]
 80057c0:	f003 0302 	and.w	r3, r3, #2
 80057c4:	2b00      	cmp	r3, #0
 80057c6:	d0f0      	beq.n	80057aa <HAL_RCC_OscConfig+0x1a2>
 80057c8:	4b2a      	ldr	r3, [pc, #168]	; (8005874 <HAL_RCC_OscConfig+0x26c>)
 80057ca:	681b      	ldr	r3, [r3, #0]
 80057cc:	f023 02f8 	bic.w	r2, r3, #248	; 0xf8
 80057d0:	687b      	ldr	r3, [r7, #4]
 80057d2:	695b      	ldr	r3, [r3, #20]
 80057d4:	00db      	lsls	r3, r3, #3
 80057d6:	4927      	ldr	r1, [pc, #156]	; (8005874 <HAL_RCC_OscConfig+0x26c>)
 80057d8:	4313      	orrs	r3, r2
 80057da:	600b      	str	r3, [r1, #0]
 80057dc:	e015      	b.n	800580a <HAL_RCC_OscConfig+0x202>
 80057de:	4b26      	ldr	r3, [pc, #152]	; (8005878 <HAL_RCC_OscConfig+0x270>)
 80057e0:	2200      	movs	r2, #0
 80057e2:	601a      	str	r2, [r3, #0]
 80057e4:	f7ff fac0 	bl	8004d68 <HAL_GetTick>
 80057e8:	6138      	str	r0, [r7, #16]
 80057ea:	e008      	b.n	80057fe <HAL_RCC_OscConfig+0x1f6>
 80057ec:	f7ff fabc 	bl	8004d68 <HAL_GetTick>
 80057f0:	4602      	mov	r2, r0
 80057f2:	693b      	ldr	r3, [r7, #16]
 80057f4:	1ad3      	subs	r3, r2, r3
 80057f6:	2b02      	cmp	r3, #2
 80057f8:	d901      	bls.n	80057fe <HAL_RCC_OscConfig+0x1f6>
 80057fa:	2303      	movs	r3, #3
 80057fc:	e180      	b.n	8005b00 <HAL_RCC_OscConfig+0x4f8>
 80057fe:	4b1d      	ldr	r3, [pc, #116]	; (8005874 <HAL_RCC_OscConfig+0x26c>)
 8005800:	681b      	ldr	r3, [r3, #0]
 8005802:	f003 0302 	and.w	r3, r3, #2
 8005806:	2b00      	cmp	r3, #0
 8005808:	d1f0      	bne.n	80057ec <HAL_RCC_OscConfig+0x1e4>
 800580a:	687b      	ldr	r3, [r7, #4]
 800580c:	681b      	ldr	r3, [r3, #0]
 800580e:	f003 0308 	and.w	r3, r3, #8
 8005812:	2b00      	cmp	r3, #0
 8005814:	d03a      	beq.n	800588c <HAL_RCC_OscConfig+0x284>
 8005816:	687b      	ldr	r3, [r7, #4]
 8005818:	699b      	ldr	r3, [r3, #24]
 800581a:	2b00      	cmp	r3, #0
 800581c:	d019      	beq.n	8005852 <HAL_RCC_OscConfig+0x24a>
 800581e:	4b17      	ldr	r3, [pc, #92]	; (800587c <HAL_RCC_OscConfig+0x274>)
 8005820:	2201      	movs	r2, #1
 8005822:	601a      	str	r2, [r3, #0]
 8005824:	f7ff faa0 	bl	8004d68 <HAL_GetTick>
 8005828:	6138      	str	r0, [r7, #16]
 800582a:	e008      	b.n	800583e <HAL_RCC_OscConfig+0x236>
 800582c:	f7ff fa9c 	bl	8004d68 <HAL_GetTick>
 8005830:	4602      	mov	r2, r0
 8005832:	693b      	ldr	r3, [r7, #16]
 8005834:	1ad3      	subs	r3, r2, r3
 8005836:	2b02      	cmp	r3, #2
 8005838:	d901      	bls.n	800583e <HAL_RCC_OscConfig+0x236>
 800583a:	2303      	movs	r3, #3
 800583c:	e160      	b.n	8005b00 <HAL_RCC_OscConfig+0x4f8>
 800583e:	4b0d      	ldr	r3, [pc, #52]	; (8005874 <HAL_RCC_OscConfig+0x26c>)
 8005840:	6a5b      	ldr	r3, [r3, #36]	; 0x24
 8005842:	f003 0302 	and.w	r3, r3, #2
 8005846:	2b00      	cmp	r3, #0
 8005848:	d0f0      	beq.n	800582c <HAL_RCC_OscConfig+0x224>
 800584a:	2001      	movs	r0, #1
 800584c:	f000 face 	bl	8005dec <RCC_Delay>
 8005850:	e01c      	b.n	800588c <HAL_RCC_OscConfig+0x284>
 8005852:	4b0a      	ldr	r3, [pc, #40]	; (800587c <HAL_RCC_OscConfig+0x274>)
 8005854:	2200      	movs	r2, #0
 8005856:	601a      	str	r2, [r3, #0]
 8005858:	f7ff fa86 	bl	8004d68 <HAL_GetTick>
 800585c:	6138      	str	r0, [r7, #16]
 800585e:	e00f      	b.n	8005880 <HAL_RCC_OscConfig+0x278>
 8005860:	f7ff fa82 	bl	8004d68 <HAL_GetTick>
 8005864:	4602      	mov	r2, r0
 8005866:	693b      	ldr	r3, [r7, #16]
 8005868:	1ad3      	subs	r3, r2, r3
 800586a:	2b02      	cmp	r3, #2
 800586c:	d908      	bls.n	8005880 <HAL_RCC_OscConfig+0x278>
 800586e:	2303      	movs	r3, #3
 8005870:	e146      	b.n	8005b00 <HAL_RCC_OscConfig+0x4f8>
 8005872:	bf00      	nop
 8005874:	40021000 	.word	0x40021000
 8005878:	42420000 	.word	0x42420000
 800587c:	42420480 	.word	0x42420480
 8005880:	4b92      	ldr	r3, [pc, #584]	; (8005acc <HAL_RCC_OscConfig+0x4c4>)
 8005882:	6a5b      	ldr	r3, [r3, #36]	; 0x24
 8005884:	f003 0302 	and.w	r3, r3, #2
 8005888:	2b00      	cmp	r3, #0
 800588a:	d1e9      	bne.n	8005860 <HAL_RCC_OscConfig+0x258>
 800588c:	687b      	ldr	r3, [r7, #4]
 800588e:	681b      	ldr	r3, [r3, #0]
 8005890:	f003 0304 	and.w	r3, r3, #4
 8005894:	2b00      	cmp	r3, #0
 8005896:	f000 80a6 	beq.w	80059e6 <HAL_RCC_OscConfig+0x3de>
 800589a:	2300      	movs	r3, #0
 800589c:	75fb      	strb	r3, [r7, #23]
 800589e:	4b8b      	ldr	r3, [pc, #556]	; (8005acc <HAL_RCC_OscConfig+0x4c4>)
 80058a0:	69db      	ldr	r3, [r3, #28]
 80058a2:	f003 5380 	and.w	r3, r3, #268435456	; 0x10000000
 80058a6:	2b00      	cmp	r3, #0
 80058a8:	d10d      	bne.n	80058c6 <HAL_RCC_OscConfig+0x2be>
 80058aa:	4b88      	ldr	r3, [pc, #544]	; (8005acc <HAL_RCC_OscConfig+0x4c4>)
 80058ac:	69db      	ldr	r3, [r3, #28]
 80058ae:	4a87      	ldr	r2, [pc, #540]	; (8005acc <HAL_RCC_OscConfig+0x4c4>)
 80058b0:	f043 5380 	orr.w	r3, r3, #268435456	; 0x10000000
 80058b4:	61d3      	str	r3, [r2, #28]
 80058b6:	4b85      	ldr	r3, [pc, #532]	; (8005acc <HAL_RCC_OscConfig+0x4c4>)
 80058b8:	69db      	ldr	r3, [r3, #28]
 80058ba:	f003 5380 	and.w	r3, r3, #268435456	; 0x10000000
 80058be:	60bb      	str	r3, [r7, #8]
 80058c0:	68bb      	ldr	r3, [r7, #8]
 80058c2:	2301      	movs	r3, #1
 80058c4:	75fb      	strb	r3, [r7, #23]
 80058c6:	4b82      	ldr	r3, [pc, #520]	; (8005ad0 <HAL_RCC_OscConfig+0x4c8>)
 80058c8:	681b      	ldr	r3, [r3, #0]
 80058ca:	f403 7380 	and.w	r3, r3, #256	; 0x100
 80058ce:	2b00      	cmp	r3, #0
 80058d0:	d118      	bne.n	8005904 <HAL_RCC_OscConfig+0x2fc>
 80058d2:	4b7f      	ldr	r3, [pc, #508]	; (8005ad0 <HAL_RCC_OscConfig+0x4c8>)
 80058d4:	681b      	ldr	r3, [r3, #0]
 80058d6:	4a7e      	ldr	r2, [pc, #504]	; (8005ad0 <HAL_RCC_OscConfig+0x4c8>)
 80058d8:	f443 7380 	orr.w	r3, r3, #256	; 0x100
 80058dc:	6013      	str	r3, [r2, #0]
 80058de:	f7ff fa43 	bl	8004d68 <HAL_GetTick>
 80058e2:	6138      	str	r0, [r7, #16]
 80058e4:	e008      	b.n	80058f8 <HAL_RCC_OscConfig+0x2f0>
 80058e6:	f7ff fa3f 	bl	8004d68 <HAL_GetTick>
 80058ea:	4602      	mov	r2, r0
 80058ec:	693b      	ldr	r3, [r7, #16]
 80058ee:	1ad3      	subs	r3, r2, r3
 80058f0:	2b64      	cmp	r3, #100	; 0x64
 80058f2:	d901      	bls.n	80058f8 <HAL_RCC_OscConfig+0x2f0>
 80058f4:	2303      	movs	r3, #3
 80058f6:	e103      	b.n	8005b00 <HAL_RCC_OscConfig+0x4f8>
 80058f8:	4b75      	ldr	r3, [pc, #468]	; (8005ad0 <HAL_RCC_OscConfig+0x4c8>)
 80058fa:	681b      	ldr	r3, [r3, #0]
 80058fc:	f403 7380 	and.w	r3, r3, #256	; 0x100
 8005900:	2b00      	cmp	r3, #0
 8005902:	d0f0      	beq.n	80058e6 <HAL_RCC_OscConfig+0x2de>
 8005904:	687b      	ldr	r3, [r7, #4]
 8005906:	68db      	ldr	r3, [r3, #12]
 8005908:	2b01      	cmp	r3, #1
 800590a:	d106      	bne.n	800591a <HAL_RCC_OscConfig+0x312>
 800590c:	4b6f      	ldr	r3, [pc, #444]	; (8005acc <HAL_RCC_OscConfig+0x4c4>)
 800590e:	6a1b      	ldr	r3, [r3, #32]
 8005910:	4a6e      	ldr	r2, [pc, #440]	; (8005acc <HAL_RCC_OscConfig+0x4c4>)
 8005912:	f043 0301 	orr.w	r3, r3, #1
 8005916:	6213      	str	r3, [r2, #32]
 8005918:	e02d      	b.n	8005976 <HAL_RCC_OscConfig+0x36e>
 800591a:	687b      	ldr	r3, [r7, #4]
 800591c:	68db      	ldr	r3, [r3, #12]
 800591e:	2b00      	cmp	r3, #0
 8005920:	d10c      	bne.n	800593c <HAL_RCC_OscConfig+0x334>
 8005922:	4b6a      	ldr	r3, [pc, #424]	; (8005acc <HAL_RCC_OscConfig+0x4c4>)
 8005924:	6a1b      	ldr	r3, [r3, #32]
 8005926:	4a69      	ldr	r2, [pc, #420]	; (8005acc <HAL_RCC_OscConfig+0x4c4>)
 8005928:	f023 0301 	bic.w	r3, r3, #1
 800592c:	6213      	str	r3, [r2, #32]
 800592e:	4b67      	ldr	r3, [pc, #412]	; (8005acc <HAL_RCC_OscConfig+0x4c4>)
 8005930:	6a1b      	ldr	r3, [r3, #32]
 8005932:	4a66      	ldr	r2, [pc, #408]	; (8005acc <HAL_RCC_OscConfig+0x4c4>)
 8005934:	f023 0304 	bic.w	r3, r3, #4
 8005938:	6213      	str	r3, [r2, #32]
 800593a:	e01c      	b.n	8005976 <HAL_RCC_OscConfig+0x36e>
 800593c:	687b      	ldr	r3, [r7, #4]
 800593e:	68db      	ldr	r3, [r3, #12]
 8005940:	2b05      	cmp	r3, #5
 8005942:	d10c      	bne.n	800595e <HAL_RCC_OscConfig+0x356>
 8005944:	4b61      	ldr	r3, [pc, #388]	; (8005acc <HAL_RCC_OscConfig+0x4c4>)
 8005946:	6a1b      	ldr	r3, [r3, #32]
 8005948:	4a60      	ldr	r2, [pc, #384]	; (8005acc <HAL_RCC_OscConfig+0x4c4>)
 800594a:	f043 0304 	orr.w	r3, r3, #4
 800594e:	6213      	str	r3, [r2, #32]
 8005950:	4b5e      	ldr	r3, [pc, #376]	; (8005acc <HAL_RCC_OscConfig+0x4c4>)
 8005952:	6a1b      	ldr	r3, [r3, #32]
 8005954:	4a5d      	ldr	r2, [pc, #372]	; (8005acc <HAL_RCC_OscConfig+0x4c4>)
 8005956:	f043 0301 	orr.w	r3, r3, #1
 800595a:	6213      	str	r3, [r2, #32]
 800595c:	e00b      	b.n	8005976 <HAL_RCC_OscConfig+0x36e>
 800595e:	4b5b      	ldr	r3, [pc, #364]	; (8005acc <HAL_RCC_OscConfig+0x4c4>)
 8005960:	6a1b      	ldr	r3, [r3, #32]
 8005962:	4a5a      	ldr	r2, [pc, #360]	; (8005acc <HAL_RCC_OscConfig+0x4c4>)
 8005964:	f023 0301 	bic.w	r3, r3, #1
 8005968:	6213      	str	r3, [r2, #32]
 800596a:	4b58      	ldr	r3, [pc, #352]	; (8005acc <HAL_RCC_OscConfig+0x4c4>)
 800596c:	6a1b      	ldr	r3, [r3, #32]
 800596e:	4a57      	ldr	r2, [pc, #348]	; (8005acc <HAL_RCC_OscConfig+0x4c4>)
 8005970:	f023 0304 	bic.w	r3, r3, #4
 8005974:	6213      	str	r3, [r2, #32]
 8005976:	687b      	ldr	r3, [r7, #4]
 8005978:	68db      	ldr	r3, [r3, #12]
 800597a:	2b00      	cmp	r3, #0
 800597c:	d015      	beq.n	80059aa <HAL_RCC_OscConfig+0x3a2>
 800597e:	f7ff f9f3 	bl	8004d68 <HAL_GetTick>
 8005982:	6138      	str	r0, [r7, #16]
 8005984:	e00a      	b.n	800599c <HAL_RCC_OscConfig+0x394>
 8005986:	f7ff f9ef 	bl	8004d68 <HAL_GetTick>
 800598a:	4602      	mov	r2, r0
 800598c:	693b      	ldr	r3, [r7, #16]
 800598e:	1ad3      	subs	r3, r2, r3
 8005990:	f241 3288 	movw	r2, #5000	; 0x1388
 8005994:	4293      	cmp	r3, r2
 8005996:	d901      	bls.n	800599c <HAL_RCC_OscConfig+0x394>
 8005998:	2303      	movs	r3, #3
 800599a:	e0b1      	b.n	8005b00 <HAL_RCC_OscConfig+0x4f8>
 800599c:	4b4b      	ldr	r3, [pc, #300]	; (8005acc <HAL_RCC_OscConfig+0x4c4>)
 800599e:	6a1b      	ldr	r3, [r3, #32]
 80059a0:	f003 0302 	and.w	r3, r3, #2
 80059a4:	2b00      	cmp	r3, #0
 80059a6:	d0ee      	beq.n	8005986 <HAL_RCC_OscConfig+0x37e>
 80059a8:	e014      	b.n	80059d4 <HAL_RCC_OscConfig+0x3cc>
 80059aa:	f7ff f9dd 	bl	8004d68 <HAL_GetTick>
 80059ae:	6138      	str	r0, [r7, #16]
 80059b0:	e00a      	b.n	80059c8 <HAL_RCC_OscConfig+0x3c0>
 80059b2:	f7ff f9d9 	bl	8004d68 <HAL_GetTick>
 80059b6:	4602      	mov	r2, r0
 80059b8:	693b      	ldr	r3, [r7, #16]
 80059ba:	1ad3      	subs	r3, r2, r3
 80059bc:	f241 3288 	movw	r2, #5000	; 0x1388
 80059c0:	4293      	cmp	r3, r2
 80059c2:	d901      	bls.n	80059c8 <HAL_RCC_OscConfig+0x3c0>
 80059c4:	2303      	movs	r3, #3
 80059c6:	e09b      	b.n	8005b00 <HAL_RCC_OscConfig+0x4f8>
 80059c8:	4b40      	ldr	r3, [pc, #256]	; (8005acc <HAL_RCC_OscConfig+0x4c4>)
 80059ca:	6a1b      	ldr	r3, [r3, #32]
 80059cc:	f003 0302 	and.w	r3, r3, #2
 80059d0:	2b00      	cmp	r3, #0
 80059d2:	d1ee      	bne.n	80059b2 <HAL_RCC_OscConfig+0x3aa>
 80059d4:	7dfb      	ldrb	r3, [r7, #23]
 80059d6:	2b01      	cmp	r3, #1
 80059d8:	d105      	bne.n	80059e6 <HAL_RCC_OscConfig+0x3de>
 80059da:	4b3c      	ldr	r3, [pc, #240]	; (8005acc <HAL_RCC_OscConfig+0x4c4>)
 80059dc:	69db      	ldr	r3, [r3, #28]
 80059de:	4a3b      	ldr	r2, [pc, #236]	; (8005acc <HAL_RCC_OscConfig+0x4c4>)
 80059e0:	f023 5380 	bic.w	r3, r3, #268435456	; 0x10000000
 80059e4:	61d3      	str	r3, [r2, #28]
 80059e6:	687b      	ldr	r3, [r7, #4]
 80059e8:	69db      	ldr	r3, [r3, #28]
 80059ea:	2b00      	cmp	r3, #0
 80059ec:	f000 8087 	beq.w	8005afe <HAL_RCC_OscConfig+0x4f6>
 80059f0:	4b36      	ldr	r3, [pc, #216]	; (8005acc <HAL_RCC_OscConfig+0x4c4>)
 80059f2:	685b      	ldr	r3, [r3, #4]
 80059f4:	f003 030c 	and.w	r3, r3, #12
 80059f8:	2b08      	cmp	r3, #8
 80059fa:	d061      	beq.n	8005ac0 <HAL_RCC_OscConfig+0x4b8>
 80059fc:	687b      	ldr	r3, [r7, #4]
 80059fe:	69db      	ldr	r3, [r3, #28]
 8005a00:	2b02      	cmp	r3, #2
 8005a02:	d146      	bne.n	8005a92 <HAL_RCC_OscConfig+0x48a>
 8005a04:	4b33      	ldr	r3, [pc, #204]	; (8005ad4 <HAL_RCC_OscConfig+0x4cc>)
 8005a06:	2200      	movs	r2, #0
 8005a08:	601a      	str	r2, [r3, #0]
 8005a0a:	f7ff f9ad 	bl	8004d68 <HAL_GetTick>
 8005a0e:	6138      	str	r0, [r7, #16]
 8005a10:	e008      	b.n	8005a24 <HAL_RCC_OscConfig+0x41c>
 8005a12:	f7ff f9a9 	bl	8004d68 <HAL_GetTick>
 8005a16:	4602      	mov	r2, r0
 8005a18:	693b      	ldr	r3, [r7, #16]
 8005a1a:	1ad3      	subs	r3, r2, r3
 8005a1c:	2b02      	cmp	r3, #2
 8005a1e:	d901      	bls.n	8005a24 <HAL_RCC_OscConfig+0x41c>
 8005a20:	2303      	movs	r3, #3
 8005a22:	e06d      	b.n	8005b00 <HAL_RCC_OscConfig+0x4f8>
 8005a24:	4b29      	ldr	r3, [pc, #164]	; (8005acc <HAL_RCC_OscConfig+0x4c4>)
 8005a26:	681b      	ldr	r3, [r3, #0]
 8005a28:	f003 7300 	and.w	r3, r3, #33554432	; 0x2000000
 8005a2c:	2b00      	cmp	r3, #0
 8005a2e:	d1f0      	bne.n	8005a12 <HAL_RCC_OscConfig+0x40a>
 8005a30:	687b      	ldr	r3, [r7, #4]
 8005a32:	6a1b      	ldr	r3, [r3, #32]
 8005a34:	f5b3 3f80 	cmp.w	r3, #65536	; 0x10000
 8005a38:	d108      	bne.n	8005a4c <HAL_RCC_OscConfig+0x444>
 8005a3a:	4b24      	ldr	r3, [pc, #144]	; (8005acc <HAL_RCC_OscConfig+0x4c4>)
 8005a3c:	685b      	ldr	r3, [r3, #4]
 8005a3e:	f423 3200 	bic.w	r2, r3, #131072	; 0x20000
 8005a42:	687b      	ldr	r3, [r7, #4]
 8005a44:	689b      	ldr	r3, [r3, #8]
 8005a46:	4921      	ldr	r1, [pc, #132]	; (8005acc <HAL_RCC_OscConfig+0x4c4>)
 8005a48:	4313      	orrs	r3, r2
 8005a4a:	604b      	str	r3, [r1, #4]
 8005a4c:	4b1f      	ldr	r3, [pc, #124]	; (8005acc <HAL_RCC_OscConfig+0x4c4>)
 8005a4e:	685b      	ldr	r3, [r3, #4]
 8005a50:	f423 1274 	bic.w	r2, r3, #3997696	; 0x3d0000
 8005a54:	687b      	ldr	r3, [r7, #4]
 8005a56:	6a19      	ldr	r1, [r3, #32]
 8005a58:	687b      	ldr	r3, [r7, #4]
 8005a5a:	6a5b      	ldr	r3, [r3, #36]	; 0x24
 8005a5c:	430b      	orrs	r3, r1
 8005a5e:	491b      	ldr	r1, [pc, #108]	; (8005acc <HAL_RCC_OscConfig+0x4c4>)
 8005a60:	4313      	orrs	r3, r2
 8005a62:	604b      	str	r3, [r1, #4]
 8005a64:	4b1b      	ldr	r3, [pc, #108]	; (8005ad4 <HAL_RCC_OscConfig+0x4cc>)
 8005a66:	2201      	movs	r2, #1
 8005a68:	601a      	str	r2, [r3, #0]
 8005a6a:	f7ff f97d 	bl	8004d68 <HAL_GetTick>
 8005a6e:	6138      	str	r0, [r7, #16]
 8005a70:	e008      	b.n	8005a84 <HAL_RCC_OscConfig+0x47c>
 8005a72:	f7ff f979 	bl	8004d68 <HAL_GetTick>
 8005a76:	4602      	mov	r2, r0
 8005a78:	693b      	ldr	r3, [r7, #16]
 8005a7a:	1ad3      	subs	r3, r2, r3
 8005a7c:	2b02      	cmp	r3, #2
 8005a7e:	d901      	bls.n	8005a84 <HAL_RCC_OscConfig+0x47c>
 8005a80:	2303      	movs	r3, #3
 8005a82:	e03d      	b.n	8005b00 <HAL_RCC_OscConfig+0x4f8>
 8005a84:	4b11      	ldr	r3, [pc, #68]	; (8005acc <HAL_RCC_OscConfig+0x4c4>)
 8005a86:	681b      	ldr	r3, [r3, #0]
 8005a88:	f003 7300 	and.w	r3, r3, #33554432	; 0x2000000
 8005a8c:	2b00      	cmp	r3, #0
 8005a8e:	d0f0      	beq.n	8005a72 <HAL_RCC_OscConfig+0x46a>
 8005a90:	e035      	b.n	8005afe <HAL_RCC_OscConfig+0x4f6>
 8005a92:	4b10      	ldr	r3, [pc, #64]	; (8005ad4 <HAL_RCC_OscConfig+0x4cc>)
 8005a94:	2200      	movs	r2, #0
 8005a96:	601a      	str	r2, [r3, #0]
 8005a98:	f7ff f966 	bl	8004d68 <HAL_GetTick>
 8005a9c:	6138      	str	r0, [r7, #16]
 8005a9e:	e008      	b.n	8005ab2 <HAL_RCC_OscConfig+0x4aa>
 8005aa0:	f7ff f962 	bl	8004d68 <HAL_GetTick>
 8005aa4:	4602      	mov	r2, r0
 8005aa6:	693b      	ldr	r3, [r7, #16]
 8005aa8:	1ad3      	subs	r3, r2, r3
 8005aaa:	2b02      	cmp	r3, #2
 8005aac:	d901      	bls.n	8005ab2 <HAL_RCC_OscConfig+0x4aa>
 8005aae:	2303      	movs	r3, #3
 8005ab0:	e026      	b.n	8005b00 <HAL_RCC_OscConfig+0x4f8>
 8005ab2:	4b06      	ldr	r3, [pc, #24]	; (8005acc <HAL_RCC_OscConfig+0x4c4>)
 8005ab4:	681b      	ldr	r3, [r3, #0]
 8005ab6:	f003 7300 	and.w	r3, r3, #33554432	; 0x2000000
 8005aba:	2b00      	cmp	r3, #0
 8005abc:	d1f0      	bne.n	8005aa0 <HAL_RCC_OscConfig+0x498>
 8005abe:	e01e      	b.n	8005afe <HAL_RCC_OscConfig+0x4f6>
 8005ac0:	687b      	ldr	r3, [r7, #4]
 8005ac2:	69db      	ldr	r3, [r3, #28]
 8005ac4:	2b01      	cmp	r3, #1
 8005ac6:	d107      	bne.n	8005ad8 <HAL_RCC_OscConfig+0x4d0>
 8005ac8:	2301      	movs	r3, #1
 8005aca:	e019      	b.n	8005b00 <HAL_RCC_OscConfig+0x4f8>
 8005acc:	40021000 	.word	0x40021000
 8005ad0:	40007000 	.word	0x40007000
 8005ad4:	42420060 	.word	0x42420060
 8005ad8:	4b0b      	ldr	r3, [pc, #44]	; (8005b08 <HAL_RCC_OscConfig+0x500>)
 8005ada:	685b      	ldr	r3, [r3, #4]
 8005adc:	60fb      	str	r3, [r7, #12]
 8005ade:	68fb      	ldr	r3, [r7, #12]
 8005ae0:	f403 3280 	and.w	r2, r3, #65536	; 0x10000
 8005ae4:	687b      	ldr	r3, [r7, #4]
 8005ae6:	6a1b      	ldr	r3, [r3, #32]
 8005ae8:	429a      	cmp	r2, r3
 8005aea:	d106      	bne.n	8005afa <HAL_RCC_OscConfig+0x4f2>
 8005aec:	68fb      	ldr	r3, [r7, #12]
 8005aee:	f403 1270 	and.w	r2, r3, #3932160	; 0x3c0000
 8005af2:	687b      	ldr	r3, [r7, #4]
 8005af4:	6a5b      	ldr	r3, [r3, #36]	; 0x24
 8005af6:	429a      	cmp	r2, r3
 8005af8:	d001      	beq.n	8005afe <HAL_RCC_OscConfig+0x4f6>
 8005afa:	2301      	movs	r3, #1
 8005afc:	e000      	b.n	8005b00 <HAL_RCC_OscConfig+0x4f8>
 8005afe:	2300      	movs	r3, #0
 8005b00:	4618      	mov	r0, r3
 8005b02:	3718      	adds	r7, #24
 8005b04:	46bd      	mov	sp, r7
 8005b06:	bd80      	pop	{r7, pc}
 8005b08:	40021000 	.word	0x40021000

08005b0c <HAL_RCC_ClockConfig>:
 8005b0c:	b580      	push	{r7, lr}
 8005b0e:	b084      	sub	sp, #16
 8005b10:	af00      	add	r7, sp, #0
 8005b12:	6078      	str	r0, [r7, #4]
 8005b14:	6039      	str	r1, [r7, #0]
 8005b16:	687b      	ldr	r3, [r7, #4]
 8005b18:	2b00      	cmp	r3, #0
 8005b1a:	d101      	bne.n	8005b20 <HAL_RCC_ClockConfig+0x14>
 8005b1c:	2301      	movs	r3, #1
 8005b1e:	e0d0      	b.n	8005cc2 <HAL_RCC_ClockConfig+0x1b6>
 8005b20:	4b6a      	ldr	r3, [pc, #424]	; (8005ccc <HAL_RCC_ClockConfig+0x1c0>)
 8005b22:	681b      	ldr	r3, [r3, #0]
 8005b24:	f003 0307 	and.w	r3, r3, #7
 8005b28:	683a      	ldr	r2, [r7, #0]
 8005b2a:	429a      	cmp	r2, r3
 8005b2c:	d910      	bls.n	8005b50 <HAL_RCC_ClockConfig+0x44>
 8005b2e:	4b67      	ldr	r3, [pc, #412]	; (8005ccc <HAL_RCC_ClockConfig+0x1c0>)
 8005b30:	681b      	ldr	r3, [r3, #0]
 8005b32:	f023 0207 	bic.w	r2, r3, #7
 8005b36:	4965      	ldr	r1, [pc, #404]	; (8005ccc <HAL_RCC_ClockConfig+0x1c0>)
 8005b38:	683b      	ldr	r3, [r7, #0]
 8005b3a:	4313      	orrs	r3, r2
 8005b3c:	600b      	str	r3, [r1, #0]
 8005b3e:	4b63      	ldr	r3, [pc, #396]	; (8005ccc <HAL_RCC_ClockConfig+0x1c0>)
 8005b40:	681b      	ldr	r3, [r3, #0]
 8005b42:	f003 0307 	and.w	r3, r3, #7
 8005b46:	683a      	ldr	r2, [r7, #0]
 8005b48:	429a      	cmp	r2, r3
 8005b4a:	d001      	beq.n	8005b50 <HAL_RCC_ClockConfig+0x44>
 8005b4c:	2301      	movs	r3, #1
 8005b4e:	e0b8      	b.n	8005cc2 <HAL_RCC_ClockConfig+0x1b6>
 8005b50:	687b      	ldr	r3, [r7, #4]
 8005b52:	681b      	ldr	r3, [r3, #0]
 8005b54:	f003 0302 	and.w	r3, r3, #2
 8005b58:	2b00      	cmp	r3, #0
 8005b5a:	d020      	beq.n	8005b9e <HAL_RCC_ClockConfig+0x92>
 8005b5c:	687b      	ldr	r3, [r7, #4]
 8005b5e:	681b      	ldr	r3, [r3, #0]
 8005b60:	f003 0304 	and.w	r3, r3, #4
 8005b64:	2b00      	cmp	r3, #0
 8005b66:	d005      	beq.n	8005b74 <HAL_RCC_ClockConfig+0x68>
 8005b68:	4b59      	ldr	r3, [pc, #356]	; (8005cd0 <HAL_RCC_ClockConfig+0x1c4>)
 8005b6a:	685b      	ldr	r3, [r3, #4]
 8005b6c:	4a58      	ldr	r2, [pc, #352]	; (8005cd0 <HAL_RCC_ClockConfig+0x1c4>)
 8005b6e:	f443 63e0 	orr.w	r3, r3, #1792	; 0x700
 8005b72:	6053      	str	r3, [r2, #4]
 8005b74:	687b      	ldr	r3, [r7, #4]
 8005b76:	681b      	ldr	r3, [r3, #0]
 8005b78:	f003 0308 	and.w	r3, r3, #8
 8005b7c:	2b00      	cmp	r3, #0
 8005b7e:	d005      	beq.n	8005b8c <HAL_RCC_ClockConfig+0x80>
 8005b80:	4b53      	ldr	r3, [pc, #332]	; (8005cd0 <HAL_RCC_ClockConfig+0x1c4>)
 8005b82:	685b      	ldr	r3, [r3, #4]
 8005b84:	4a52      	ldr	r2, [pc, #328]	; (8005cd0 <HAL_RCC_ClockConfig+0x1c4>)
 8005b86:	f443 5360 	orr.w	r3, r3, #14336	; 0x3800
 8005b8a:	6053      	str	r3, [r2, #4]
 8005b8c:	4b50      	ldr	r3, [pc, #320]	; (8005cd0 <HAL_RCC_ClockConfig+0x1c4>)
 8005b8e:	685b      	ldr	r3, [r3, #4]
 8005b90:	f023 02f0 	bic.w	r2, r3, #240	; 0xf0
 8005b94:	687b      	ldr	r3, [r7, #4]
 8005b96:	689b      	ldr	r3, [r3, #8]
 8005b98:	494d      	ldr	r1, [pc, #308]	; (8005cd0 <HAL_RCC_ClockConfig+0x1c4>)
 8005b9a:	4313      	orrs	r3, r2
 8005b9c:	604b      	str	r3, [r1, #4]
 8005b9e:	687b      	ldr	r3, [r7, #4]
 8005ba0:	681b      	ldr	r3, [r3, #0]
 8005ba2:	f003 0301 	and.w	r3, r3, #1
 8005ba6:	2b00      	cmp	r3, #0
 8005ba8:	d040      	beq.n	8005c2c <HAL_RCC_ClockConfig+0x120>
 8005baa:	687b      	ldr	r3, [r7, #4]
 8005bac:	685b      	ldr	r3, [r3, #4]
 8005bae:	2b01      	cmp	r3, #1
 8005bb0:	d107      	bne.n	8005bc2 <HAL_RCC_ClockConfig+0xb6>
 8005bb2:	4b47      	ldr	r3, [pc, #284]	; (8005cd0 <HAL_RCC_ClockConfig+0x1c4>)
 8005bb4:	681b      	ldr	r3, [r3, #0]
 8005bb6:	f403 3300 	and.w	r3, r3, #131072	; 0x20000
 8005bba:	2b00      	cmp	r3, #0
 8005bbc:	d115      	bne.n	8005bea <HAL_RCC_ClockConfig+0xde>
 8005bbe:	2301      	movs	r3, #1
 8005bc0:	e07f      	b.n	8005cc2 <HAL_RCC_ClockConfig+0x1b6>
 8005bc2:	687b      	ldr	r3, [r7, #4]
 8005bc4:	685b      	ldr	r3, [r3, #4]
 8005bc6:	2b02      	cmp	r3, #2
 8005bc8:	d107      	bne.n	8005bda <HAL_RCC_ClockConfig+0xce>
 8005bca:	4b41      	ldr	r3, [pc, #260]	; (8005cd0 <HAL_RCC_ClockConfig+0x1c4>)
 8005bcc:	681b      	ldr	r3, [r3, #0]
 8005bce:	f003 7300 	and.w	r3, r3, #33554432	; 0x2000000
 8005bd2:	2b00      	cmp	r3, #0
 8005bd4:	d109      	bne.n	8005bea <HAL_RCC_ClockConfig+0xde>
 8005bd6:	2301      	movs	r3, #1
 8005bd8:	e073      	b.n	8005cc2 <HAL_RCC_ClockConfig+0x1b6>
 8005bda:	4b3d      	ldr	r3, [pc, #244]	; (8005cd0 <HAL_RCC_ClockConfig+0x1c4>)
 8005bdc:	681b      	ldr	r3, [r3, #0]
 8005bde:	f003 0302 	and.w	r3, r3, #2
 8005be2:	2b00      	cmp	r3, #0
 8005be4:	d101      	bne.n	8005bea <HAL_RCC_ClockConfig+0xde>
 8005be6:	2301      	movs	r3, #1
 8005be8:	e06b      	b.n	8005cc2 <HAL_RCC_ClockConfig+0x1b6>
 8005bea:	4b39      	ldr	r3, [pc, #228]	; (8005cd0 <HAL_RCC_ClockConfig+0x1c4>)
 8005bec:	685b      	ldr	r3, [r3, #4]
 8005bee:	f023 0203 	bic.w	r2, r3, #3
 8005bf2:	687b      	ldr	r3, [r7, #4]
 8005bf4:	685b      	ldr	r3, [r3, #4]
 8005bf6:	4936      	ldr	r1, [pc, #216]	; (8005cd0 <HAL_RCC_ClockConfig+0x1c4>)
 8005bf8:	4313      	orrs	r3, r2
 8005bfa:	604b      	str	r3, [r1, #4]
 8005bfc:	f7ff f8b4 	bl	8004d68 <HAL_GetTick>
 8005c00:	60f8      	str	r0, [r7, #12]
 8005c02:	e00a      	b.n	8005c1a <HAL_RCC_ClockConfig+0x10e>
 8005c04:	f7ff f8b0 	bl	8004d68 <HAL_GetTick>
 8005c08:	4602      	mov	r2, r0
 8005c0a:	68fb      	ldr	r3, [r7, #12]
 8005c0c:	1ad3      	subs	r3, r2, r3
 8005c0e:	f241 3288 	movw	r2, #5000	; 0x1388
 8005c12:	4293      	cmp	r3, r2
 8005c14:	d901      	bls.n	8005c1a <HAL_RCC_ClockConfig+0x10e>
 8005c16:	2303      	movs	r3, #3
 8005c18:	e053      	b.n	8005cc2 <HAL_RCC_ClockConfig+0x1b6>
 8005c1a:	4b2d      	ldr	r3, [pc, #180]	; (8005cd0 <HAL_RCC_ClockConfig+0x1c4>)
 8005c1c:	685b      	ldr	r3, [r3, #4]
 8005c1e:	f003 020c 	and.w	r2, r3, #12
 8005c22:	687b      	ldr	r3, [r7, #4]
 8005c24:	685b      	ldr	r3, [r3, #4]
 8005c26:	009b      	lsls	r3, r3, #2
 8005c28:	429a      	cmp	r2, r3
 8005c2a:	d1eb      	bne.n	8005c04 <HAL_RCC_ClockConfig+0xf8>
 8005c2c:	4b27      	ldr	r3, [pc, #156]	; (8005ccc <HAL_RCC_ClockConfig+0x1c0>)
 8005c2e:	681b      	ldr	r3, [r3, #0]
 8005c30:	f003 0307 	and.w	r3, r3, #7
 8005c34:	683a      	ldr	r2, [r7, #0]
 8005c36:	429a      	cmp	r2, r3
 8005c38:	d210      	bcs.n	8005c5c <HAL_RCC_ClockConfig+0x150>
 8005c3a:	4b24      	ldr	r3, [pc, #144]	; (8005ccc <HAL_RCC_ClockConfig+0x1c0>)
 8005c3c:	681b      	ldr	r3, [r3, #0]
 8005c3e:	f023 0207 	bic.w	r2, r3, #7
 8005c42:	4922      	ldr	r1, [pc, #136]	; (8005ccc <HAL_RCC_ClockConfig+0x1c0>)
 8005c44:	683b      	ldr	r3, [r7, #0]
 8005c46:	4313      	orrs	r3, r2
 8005c48:	600b      	str	r3, [r1, #0]
 8005c4a:	4b20      	ldr	r3, [pc, #128]	; (8005ccc <HAL_RCC_ClockConfig+0x1c0>)
 8005c4c:	681b      	ldr	r3, [r3, #0]
 8005c4e:	f003 0307 	and.w	r3, r3, #7
 8005c52:	683a      	ldr	r2, [r7, #0]
 8005c54:	429a      	cmp	r2, r3
 8005c56:	d001      	beq.n	8005c5c <HAL_RCC_ClockConfig+0x150>
 8005c58:	2301      	movs	r3, #1
 8005c5a:	e032      	b.n	8005cc2 <HAL_RCC_ClockConfig+0x1b6>
 8005c5c:	687b      	ldr	r3, [r7, #4]
 8005c5e:	681b      	ldr	r3, [r3, #0]
 8005c60:	f003 0304 	and.w	r3, r3, #4
 8005c64:	2b00      	cmp	r3, #0
 8005c66:	d008      	beq.n	8005c7a <HAL_RCC_ClockConfig+0x16e>
 8005c68:	4b19      	ldr	r3, [pc, #100]	; (8005cd0 <HAL_RCC_ClockConfig+0x1c4>)
 8005c6a:	685b      	ldr	r3, [r3, #4]
 8005c6c:	f423 62e0 	bic.w	r2, r3, #1792	; 0x700
 8005c70:	687b      	ldr	r3, [r7, #4]
 8005c72:	68db      	ldr	r3, [r3, #12]
 8005c74:	4916      	ldr	r1, [pc, #88]	; (8005cd0 <HAL_RCC_ClockConfig+0x1c4>)
 8005c76:	4313      	orrs	r3, r2
 8005c78:	604b      	str	r3, [r1, #4]
 8005c7a:	687b      	ldr	r3, [r7, #4]
 8005c7c:	681b      	ldr	r3, [r3, #0]
 8005c7e:	f003 0308 	and.w	r3, r3, #8
 8005c82:	2b00      	cmp	r3, #0
 8005c84:	d009      	beq.n	8005c9a <HAL_RCC_ClockConfig+0x18e>
 8005c86:	4b12      	ldr	r3, [pc, #72]	; (8005cd0 <HAL_RCC_ClockConfig+0x1c4>)
 8005c88:	685b      	ldr	r3, [r3, #4]
 8005c8a:	f423 5260 	bic.w	r2, r3, #14336	; 0x3800
 8005c8e:	687b      	ldr	r3, [r7, #4]
 8005c90:	691b      	ldr	r3, [r3, #16]
 8005c92:	00db      	lsls	r3, r3, #3
 8005c94:	490e      	ldr	r1, [pc, #56]	; (8005cd0 <HAL_RCC_ClockConfig+0x1c4>)
 8005c96:	4313      	orrs	r3, r2
 8005c98:	604b      	str	r3, [r1, #4]
 8005c9a:	f000 f821 	bl	8005ce0 <HAL_RCC_GetSysClockFreq>
 8005c9e:	4602      	mov	r2, r0
 8005ca0:	4b0b      	ldr	r3, [pc, #44]	; (8005cd0 <HAL_RCC_ClockConfig+0x1c4>)
 8005ca2:	685b      	ldr	r3, [r3, #4]
 8005ca4:	091b      	lsrs	r3, r3, #4
 8005ca6:	f003 030f 	and.w	r3, r3, #15
 8005caa:	490a      	ldr	r1, [pc, #40]	; (8005cd4 <HAL_RCC_ClockConfig+0x1c8>)
 8005cac:	5ccb      	ldrb	r3, [r1, r3]
 8005cae:	fa22 f303 	lsr.w	r3, r2, r3
 8005cb2:	4a09      	ldr	r2, [pc, #36]	; (8005cd8 <HAL_RCC_ClockConfig+0x1cc>)
 8005cb4:	6013      	str	r3, [r2, #0]
 8005cb6:	4b09      	ldr	r3, [pc, #36]	; (8005cdc <HAL_RCC_ClockConfig+0x1d0>)
 8005cb8:	681b      	ldr	r3, [r3, #0]
 8005cba:	4618      	mov	r0, r3
 8005cbc:	f7ff f812 	bl	8004ce4 <HAL_InitTick>
 8005cc0:	2300      	movs	r3, #0
 8005cc2:	4618      	mov	r0, r3
 8005cc4:	3710      	adds	r7, #16
 8005cc6:	46bd      	mov	sp, r7
 8005cc8:	bd80      	pop	{r7, pc}
 8005cca:	bf00      	nop
 8005ccc:	40022000 	.word	0x40022000
 8005cd0:	40021000 	.word	0x40021000
 8005cd4:	0800dd0c 	.word	0x0800dd0c
 8005cd8:	20000008 	.word	0x20000008
 8005cdc:	2000000c 	.word	0x2000000c

08005ce0 <HAL_RCC_GetSysClockFreq>:
 8005ce0:	b480      	push	{r7}
 8005ce2:	b087      	sub	sp, #28
 8005ce4:	af00      	add	r7, sp, #0
 8005ce6:	2300      	movs	r3, #0
 8005ce8:	60fb      	str	r3, [r7, #12]
 8005cea:	2300      	movs	r3, #0
 8005cec:	60bb      	str	r3, [r7, #8]
 8005cee:	2300      	movs	r3, #0
 8005cf0:	617b      	str	r3, [r7, #20]
 8005cf2:	2300      	movs	r3, #0
 8005cf4:	607b      	str	r3, [r7, #4]
 8005cf6:	2300      	movs	r3, #0
 8005cf8:	613b      	str	r3, [r7, #16]
 8005cfa:	4b1e      	ldr	r3, [pc, #120]	; (8005d74 <HAL_RCC_GetSysClockFreq+0x94>)
 8005cfc:	685b      	ldr	r3, [r3, #4]
 8005cfe:	60fb      	str	r3, [r7, #12]
 8005d00:	68fb      	ldr	r3, [r7, #12]
 8005d02:	f003 030c 	and.w	r3, r3, #12
 8005d06:	2b04      	cmp	r3, #4
 8005d08:	d002      	beq.n	8005d10 <HAL_RCC_GetSysClockFreq+0x30>
 8005d0a:	2b08      	cmp	r3, #8
 8005d0c:	d003      	beq.n	8005d16 <HAL_RCC_GetSysClockFreq+0x36>
 8005d0e:	e027      	b.n	8005d60 <HAL_RCC_GetSysClockFreq+0x80>
 8005d10:	4b19      	ldr	r3, [pc, #100]	; (8005d78 <HAL_RCC_GetSysClockFreq+0x98>)
 8005d12:	613b      	str	r3, [r7, #16]
 8005d14:	e027      	b.n	8005d66 <HAL_RCC_GetSysClockFreq+0x86>
 8005d16:	68fb      	ldr	r3, [r7, #12]
 8005d18:	0c9b      	lsrs	r3, r3, #18
 8005d1a:	f003 030f 	and.w	r3, r3, #15
 8005d1e:	4a17      	ldr	r2, [pc, #92]	; (8005d7c <HAL_RCC_GetSysClockFreq+0x9c>)
 8005d20:	5cd3      	ldrb	r3, [r2, r3]
 8005d22:	607b      	str	r3, [r7, #4]
 8005d24:	68fb      	ldr	r3, [r7, #12]
 8005d26:	f403 3380 	and.w	r3, r3, #65536	; 0x10000
 8005d2a:	2b00      	cmp	r3, #0
 8005d2c:	d010      	beq.n	8005d50 <HAL_RCC_GetSysClockFreq+0x70>
 8005d2e:	4b11      	ldr	r3, [pc, #68]	; (8005d74 <HAL_RCC_GetSysClockFreq+0x94>)
 8005d30:	685b      	ldr	r3, [r3, #4]
 8005d32:	0c5b      	lsrs	r3, r3, #17
 8005d34:	f003 0301 	and.w	r3, r3, #1
 8005d38:	4a11      	ldr	r2, [pc, #68]	; (8005d80 <HAL_RCC_GetSysClockFreq+0xa0>)
 8005d3a:	5cd3      	ldrb	r3, [r2, r3]
 8005d3c:	60bb      	str	r3, [r7, #8]
 8005d3e:	687b      	ldr	r3, [r7, #4]
 8005d40:	4a0d      	ldr	r2, [pc, #52]	; (8005d78 <HAL_RCC_GetSysClockFreq+0x98>)
 8005d42:	fb03 f202 	mul.w	r2, r3, r2
 8005d46:	68bb      	ldr	r3, [r7, #8]
 8005d48:	fbb2 f3f3 	udiv	r3, r2, r3
 8005d4c:	617b      	str	r3, [r7, #20]
 8005d4e:	e004      	b.n	8005d5a <HAL_RCC_GetSysClockFreq+0x7a>
 8005d50:	687b      	ldr	r3, [r7, #4]
 8005d52:	4a0c      	ldr	r2, [pc, #48]	; (8005d84 <HAL_RCC_GetSysClockFreq+0xa4>)
 8005d54:	fb02 f303 	mul.w	r3, r2, r3
 8005d58:	617b      	str	r3, [r7, #20]
 8005d5a:	697b      	ldr	r3, [r7, #20]
 8005d5c:	613b      	str	r3, [r7, #16]
 8005d5e:	e002      	b.n	8005d66 <HAL_RCC_GetSysClockFreq+0x86>
 8005d60:	4b05      	ldr	r3, [pc, #20]	; (8005d78 <HAL_RCC_GetSysClockFreq+0x98>)
 8005d62:	613b      	str	r3, [r7, #16]
 8005d64:	bf00      	nop
 8005d66:	693b      	ldr	r3, [r7, #16]
 8005d68:	4618      	mov	r0, r3
 8005d6a:	371c      	adds	r7, #28
 8005d6c:	46bd      	mov	sp, r7
 8005d6e:	bc80      	pop	{r7}
 8005d70:	4770      	bx	lr
 8005d72:	bf00      	nop
 8005d74:	40021000 	.word	0x40021000
 8005d78:	007a1200 	.word	0x007a1200
 8005d7c:	0800dd24 	.word	0x0800dd24
 8005d80:	0800dd34 	.word	0x0800dd34
 8005d84:	003d0900 	.word	0x003d0900

08005d88 <HAL_RCC_GetHCLKFreq>:
 8005d88:	b480      	push	{r7}
 8005d8a:	af00      	add	r7, sp, #0
 8005d8c:	4b02      	ldr	r3, [pc, #8]	; (8005d98 <HAL_RCC_GetHCLKFreq+0x10>)
 8005d8e:	681b      	ldr	r3, [r3, #0]
 8005d90:	4618      	mov	r0, r3
 8005d92:	46bd      	mov	sp, r7
 8005d94:	bc80      	pop	{r7}
 8005d96:	4770      	bx	lr
 8005d98:	20000008 	.word	0x20000008

08005d9c <HAL_RCC_GetPCLK1Freq>:
 8005d9c:	b580      	push	{r7, lr}
 8005d9e:	af00      	add	r7, sp, #0
 8005da0:	f7ff fff2 	bl	8005d88 <HAL_RCC_GetHCLKFreq>
 8005da4:	4602      	mov	r2, r0
 8005da6:	4b05      	ldr	r3, [pc, #20]	; (8005dbc <HAL_RCC_GetPCLK1Freq+0x20>)
 8005da8:	685b      	ldr	r3, [r3, #4]
 8005daa:	0a1b      	lsrs	r3, r3, #8
 8005dac:	f003 0307 	and.w	r3, r3, #7
 8005db0:	4903      	ldr	r1, [pc, #12]	; (8005dc0 <HAL_RCC_GetPCLK1Freq+0x24>)
 8005db2:	5ccb      	ldrb	r3, [r1, r3]
 8005db4:	fa22 f303 	lsr.w	r3, r2, r3
 8005db8:	4618      	mov	r0, r3
 8005dba:	bd80      	pop	{r7, pc}
 8005dbc:	40021000 	.word	0x40021000
 8005dc0:	0800dd1c 	.word	0x0800dd1c

08005dc4 <HAL_RCC_GetPCLK2Freq>:
 8005dc4:	b580      	push	{r7, lr}
 8005dc6:	af00      	add	r7, sp, #0
 8005dc8:	f7ff ffde 	bl	8005d88 <HAL_RCC_GetHCLKFreq>
 8005dcc:	4602      	mov	r2, r0
 8005dce:	4b05      	ldr	r3, [pc, #20]	; (8005de4 <HAL_RCC_GetPCLK2Freq+0x20>)
 8005dd0:	685b      	ldr	r3, [r3, #4]
 8005dd2:	0adb      	lsrs	r3, r3, #11
 8005dd4:	f003 0307 	and.w	r3, r3, #7
 8005dd8:	4903      	ldr	r1, [pc, #12]	; (8005de8 <HAL_RCC_GetPCLK2Freq+0x24>)
 8005dda:	5ccb      	ldrb	r3, [r1, r3]
 8005ddc:	fa22 f303 	lsr.w	r3, r2, r3
 8005de0:	4618      	mov	r0, r3
 8005de2:	bd80      	pop	{r7, pc}
 8005de4:	40021000 	.word	0x40021000
 8005de8:	0800dd1c 	.word	0x0800dd1c

08005dec <RCC_Delay>:
 8005dec:	b480      	push	{r7}
 8005dee:	b085      	sub	sp, #20
 8005df0:	af00      	add	r7, sp, #0
 8005df2:	6078      	str	r0, [r7, #4]
 8005df4:	4b0a      	ldr	r3, [pc, #40]	; (8005e20 <RCC_Delay+0x34>)
 8005df6:	681b      	ldr	r3, [r3, #0]
 8005df8:	4a0a      	ldr	r2, [pc, #40]	; (8005e24 <RCC_Delay+0x38>)
 8005dfa:	fba2 2303 	umull	r2, r3, r2, r3
 8005dfe:	0a5b      	lsrs	r3, r3, #9
 8005e00:	687a      	ldr	r2, [r7, #4]
 8005e02:	fb02 f303 	mul.w	r3, r2, r3
 8005e06:	60fb      	str	r3, [r7, #12]
 8005e08:	bf00      	nop
 8005e0a:	68fb      	ldr	r3, [r7, #12]
 8005e0c:	1e5a      	subs	r2, r3, #1
 8005e0e:	60fa      	str	r2, [r7, #12]
 8005e10:	2b00      	cmp	r3, #0
 8005e12:	d1f9      	bne.n	8005e08 <RCC_Delay+0x1c>
 8005e14:	bf00      	nop
 8005e16:	bf00      	nop
 8005e18:	3714      	adds	r7, #20
 8005e1a:	46bd      	mov	sp, r7
 8005e1c:	bc80      	pop	{r7}
 8005e1e:	4770      	bx	lr
 8005e20:	20000008 	.word	0x20000008
 8005e24:	10624dd3 	.word	0x10624dd3

08005e28 <HAL_RCCEx_PeriphCLKConfig>:
 8005e28:	b580      	push	{r7, lr}
 8005e2a:	b086      	sub	sp, #24
 8005e2c:	af00      	add	r7, sp, #0
 8005e2e:	6078      	str	r0, [r7, #4]
 8005e30:	2300      	movs	r3, #0
 8005e32:	613b      	str	r3, [r7, #16]
 8005e34:	2300      	movs	r3, #0
 8005e36:	60fb      	str	r3, [r7, #12]
 8005e38:	687b      	ldr	r3, [r7, #4]
 8005e3a:	681b      	ldr	r3, [r3, #0]
 8005e3c:	f003 0301 	and.w	r3, r3, #1
 8005e40:	2b00      	cmp	r3, #0
 8005e42:	d07d      	beq.n	8005f40 <HAL_RCCEx_PeriphCLKConfig+0x118>
 8005e44:	2300      	movs	r3, #0
 8005e46:	75fb      	strb	r3, [r7, #23]
 8005e48:	4b4f      	ldr	r3, [pc, #316]	; (8005f88 <HAL_RCCEx_PeriphCLKConfig+0x160>)
 8005e4a:	69db      	ldr	r3, [r3, #28]
 8005e4c:	f003 5380 	and.w	r3, r3, #268435456	; 0x10000000
 8005e50:	2b00      	cmp	r3, #0
 8005e52:	d10d      	bne.n	8005e70 <HAL_RCCEx_PeriphCLKConfig+0x48>
 8005e54:	4b4c      	ldr	r3, [pc, #304]	; (8005f88 <HAL_RCCEx_PeriphCLKConfig+0x160>)
 8005e56:	69db      	ldr	r3, [r3, #28]
 8005e58:	4a4b      	ldr	r2, [pc, #300]	; (8005f88 <HAL_RCCEx_PeriphCLKConfig+0x160>)
 8005e5a:	f043 5380 	orr.w	r3, r3, #268435456	; 0x10000000
 8005e5e:	61d3      	str	r3, [r2, #28]
 8005e60:	4b49      	ldr	r3, [pc, #292]	; (8005f88 <HAL_RCCEx_PeriphCLKConfig+0x160>)
 8005e62:	69db      	ldr	r3, [r3, #28]
 8005e64:	f003 5380 	and.w	r3, r3, #268435456	; 0x10000000
 8005e68:	60bb      	str	r3, [r7, #8]
 8005e6a:	68bb      	ldr	r3, [r7, #8]
 8005e6c:	2301      	movs	r3, #1
 8005e6e:	75fb      	strb	r3, [r7, #23]
 8005e70:	4b46      	ldr	r3, [pc, #280]	; (8005f8c <HAL_RCCEx_PeriphCLKConfig+0x164>)
 8005e72:	681b      	ldr	r3, [r3, #0]
 8005e74:	f403 7380 	and.w	r3, r3, #256	; 0x100
 8005e78:	2b00      	cmp	r3, #0
 8005e7a:	d118      	bne.n	8005eae <HAL_RCCEx_PeriphCLKConfig+0x86>
 8005e7c:	4b43      	ldr	r3, [pc, #268]	; (8005f8c <HAL_RCCEx_PeriphCLKConfig+0x164>)
 8005e7e:	681b      	ldr	r3, [r3, #0]
 8005e80:	4a42      	ldr	r2, [pc, #264]	; (8005f8c <HAL_RCCEx_PeriphCLKConfig+0x164>)
 8005e82:	f443 7380 	orr.w	r3, r3, #256	; 0x100
 8005e86:	6013      	str	r3, [r2, #0]
 8005e88:	f7fe ff6e 	bl	8004d68 <HAL_GetTick>
 8005e8c:	6138      	str	r0, [r7, #16]
 8005e8e:	e008      	b.n	8005ea2 <HAL_RCCEx_PeriphCLKConfig+0x7a>
 8005e90:	f7fe ff6a 	bl	8004d68 <HAL_GetTick>
 8005e94:	4602      	mov	r2, r0
 8005e96:	693b      	ldr	r3, [r7, #16]
 8005e98:	1ad3      	subs	r3, r2, r3
 8005e9a:	2b64      	cmp	r3, #100	; 0x64
 8005e9c:	d901      	bls.n	8005ea2 <HAL_RCCEx_PeriphCLKConfig+0x7a>
 8005e9e:	2303      	movs	r3, #3
 8005ea0:	e06d      	b.n	8005f7e <HAL_RCCEx_PeriphCLKConfig+0x156>
 8005ea2:	4b3a      	ldr	r3, [pc, #232]	; (8005f8c <HAL_RCCEx_PeriphCLKConfig+0x164>)
 8005ea4:	681b      	ldr	r3, [r3, #0]
 8005ea6:	f403 7380 	and.w	r3, r3, #256	; 0x100
 8005eaa:	2b00      	cmp	r3, #0
 8005eac:	d0f0      	beq.n	8005e90 <HAL_RCCEx_PeriphCLKConfig+0x68>
 8005eae:	4b36      	ldr	r3, [pc, #216]	; (8005f88 <HAL_RCCEx_PeriphCLKConfig+0x160>)
 8005eb0:	6a1b      	ldr	r3, [r3, #32]
 8005eb2:	f403 7340 	and.w	r3, r3, #768	; 0x300
 8005eb6:	60fb      	str	r3, [r7, #12]
 8005eb8:	68fb      	ldr	r3, [r7, #12]
 8005eba:	2b00      	cmp	r3, #0
 8005ebc:	d02e      	beq.n	8005f1c <HAL_RCCEx_PeriphCLKConfig+0xf4>
 8005ebe:	687b      	ldr	r3, [r7, #4]
 8005ec0:	685b      	ldr	r3, [r3, #4]
 8005ec2:	f403 7340 	and.w	r3, r3, #768	; 0x300
 8005ec6:	68fa      	ldr	r2, [r7, #12]
 8005ec8:	429a      	cmp	r2, r3
 8005eca:	d027      	beq.n	8005f1c <HAL_RCCEx_PeriphCLKConfig+0xf4>
 8005ecc:	4b2e      	ldr	r3, [pc, #184]	; (8005f88 <HAL_RCCEx_PeriphCLKConfig+0x160>)
 8005ece:	6a1b      	ldr	r3, [r3, #32]
 8005ed0:	f423 7340 	bic.w	r3, r3, #768	; 0x300
 8005ed4:	60fb      	str	r3, [r7, #12]
 8005ed6:	4b2e      	ldr	r3, [pc, #184]	; (8005f90 <HAL_RCCEx_PeriphCLKConfig+0x168>)
 8005ed8:	2201      	movs	r2, #1
 8005eda:	601a      	str	r2, [r3, #0]
 8005edc:	4b2c      	ldr	r3, [pc, #176]	; (8005f90 <HAL_RCCEx_PeriphCLKConfig+0x168>)
 8005ede:	2200      	movs	r2, #0
 8005ee0:	601a      	str	r2, [r3, #0]
 8005ee2:	4a29      	ldr	r2, [pc, #164]	; (8005f88 <HAL_RCCEx_PeriphCLKConfig+0x160>)
 8005ee4:	68fb      	ldr	r3, [r7, #12]
 8005ee6:	6213      	str	r3, [r2, #32]
 8005ee8:	68fb      	ldr	r3, [r7, #12]
 8005eea:	f003 0301 	and.w	r3, r3, #1
 8005eee:	2b00      	cmp	r3, #0
 8005ef0:	d014      	beq.n	8005f1c <HAL_RCCEx_PeriphCLKConfig+0xf4>
 8005ef2:	f7fe ff39 	bl	8004d68 <HAL_GetTick>
 8005ef6:	6138      	str	r0, [r7, #16]
 8005ef8:	e00a      	b.n	8005f10 <HAL_RCCEx_PeriphCLKConfig+0xe8>
 8005efa:	f7fe ff35 	bl	8004d68 <HAL_GetTick>
 8005efe:	4602      	mov	r2, r0
 8005f00:	693b      	ldr	r3, [r7, #16]
 8005f02:	1ad3      	subs	r3, r2, r3
 8005f04:	f241 3288 	movw	r2, #5000	; 0x1388
 8005f08:	4293      	cmp	r3, r2
 8005f0a:	d901      	bls.n	8005f10 <HAL_RCCEx_PeriphCLKConfig+0xe8>
 8005f0c:	2303      	movs	r3, #3
 8005f0e:	e036      	b.n	8005f7e <HAL_RCCEx_PeriphCLKConfig+0x156>
 8005f10:	4b1d      	ldr	r3, [pc, #116]	; (8005f88 <HAL_RCCEx_PeriphCLKConfig+0x160>)
 8005f12:	6a1b      	ldr	r3, [r3, #32]
 8005f14:	f003 0302 	and.w	r3, r3, #2
 8005f18:	2b00      	cmp	r3, #0
 8005f1a:	d0ee      	beq.n	8005efa <HAL_RCCEx_PeriphCLKConfig+0xd2>
 8005f1c:	4b1a      	ldr	r3, [pc, #104]	; (8005f88 <HAL_RCCEx_PeriphCLKConfig+0x160>)
 8005f1e:	6a1b      	ldr	r3, [r3, #32]
 8005f20:	f423 7240 	bic.w	r2, r3, #768	; 0x300
 8005f24:	687b      	ldr	r3, [r7, #4]
 8005f26:	685b      	ldr	r3, [r3, #4]
 8005f28:	4917      	ldr	r1, [pc, #92]	; (8005f88 <HAL_RCCEx_PeriphCLKConfig+0x160>)
 8005f2a:	4313      	orrs	r3, r2
 8005f2c:	620b      	str	r3, [r1, #32]
 8005f2e:	7dfb      	ldrb	r3, [r7, #23]
 8005f30:	2b01      	cmp	r3, #1
 8005f32:	d105      	bne.n	8005f40 <HAL_RCCEx_PeriphCLKConfig+0x118>
 8005f34:	4b14      	ldr	r3, [pc, #80]	; (8005f88 <HAL_RCCEx_PeriphCLKConfig+0x160>)
 8005f36:	69db      	ldr	r3, [r3, #28]
 8005f38:	4a13      	ldr	r2, [pc, #76]	; (8005f88 <HAL_RCCEx_PeriphCLKConfig+0x160>)
 8005f3a:	f023 5380 	bic.w	r3, r3, #268435456	; 0x10000000
 8005f3e:	61d3      	str	r3, [r2, #28]
 8005f40:	687b      	ldr	r3, [r7, #4]
 8005f42:	681b      	ldr	r3, [r3, #0]
 8005f44:	f003 0302 	and.w	r3, r3, #2
 8005f48:	2b00      	cmp	r3, #0
 8005f4a:	d008      	beq.n	8005f5e <HAL_RCCEx_PeriphCLKConfig+0x136>
 8005f4c:	4b0e      	ldr	r3, [pc, #56]	; (8005f88 <HAL_RCCEx_PeriphCLKConfig+0x160>)
 8005f4e:	685b      	ldr	r3, [r3, #4]
 8005f50:	f423 4240 	bic.w	r2, r3, #49152	; 0xc000
 8005f54:	687b      	ldr	r3, [r7, #4]
 8005f56:	689b      	ldr	r3, [r3, #8]
 8005f58:	490b      	ldr	r1, [pc, #44]	; (8005f88 <HAL_RCCEx_PeriphCLKConfig+0x160>)
 8005f5a:	4313      	orrs	r3, r2
 8005f5c:	604b      	str	r3, [r1, #4]
 8005f5e:	687b      	ldr	r3, [r7, #4]
 8005f60:	681b      	ldr	r3, [r3, #0]
 8005f62:	f003 0310 	and.w	r3, r3, #16
 8005f66:	2b00      	cmp	r3, #0
 8005f68:	d008      	beq.n	8005f7c <HAL_RCCEx_PeriphCLKConfig+0x154>
 8005f6a:	4b07      	ldr	r3, [pc, #28]	; (8005f88 <HAL_RCCEx_PeriphCLKConfig+0x160>)
 8005f6c:	685b      	ldr	r3, [r3, #4]
 8005f6e:	f423 0280 	bic.w	r2, r3, #4194304	; 0x400000
 8005f72:	687b      	ldr	r3, [r7, #4]
 8005f74:	695b      	ldr	r3, [r3, #20]
 8005f76:	4904      	ldr	r1, [pc, #16]	; (8005f88 <HAL_RCCEx_PeriphCLKConfig+0x160>)
 8005f78:	4313      	orrs	r3, r2
 8005f7a:	604b      	str	r3, [r1, #4]
 8005f7c:	2300      	movs	r3, #0
 8005f7e:	4618      	mov	r0, r3
 8005f80:	3718      	adds	r7, #24
 8005f82:	46bd      	mov	sp, r7
 8005f84:	bd80      	pop	{r7, pc}
 8005f86:	bf00      	nop
 8005f88:	40021000 	.word	0x40021000
 8005f8c:	40007000 	.word	0x40007000
 8005f90:	42420440 	.word	0x42420440

08005f94 <HAL_RCCEx_GetPeriphCLKFreq>:
 8005f94:	b580      	push	{r7, lr}
 8005f96:	b088      	sub	sp, #32
 8005f98:	af00      	add	r7, sp, #0
 8005f9a:	6078      	str	r0, [r7, #4]
 8005f9c:	2300      	movs	r3, #0
 8005f9e:	617b      	str	r3, [r7, #20]
 8005fa0:	2300      	movs	r3, #0
 8005fa2:	61fb      	str	r3, [r7, #28]
 8005fa4:	2300      	movs	r3, #0
 8005fa6:	613b      	str	r3, [r7, #16]
 8005fa8:	2300      	movs	r3, #0
 8005faa:	60fb      	str	r3, [r7, #12]
 8005fac:	2300      	movs	r3, #0
 8005fae:	61bb      	str	r3, [r7, #24]
 8005fb0:	687b      	ldr	r3, [r7, #4]
 8005fb2:	3b01      	subs	r3, #1
 8005fb4:	2b0f      	cmp	r3, #15
 8005fb6:	f200 80af 	bhi.w	8006118 <HAL_RCCEx_GetPeriphCLKFreq+0x184>
 8005fba:	a201      	add	r2, pc, #4	; (adr r2, 8005fc0 <HAL_RCCEx_GetPeriphCLKFreq+0x2c>)
 8005fbc:	f852 f023 	ldr.w	pc, [r2, r3, lsl #2]
 8005fc0:	08006097 	.word	0x08006097
 8005fc4:	080060fd 	.word	0x080060fd
 8005fc8:	08006119 	.word	0x08006119
 8005fcc:	08006087 	.word	0x08006087
 8005fd0:	08006119 	.word	0x08006119
 8005fd4:	08006119 	.word	0x08006119
 8005fd8:	08006119 	.word	0x08006119
 8005fdc:	0800608f 	.word	0x0800608f
 8005fe0:	08006119 	.word	0x08006119
 8005fe4:	08006119 	.word	0x08006119
 8005fe8:	08006119 	.word	0x08006119
 8005fec:	08006119 	.word	0x08006119
 8005ff0:	08006119 	.word	0x08006119
 8005ff4:	08006119 	.word	0x08006119
 8005ff8:	08006119 	.word	0x08006119
 8005ffc:	08006001 	.word	0x08006001
 8006000:	4b4a      	ldr	r3, [pc, #296]	; (800612c <HAL_RCCEx_GetPeriphCLKFreq+0x198>)
 8006002:	685b      	ldr	r3, [r3, #4]
 8006004:	60fb      	str	r3, [r7, #12]
 8006006:	4b49      	ldr	r3, [pc, #292]	; (800612c <HAL_RCCEx_GetPeriphCLKFreq+0x198>)
 8006008:	681b      	ldr	r3, [r3, #0]
 800600a:	f003 7380 	and.w	r3, r3, #16777216	; 0x1000000
 800600e:	2b00      	cmp	r3, #0
 8006010:	f000 8084 	beq.w	800611c <HAL_RCCEx_GetPeriphCLKFreq+0x188>
 8006014:	68fb      	ldr	r3, [r7, #12]
 8006016:	0c9b      	lsrs	r3, r3, #18
 8006018:	f003 030f 	and.w	r3, r3, #15
 800601c:	4a44      	ldr	r2, [pc, #272]	; (8006130 <HAL_RCCEx_GetPeriphCLKFreq+0x19c>)
 800601e:	5cd3      	ldrb	r3, [r2, r3]
 8006020:	613b      	str	r3, [r7, #16]
 8006022:	68fb      	ldr	r3, [r7, #12]
 8006024:	f403 3380 	and.w	r3, r3, #65536	; 0x10000
 8006028:	2b00      	cmp	r3, #0
 800602a:	d015      	beq.n	8006058 <HAL_RCCEx_GetPeriphCLKFreq+0xc4>
 800602c:	4b3f      	ldr	r3, [pc, #252]	; (800612c <HAL_RCCEx_GetPeriphCLKFreq+0x198>)
 800602e:	685b      	ldr	r3, [r3, #4]
 8006030:	0c5b      	lsrs	r3, r3, #17
 8006032:	f003 0301 	and.w	r3, r3, #1
 8006036:	4a3f      	ldr	r2, [pc, #252]	; (8006134 <HAL_RCCEx_GetPeriphCLKFreq+0x1a0>)
 8006038:	5cd3      	ldrb	r3, [r2, r3]
 800603a:	617b      	str	r3, [r7, #20]
 800603c:	68fb      	ldr	r3, [r7, #12]
 800603e:	f403 3380 	and.w	r3, r3, #65536	; 0x10000
 8006042:	2b00      	cmp	r3, #0
 8006044:	d00d      	beq.n	8006062 <HAL_RCCEx_GetPeriphCLKFreq+0xce>
 8006046:	4a3c      	ldr	r2, [pc, #240]	; (8006138 <HAL_RCCEx_GetPeriphCLKFreq+0x1a4>)
 8006048:	697b      	ldr	r3, [r7, #20]
 800604a:	fbb2 f2f3 	udiv	r2, r2, r3
 800604e:	693b      	ldr	r3, [r7, #16]
 8006050:	fb02 f303 	mul.w	r3, r2, r3
 8006054:	61fb      	str	r3, [r7, #28]
 8006056:	e004      	b.n	8006062 <HAL_RCCEx_GetPeriphCLKFreq+0xce>
 8006058:	693b      	ldr	r3, [r7, #16]
 800605a:	4a38      	ldr	r2, [pc, #224]	; (800613c <HAL_RCCEx_GetPeriphCLKFreq+0x1a8>)
 800605c:	fb02 f303 	mul.w	r3, r2, r3
 8006060:	61fb      	str	r3, [r7, #28]
 8006062:	4b32      	ldr	r3, [pc, #200]	; (800612c <HAL_RCCEx_GetPeriphCLKFreq+0x198>)
 8006064:	685b      	ldr	r3, [r3, #4]
 8006066:	f403 0380 	and.w	r3, r3, #4194304	; 0x400000
 800606a:	f5b3 0f80 	cmp.w	r3, #4194304	; 0x400000
 800606e:	d102      	bne.n	8006076 <HAL_RCCEx_GetPeriphCLKFreq+0xe2>
 8006070:	69fb      	ldr	r3, [r7, #28]
 8006072:	61bb      	str	r3, [r7, #24]
 8006074:	e052      	b.n	800611c <HAL_RCCEx_GetPeriphCLKFreq+0x188>
 8006076:	69fb      	ldr	r3, [r7, #28]
 8006078:	005b      	lsls	r3, r3, #1
 800607a:	4a31      	ldr	r2, [pc, #196]	; (8006140 <HAL_RCCEx_GetPeriphCLKFreq+0x1ac>)
 800607c:	fba2 2303 	umull	r2, r3, r2, r3
 8006080:	085b      	lsrs	r3, r3, #1
 8006082:	61bb      	str	r3, [r7, #24]
 8006084:	e04a      	b.n	800611c <HAL_RCCEx_GetPeriphCLKFreq+0x188>
 8006086:	f7ff fe2b 	bl	8005ce0 <HAL_RCC_GetSysClockFreq>
 800608a:	61b8      	str	r0, [r7, #24]
 800608c:	e049      	b.n	8006122 <HAL_RCCEx_GetPeriphCLKFreq+0x18e>
 800608e:	f7ff fe27 	bl	8005ce0 <HAL_RCC_GetSysClockFreq>
 8006092:	61b8      	str	r0, [r7, #24]
 8006094:	e045      	b.n	8006122 <HAL_RCCEx_GetPeriphCLKFreq+0x18e>
 8006096:	4b25      	ldr	r3, [pc, #148]	; (800612c <HAL_RCCEx_GetPeriphCLKFreq+0x198>)
 8006098:	6a1b      	ldr	r3, [r3, #32]
 800609a:	60fb      	str	r3, [r7, #12]
 800609c:	68fb      	ldr	r3, [r7, #12]
 800609e:	f403 7340 	and.w	r3, r3, #768	; 0x300
 80060a2:	f5b3 7f80 	cmp.w	r3, #256	; 0x100
 80060a6:	d108      	bne.n	80060ba <HAL_RCCEx_GetPeriphCLKFreq+0x126>
 80060a8:	68fb      	ldr	r3, [r7, #12]
 80060aa:	f003 0302 	and.w	r3, r3, #2
 80060ae:	2b00      	cmp	r3, #0
 80060b0:	d003      	beq.n	80060ba <HAL_RCCEx_GetPeriphCLKFreq+0x126>
 80060b2:	f44f 4300 	mov.w	r3, #32768	; 0x8000
 80060b6:	61bb      	str	r3, [r7, #24]
 80060b8:	e01f      	b.n	80060fa <HAL_RCCEx_GetPeriphCLKFreq+0x166>
 80060ba:	68fb      	ldr	r3, [r7, #12]
 80060bc:	f403 7340 	and.w	r3, r3, #768	; 0x300
 80060c0:	f5b3 7f00 	cmp.w	r3, #512	; 0x200
 80060c4:	d109      	bne.n	80060da <HAL_RCCEx_GetPeriphCLKFreq+0x146>
 80060c6:	4b19      	ldr	r3, [pc, #100]	; (800612c <HAL_RCCEx_GetPeriphCLKFreq+0x198>)
 80060c8:	6a5b      	ldr	r3, [r3, #36]	; 0x24
 80060ca:	f003 0302 	and.w	r3, r3, #2
 80060ce:	2b00      	cmp	r3, #0
 80060d0:	d003      	beq.n	80060da <HAL_RCCEx_GetPeriphCLKFreq+0x146>
 80060d2:	f649 4340 	movw	r3, #40000	; 0x9c40
 80060d6:	61bb      	str	r3, [r7, #24]
 80060d8:	e00f      	b.n	80060fa <HAL_RCCEx_GetPeriphCLKFreq+0x166>
 80060da:	68fb      	ldr	r3, [r7, #12]
 80060dc:	f403 7340 	and.w	r3, r3, #768	; 0x300
 80060e0:	f5b3 7f40 	cmp.w	r3, #768	; 0x300
 80060e4:	d11c      	bne.n	8006120 <HAL_RCCEx_GetPeriphCLKFreq+0x18c>
 80060e6:	4b11      	ldr	r3, [pc, #68]	; (800612c <HAL_RCCEx_GetPeriphCLKFreq+0x198>)
 80060e8:	681b      	ldr	r3, [r3, #0]
 80060ea:	f403 3300 	and.w	r3, r3, #131072	; 0x20000
 80060ee:	2b00      	cmp	r3, #0
 80060f0:	d016      	beq.n	8006120 <HAL_RCCEx_GetPeriphCLKFreq+0x18c>
 80060f2:	f24f 4324 	movw	r3, #62500	; 0xf424
 80060f6:	61bb      	str	r3, [r7, #24]
 80060f8:	e012      	b.n	8006120 <HAL_RCCEx_GetPeriphCLKFreq+0x18c>
 80060fa:	e011      	b.n	8006120 <HAL_RCCEx_GetPeriphCLKFreq+0x18c>
 80060fc:	f7ff fe62 	bl	8005dc4 <HAL_RCC_GetPCLK2Freq>
 8006100:	4602      	mov	r2, r0
 8006102:	4b0a      	ldr	r3, [pc, #40]	; (800612c <HAL_RCCEx_GetPeriphCLKFreq+0x198>)
 8006104:	685b      	ldr	r3, [r3, #4]
 8006106:	0b9b      	lsrs	r3, r3, #14
 8006108:	f003 0303 	and.w	r3, r3, #3
 800610c:	3301      	adds	r3, #1
 800610e:	005b      	lsls	r3, r3, #1
 8006110:	fbb2 f3f3 	udiv	r3, r2, r3
 8006114:	61bb      	str	r3, [r7, #24]
 8006116:	e004      	b.n	8006122 <HAL_RCCEx_GetPeriphCLKFreq+0x18e>
 8006118:	bf00      	nop
 800611a:	e002      	b.n	8006122 <HAL_RCCEx_GetPeriphCLKFreq+0x18e>
 800611c:	bf00      	nop
 800611e:	e000      	b.n	8006122 <HAL_RCCEx_GetPeriphCLKFreq+0x18e>
 8006120:	bf00      	nop
 8006122:	69bb      	ldr	r3, [r7, #24]
 8006124:	4618      	mov	r0, r3
 8006126:	3720      	adds	r7, #32
 8006128:	46bd      	mov	sp, r7
 800612a:	bd80      	pop	{r7, pc}
 800612c:	40021000 	.word	0x40021000
 8006130:	0800dd38 	.word	0x0800dd38
 8006134:	0800dd48 	.word	0x0800dd48
 8006138:	007a1200 	.word	0x007a1200
 800613c:	003d0900 	.word	0x003d0900
 8006140:	aaaaaaab 	.word	0xaaaaaaab

08006144 <HAL_RTC_Init>:
 8006144:	b580      	push	{r7, lr}
 8006146:	b084      	sub	sp, #16
 8006148:	af00      	add	r7, sp, #0
 800614a:	6078      	str	r0, [r7, #4]
 800614c:	2300      	movs	r3, #0
 800614e:	60fb      	str	r3, [r7, #12]
 8006150:	687b      	ldr	r3, [r7, #4]
 8006152:	2b00      	cmp	r3, #0
 8006154:	d101      	bne.n	800615a <HAL_RTC_Init+0x16>
 8006156:	2301      	movs	r3, #1
 8006158:	e07a      	b.n	8006250 <HAL_RTC_Init+0x10c>
 800615a:	687b      	ldr	r3, [r7, #4]
 800615c:	7c5b      	ldrb	r3, [r3, #17]
 800615e:	b2db      	uxtb	r3, r3
 8006160:	2b00      	cmp	r3, #0
 8006162:	d105      	bne.n	8006170 <HAL_RTC_Init+0x2c>
 8006164:	687b      	ldr	r3, [r7, #4]
 8006166:	2200      	movs	r2, #0
 8006168:	741a      	strb	r2, [r3, #16]
 800616a:	6878      	ldr	r0, [r7, #4]
 800616c:	f7fe f956 	bl	800441c <HAL_RTC_MspInit>
 8006170:	687b      	ldr	r3, [r7, #4]
 8006172:	2202      	movs	r2, #2
 8006174:	745a      	strb	r2, [r3, #17]
 8006176:	6878      	ldr	r0, [r7, #4]
 8006178:	f000 fa7e 	bl	8006678 <HAL_RTC_WaitForSynchro>
 800617c:	4603      	mov	r3, r0
 800617e:	2b00      	cmp	r3, #0
 8006180:	d004      	beq.n	800618c <HAL_RTC_Init+0x48>
 8006182:	687b      	ldr	r3, [r7, #4]
 8006184:	2204      	movs	r2, #4
 8006186:	745a      	strb	r2, [r3, #17]
 8006188:	2301      	movs	r3, #1
 800618a:	e061      	b.n	8006250 <HAL_RTC_Init+0x10c>
 800618c:	6878      	ldr	r0, [r7, #4]
 800618e:	f000 fb37 	bl	8006800 <RTC_EnterInitMode>
 8006192:	4603      	mov	r3, r0
 8006194:	2b00      	cmp	r3, #0
 8006196:	d004      	beq.n	80061a2 <HAL_RTC_Init+0x5e>
 8006198:	687b      	ldr	r3, [r7, #4]
 800619a:	2204      	movs	r2, #4
 800619c:	745a      	strb	r2, [r3, #17]
 800619e:	2301      	movs	r3, #1
 80061a0:	e056      	b.n	8006250 <HAL_RTC_Init+0x10c>
 80061a2:	687b      	ldr	r3, [r7, #4]
 80061a4:	681b      	ldr	r3, [r3, #0]
 80061a6:	685a      	ldr	r2, [r3, #4]
 80061a8:	687b      	ldr	r3, [r7, #4]
 80061aa:	681b      	ldr	r3, [r3, #0]
 80061ac:	f022 0207 	bic.w	r2, r2, #7
 80061b0:	605a      	str	r2, [r3, #4]
 80061b2:	687b      	ldr	r3, [r7, #4]
 80061b4:	689b      	ldr	r3, [r3, #8]
 80061b6:	2b00      	cmp	r3, #0
 80061b8:	d005      	beq.n	80061c6 <HAL_RTC_Init+0x82>
 80061ba:	4b27      	ldr	r3, [pc, #156]	; (8006258 <HAL_RTC_Init+0x114>)
 80061bc:	6b1b      	ldr	r3, [r3, #48]	; 0x30
 80061be:	4a26      	ldr	r2, [pc, #152]	; (8006258 <HAL_RTC_Init+0x114>)
 80061c0:	f023 0301 	bic.w	r3, r3, #1
 80061c4:	6313      	str	r3, [r2, #48]	; 0x30
 80061c6:	4b24      	ldr	r3, [pc, #144]	; (8006258 <HAL_RTC_Init+0x114>)
 80061c8:	6adb      	ldr	r3, [r3, #44]	; 0x2c
 80061ca:	f423 7260 	bic.w	r2, r3, #896	; 0x380
 80061ce:	687b      	ldr	r3, [r7, #4]
 80061d0:	689b      	ldr	r3, [r3, #8]
 80061d2:	4921      	ldr	r1, [pc, #132]	; (8006258 <HAL_RTC_Init+0x114>)
 80061d4:	4313      	orrs	r3, r2
 80061d6:	62cb      	str	r3, [r1, #44]	; 0x2c
 80061d8:	687b      	ldr	r3, [r7, #4]
 80061da:	685b      	ldr	r3, [r3, #4]
 80061dc:	f1b3 3fff 	cmp.w	r3, #4294967295
 80061e0:	d003      	beq.n	80061ea <HAL_RTC_Init+0xa6>
 80061e2:	687b      	ldr	r3, [r7, #4]
 80061e4:	685b      	ldr	r3, [r3, #4]
 80061e6:	60fb      	str	r3, [r7, #12]
 80061e8:	e00e      	b.n	8006208 <HAL_RTC_Init+0xc4>
 80061ea:	2001      	movs	r0, #1
 80061ec:	f7ff fed2 	bl	8005f94 <HAL_RCCEx_GetPeriphCLKFreq>
 80061f0:	60f8      	str	r0, [r7, #12]
 80061f2:	68fb      	ldr	r3, [r7, #12]
 80061f4:	2b00      	cmp	r3, #0
 80061f6:	d104      	bne.n	8006202 <HAL_RTC_Init+0xbe>
 80061f8:	687b      	ldr	r3, [r7, #4]
 80061fa:	2204      	movs	r2, #4
 80061fc:	745a      	strb	r2, [r3, #17]
 80061fe:	2301      	movs	r3, #1
 8006200:	e026      	b.n	8006250 <HAL_RTC_Init+0x10c>
 8006202:	68fb      	ldr	r3, [r7, #12]
 8006204:	3b01      	subs	r3, #1
 8006206:	60fb      	str	r3, [r7, #12]
 8006208:	68fb      	ldr	r3, [r7, #12]
 800620a:	0c1a      	lsrs	r2, r3, #16
 800620c:	687b      	ldr	r3, [r7, #4]
 800620e:	681b      	ldr	r3, [r3, #0]
 8006210:	f002 020f 	and.w	r2, r2, #15
 8006214:	609a      	str	r2, [r3, #8]
 8006216:	687b      	ldr	r3, [r7, #4]
 8006218:	681b      	ldr	r3, [r3, #0]
 800621a:	68fa      	ldr	r2, [r7, #12]
 800621c:	b292      	uxth	r2, r2
 800621e:	60da      	str	r2, [r3, #12]
 8006220:	6878      	ldr	r0, [r7, #4]
 8006222:	f000 fb15 	bl	8006850 <RTC_ExitInitMode>
 8006226:	4603      	mov	r3, r0
 8006228:	2b00      	cmp	r3, #0
 800622a:	d004      	beq.n	8006236 <HAL_RTC_Init+0xf2>
 800622c:	687b      	ldr	r3, [r7, #4]
 800622e:	2204      	movs	r2, #4
 8006230:	745a      	strb	r2, [r3, #17]
 8006232:	2301      	movs	r3, #1
 8006234:	e00c      	b.n	8006250 <HAL_RTC_Init+0x10c>
 8006236:	687b      	ldr	r3, [r7, #4]
 8006238:	2200      	movs	r2, #0
 800623a:	73da      	strb	r2, [r3, #15]
 800623c:	687b      	ldr	r3, [r7, #4]
 800623e:	2201      	movs	r2, #1
 8006240:	735a      	strb	r2, [r3, #13]
 8006242:	687b      	ldr	r3, [r7, #4]
 8006244:	2201      	movs	r2, #1
 8006246:	739a      	strb	r2, [r3, #14]
 8006248:	687b      	ldr	r3, [r7, #4]
 800624a:	2201      	movs	r2, #1
 800624c:	745a      	strb	r2, [r3, #17]
 800624e:	2300      	movs	r3, #0
 8006250:	4618      	mov	r0, r3
 8006252:	3710      	adds	r7, #16
 8006254:	46bd      	mov	sp, r7
 8006256:	bd80      	pop	{r7, pc}
 8006258:	40006c00 	.word	0x40006c00

0800625c <HAL_RTC_GetTime>:
 800625c:	b580      	push	{r7, lr}
 800625e:	b088      	sub	sp, #32
 8006260:	af00      	add	r7, sp, #0
 8006262:	60f8      	str	r0, [r7, #12]
 8006264:	60b9      	str	r1, [r7, #8]
 8006266:	607a      	str	r2, [r7, #4]
 8006268:	2300      	movs	r3, #0
 800626a:	61bb      	str	r3, [r7, #24]
 800626c:	2300      	movs	r3, #0
 800626e:	61fb      	str	r3, [r7, #28]
 8006270:	2300      	movs	r3, #0
 8006272:	617b      	str	r3, [r7, #20]
 8006274:	2300      	movs	r3, #0
 8006276:	613b      	str	r3, [r7, #16]
 8006278:	68fb      	ldr	r3, [r7, #12]
 800627a:	2b00      	cmp	r3, #0
 800627c:	d002      	beq.n	8006284 <HAL_RTC_GetTime+0x28>
 800627e:	68bb      	ldr	r3, [r7, #8]
 8006280:	2b00      	cmp	r3, #0
 8006282:	d101      	bne.n	8006288 <HAL_RTC_GetTime+0x2c>
 8006284:	2301      	movs	r3, #1
 8006286:	e0b5      	b.n	80063f4 <HAL_RTC_GetTime+0x198>
 8006288:	68fb      	ldr	r3, [r7, #12]
 800628a:	681b      	ldr	r3, [r3, #0]
 800628c:	685b      	ldr	r3, [r3, #4]
 800628e:	f003 0304 	and.w	r3, r3, #4
 8006292:	2b00      	cmp	r3, #0
 8006294:	d001      	beq.n	800629a <HAL_RTC_GetTime+0x3e>
 8006296:	2301      	movs	r3, #1
 8006298:	e0ac      	b.n	80063f4 <HAL_RTC_GetTime+0x198>
 800629a:	68f8      	ldr	r0, [r7, #12]
 800629c:	f000 fa19 	bl	80066d2 <RTC_ReadTimeCounter>
 80062a0:	61b8      	str	r0, [r7, #24]
 80062a2:	69bb      	ldr	r3, [r7, #24]
 80062a4:	4a55      	ldr	r2, [pc, #340]	; (80063fc <HAL_RTC_GetTime+0x1a0>)
 80062a6:	fba2 2303 	umull	r2, r3, r2, r3
 80062aa:	0adb      	lsrs	r3, r3, #11
 80062ac:	613b      	str	r3, [r7, #16]
 80062ae:	69ba      	ldr	r2, [r7, #24]
 80062b0:	4b52      	ldr	r3, [pc, #328]	; (80063fc <HAL_RTC_GetTime+0x1a0>)
 80062b2:	fba3 1302 	umull	r1, r3, r3, r2
 80062b6:	0adb      	lsrs	r3, r3, #11
 80062b8:	f44f 6161 	mov.w	r1, #3600	; 0xe10
 80062bc:	fb01 f303 	mul.w	r3, r1, r3
 80062c0:	1ad3      	subs	r3, r2, r3
 80062c2:	4a4f      	ldr	r2, [pc, #316]	; (8006400 <HAL_RTC_GetTime+0x1a4>)
 80062c4:	fba2 2303 	umull	r2, r3, r2, r3
 80062c8:	095b      	lsrs	r3, r3, #5
 80062ca:	b2da      	uxtb	r2, r3
 80062cc:	68bb      	ldr	r3, [r7, #8]
 80062ce:	705a      	strb	r2, [r3, #1]
 80062d0:	69bb      	ldr	r3, [r7, #24]
 80062d2:	4a4a      	ldr	r2, [pc, #296]	; (80063fc <HAL_RTC_GetTime+0x1a0>)
 80062d4:	fba2 1203 	umull	r1, r2, r2, r3
 80062d8:	0ad2      	lsrs	r2, r2, #11
 80062da:	f44f 6161 	mov.w	r1, #3600	; 0xe10
 80062de:	fb01 f202 	mul.w	r2, r1, r2
 80062e2:	1a9a      	subs	r2, r3, r2
 80062e4:	4b46      	ldr	r3, [pc, #280]	; (8006400 <HAL_RTC_GetTime+0x1a4>)
 80062e6:	fba3 1302 	umull	r1, r3, r3, r2
 80062ea:	0959      	lsrs	r1, r3, #5
 80062ec:	460b      	mov	r3, r1
 80062ee:	011b      	lsls	r3, r3, #4
 80062f0:	1a5b      	subs	r3, r3, r1
 80062f2:	009b      	lsls	r3, r3, #2
 80062f4:	1ad1      	subs	r1, r2, r3
 80062f6:	b2ca      	uxtb	r2, r1
 80062f8:	68bb      	ldr	r3, [r7, #8]
 80062fa:	709a      	strb	r2, [r3, #2]
 80062fc:	693b      	ldr	r3, [r7, #16]
 80062fe:	2b17      	cmp	r3, #23
 8006300:	d955      	bls.n	80063ae <HAL_RTC_GetTime+0x152>
 8006302:	693b      	ldr	r3, [r7, #16]
 8006304:	4a3f      	ldr	r2, [pc, #252]	; (8006404 <HAL_RTC_GetTime+0x1a8>)
 8006306:	fba2 2303 	umull	r2, r3, r2, r3
 800630a:	091b      	lsrs	r3, r3, #4
 800630c:	617b      	str	r3, [r7, #20]
 800630e:	6939      	ldr	r1, [r7, #16]
 8006310:	4b3c      	ldr	r3, [pc, #240]	; (8006404 <HAL_RTC_GetTime+0x1a8>)
 8006312:	fba3 2301 	umull	r2, r3, r3, r1
 8006316:	091a      	lsrs	r2, r3, #4
 8006318:	4613      	mov	r3, r2
 800631a:	005b      	lsls	r3, r3, #1
 800631c:	4413      	add	r3, r2
 800631e:	00db      	lsls	r3, r3, #3
 8006320:	1aca      	subs	r2, r1, r3
 8006322:	b2d2      	uxtb	r2, r2
 8006324:	68bb      	ldr	r3, [r7, #8]
 8006326:	701a      	strb	r2, [r3, #0]
 8006328:	68f8      	ldr	r0, [r7, #12]
 800632a:	f000 fa29 	bl	8006780 <RTC_ReadAlarmCounter>
 800632e:	61f8      	str	r0, [r7, #28]
 8006330:	69fb      	ldr	r3, [r7, #28]
 8006332:	f1b3 3fff 	cmp.w	r3, #4294967295
 8006336:	d008      	beq.n	800634a <HAL_RTC_GetTime+0xee>
 8006338:	69fa      	ldr	r2, [r7, #28]
 800633a:	69bb      	ldr	r3, [r7, #24]
 800633c:	429a      	cmp	r2, r3
 800633e:	d904      	bls.n	800634a <HAL_RTC_GetTime+0xee>
 8006340:	69fa      	ldr	r2, [r7, #28]
 8006342:	69bb      	ldr	r3, [r7, #24]
 8006344:	1ad3      	subs	r3, r2, r3
 8006346:	61fb      	str	r3, [r7, #28]
 8006348:	e002      	b.n	8006350 <HAL_RTC_GetTime+0xf4>
 800634a:	f04f 33ff 	mov.w	r3, #4294967295
 800634e:	61fb      	str	r3, [r7, #28]
 8006350:	697b      	ldr	r3, [r7, #20]
 8006352:	4a2d      	ldr	r2, [pc, #180]	; (8006408 <HAL_RTC_GetTime+0x1ac>)
 8006354:	fb02 f303 	mul.w	r3, r2, r3
 8006358:	69ba      	ldr	r2, [r7, #24]
 800635a:	1ad3      	subs	r3, r2, r3
 800635c:	61bb      	str	r3, [r7, #24]
 800635e:	69b9      	ldr	r1, [r7, #24]
 8006360:	68f8      	ldr	r0, [r7, #12]
 8006362:	f000 f9e6 	bl	8006732 <RTC_WriteTimeCounter>
 8006366:	4603      	mov	r3, r0
 8006368:	2b00      	cmp	r3, #0
 800636a:	d001      	beq.n	8006370 <HAL_RTC_GetTime+0x114>
 800636c:	2301      	movs	r3, #1
 800636e:	e041      	b.n	80063f4 <HAL_RTC_GetTime+0x198>
 8006370:	69fb      	ldr	r3, [r7, #28]
 8006372:	f1b3 3fff 	cmp.w	r3, #4294967295
 8006376:	d00c      	beq.n	8006392 <HAL_RTC_GetTime+0x136>
 8006378:	69fa      	ldr	r2, [r7, #28]
 800637a:	69bb      	ldr	r3, [r7, #24]
 800637c:	4413      	add	r3, r2
 800637e:	61fb      	str	r3, [r7, #28]
 8006380:	69f9      	ldr	r1, [r7, #28]
 8006382:	68f8      	ldr	r0, [r7, #12]
 8006384:	f000 fa15 	bl	80067b2 <RTC_WriteAlarmCounter>
 8006388:	4603      	mov	r3, r0
 800638a:	2b00      	cmp	r3, #0
 800638c:	d00a      	beq.n	80063a4 <HAL_RTC_GetTime+0x148>
 800638e:	2301      	movs	r3, #1
 8006390:	e030      	b.n	80063f4 <HAL_RTC_GetTime+0x198>
 8006392:	69f9      	ldr	r1, [r7, #28]
 8006394:	68f8      	ldr	r0, [r7, #12]
 8006396:	f000 fa0c 	bl	80067b2 <RTC_WriteAlarmCounter>
 800639a:	4603      	mov	r3, r0
 800639c:	2b00      	cmp	r3, #0
 800639e:	d001      	beq.n	80063a4 <HAL_RTC_GetTime+0x148>
 80063a0:	2301      	movs	r3, #1
 80063a2:	e027      	b.n	80063f4 <HAL_RTC_GetTime+0x198>
 80063a4:	6979      	ldr	r1, [r7, #20]
 80063a6:	68f8      	ldr	r0, [r7, #12]
 80063a8:	f000 fab4 	bl	8006914 <RTC_DateUpdate>
 80063ac:	e003      	b.n	80063b6 <HAL_RTC_GetTime+0x15a>
 80063ae:	693b      	ldr	r3, [r7, #16]
 80063b0:	b2da      	uxtb	r2, r3
 80063b2:	68bb      	ldr	r3, [r7, #8]
 80063b4:	701a      	strb	r2, [r3, #0]
 80063b6:	687b      	ldr	r3, [r7, #4]
 80063b8:	2b00      	cmp	r3, #0
 80063ba:	d01a      	beq.n	80063f2 <HAL_RTC_GetTime+0x196>
 80063bc:	68bb      	ldr	r3, [r7, #8]
 80063be:	781b      	ldrb	r3, [r3, #0]
 80063c0:	4618      	mov	r0, r3
 80063c2:	f000 fa6d 	bl	80068a0 <RTC_ByteToBcd2>
 80063c6:	4603      	mov	r3, r0
 80063c8:	461a      	mov	r2, r3
 80063ca:	68bb      	ldr	r3, [r7, #8]
 80063cc:	701a      	strb	r2, [r3, #0]
 80063ce:	68bb      	ldr	r3, [r7, #8]
 80063d0:	785b      	ldrb	r3, [r3, #1]
 80063d2:	4618      	mov	r0, r3
 80063d4:	f000 fa64 	bl	80068a0 <RTC_ByteToBcd2>
 80063d8:	4603      	mov	r3, r0
 80063da:	461a      	mov	r2, r3
 80063dc:	68bb      	ldr	r3, [r7, #8]
 80063de:	705a      	strb	r2, [r3, #1]
 80063e0:	68bb      	ldr	r3, [r7, #8]
 80063e2:	789b      	ldrb	r3, [r3, #2]
 80063e4:	4618      	mov	r0, r3
 80063e6:	f000 fa5b 	bl	80068a0 <RTC_ByteToBcd2>
 80063ea:	4603      	mov	r3, r0
 80063ec:	461a      	mov	r2, r3
 80063ee:	68bb      	ldr	r3, [r7, #8]
 80063f0:	709a      	strb	r2, [r3, #2]
 80063f2:	2300      	movs	r3, #0
 80063f4:	4618      	mov	r0, r3
 80063f6:	3720      	adds	r7, #32
 80063f8:	46bd      	mov	sp, r7
 80063fa:	bd80      	pop	{r7, pc}
 80063fc:	91a2b3c5 	.word	0x91a2b3c5
 8006400:	88888889 	.word	0x88888889
 8006404:	aaaaaaab 	.word	0xaaaaaaab
 8006408:	00015180 	.word	0x00015180

0800640c <HAL_RTC_GetDate>:
 800640c:	b580      	push	{r7, lr}
 800640e:	b086      	sub	sp, #24
 8006410:	af00      	add	r7, sp, #0
 8006412:	60f8      	str	r0, [r7, #12]
 8006414:	60b9      	str	r1, [r7, #8]
 8006416:	607a      	str	r2, [r7, #4]
 8006418:	f107 0314 	add.w	r3, r7, #20
 800641c:	2100      	movs	r1, #0
 800641e:	460a      	mov	r2, r1
 8006420:	801a      	strh	r2, [r3, #0]
 8006422:	460a      	mov	r2, r1
 8006424:	709a      	strb	r2, [r3, #2]
 8006426:	68fb      	ldr	r3, [r7, #12]
 8006428:	2b00      	cmp	r3, #0
 800642a:	d002      	beq.n	8006432 <HAL_RTC_GetDate+0x26>
 800642c:	68bb      	ldr	r3, [r7, #8]
 800642e:	2b00      	cmp	r3, #0
 8006430:	d101      	bne.n	8006436 <HAL_RTC_GetDate+0x2a>
 8006432:	2301      	movs	r3, #1
 8006434:	e03a      	b.n	80064ac <HAL_RTC_GetDate+0xa0>
 8006436:	f107 0314 	add.w	r3, r7, #20
 800643a:	2200      	movs	r2, #0
 800643c:	4619      	mov	r1, r3
 800643e:	68f8      	ldr	r0, [r7, #12]
 8006440:	f7ff ff0c 	bl	800625c <HAL_RTC_GetTime>
 8006444:	4603      	mov	r3, r0
 8006446:	2b00      	cmp	r3, #0
 8006448:	d001      	beq.n	800644e <HAL_RTC_GetDate+0x42>
 800644a:	2301      	movs	r3, #1
 800644c:	e02e      	b.n	80064ac <HAL_RTC_GetDate+0xa0>
 800644e:	68fb      	ldr	r3, [r7, #12]
 8006450:	7b1a      	ldrb	r2, [r3, #12]
 8006452:	68bb      	ldr	r3, [r7, #8]
 8006454:	701a      	strb	r2, [r3, #0]
 8006456:	68fb      	ldr	r3, [r7, #12]
 8006458:	7bda      	ldrb	r2, [r3, #15]
 800645a:	68bb      	ldr	r3, [r7, #8]
 800645c:	70da      	strb	r2, [r3, #3]
 800645e:	68fb      	ldr	r3, [r7, #12]
 8006460:	7b5a      	ldrb	r2, [r3, #13]
 8006462:	68bb      	ldr	r3, [r7, #8]
 8006464:	705a      	strb	r2, [r3, #1]
 8006466:	68fb      	ldr	r3, [r7, #12]
 8006468:	7b9a      	ldrb	r2, [r3, #14]
 800646a:	68bb      	ldr	r3, [r7, #8]
 800646c:	709a      	strb	r2, [r3, #2]
 800646e:	687b      	ldr	r3, [r7, #4]
 8006470:	2b00      	cmp	r3, #0
 8006472:	d01a      	beq.n	80064aa <HAL_RTC_GetDate+0x9e>
 8006474:	68bb      	ldr	r3, [r7, #8]
 8006476:	78db      	ldrb	r3, [r3, #3]
 8006478:	4618      	mov	r0, r3
 800647a:	f000 fa11 	bl	80068a0 <RTC_ByteToBcd2>
 800647e:	4603      	mov	r3, r0
 8006480:	461a      	mov	r2, r3
 8006482:	68bb      	ldr	r3, [r7, #8]
 8006484:	70da      	strb	r2, [r3, #3]
 8006486:	68bb      	ldr	r3, [r7, #8]
 8006488:	785b      	ldrb	r3, [r3, #1]
 800648a:	4618      	mov	r0, r3
 800648c:	f000 fa08 	bl	80068a0 <RTC_ByteToBcd2>
 8006490:	4603      	mov	r3, r0
 8006492:	461a      	mov	r2, r3
 8006494:	68bb      	ldr	r3, [r7, #8]
 8006496:	705a      	strb	r2, [r3, #1]
 8006498:	68bb      	ldr	r3, [r7, #8]
 800649a:	789b      	ldrb	r3, [r3, #2]
 800649c:	4618      	mov	r0, r3
 800649e:	f000 f9ff 	bl	80068a0 <RTC_ByteToBcd2>
 80064a2:	4603      	mov	r3, r0
 80064a4:	461a      	mov	r2, r3
 80064a6:	68bb      	ldr	r3, [r7, #8]
 80064a8:	709a      	strb	r2, [r3, #2]
 80064aa:	2300      	movs	r3, #0
 80064ac:	4618      	mov	r0, r3
 80064ae:	3718      	adds	r7, #24
 80064b0:	46bd      	mov	sp, r7
 80064b2:	bd80      	pop	{r7, pc}

080064b4 <HAL_RTC_SetAlarm_IT>:
 80064b4:	b590      	push	{r4, r7, lr}
 80064b6:	b089      	sub	sp, #36	; 0x24
 80064b8:	af00      	add	r7, sp, #0
 80064ba:	60f8      	str	r0, [r7, #12]
 80064bc:	60b9      	str	r1, [r7, #8]
 80064be:	607a      	str	r2, [r7, #4]
 80064c0:	2300      	movs	r3, #0
 80064c2:	61fb      	str	r3, [r7, #28]
 80064c4:	f107 0314 	add.w	r3, r7, #20
 80064c8:	2100      	movs	r1, #0
 80064ca:	460a      	mov	r2, r1
 80064cc:	801a      	strh	r2, [r3, #0]
 80064ce:	460a      	mov	r2, r1
 80064d0:	709a      	strb	r2, [r3, #2]
 80064d2:	68fb      	ldr	r3, [r7, #12]
 80064d4:	2b00      	cmp	r3, #0
 80064d6:	d002      	beq.n	80064de <HAL_RTC_SetAlarm_IT+0x2a>
 80064d8:	68bb      	ldr	r3, [r7, #8]
 80064da:	2b00      	cmp	r3, #0
 80064dc:	d101      	bne.n	80064e2 <HAL_RTC_SetAlarm_IT+0x2e>
 80064de:	2301      	movs	r3, #1
 80064e0:	e099      	b.n	8006616 <HAL_RTC_SetAlarm_IT+0x162>
 80064e2:	68fb      	ldr	r3, [r7, #12]
 80064e4:	7c1b      	ldrb	r3, [r3, #16]
 80064e6:	2b01      	cmp	r3, #1
 80064e8:	d101      	bne.n	80064ee <HAL_RTC_SetAlarm_IT+0x3a>
 80064ea:	2302      	movs	r3, #2
 80064ec:	e093      	b.n	8006616 <HAL_RTC_SetAlarm_IT+0x162>
 80064ee:	68fb      	ldr	r3, [r7, #12]
 80064f0:	2201      	movs	r2, #1
 80064f2:	741a      	strb	r2, [r3, #16]
 80064f4:	68fb      	ldr	r3, [r7, #12]
 80064f6:	2202      	movs	r2, #2
 80064f8:	745a      	strb	r2, [r3, #17]
 80064fa:	f107 0314 	add.w	r3, r7, #20
 80064fe:	2200      	movs	r2, #0
 8006500:	4619      	mov	r1, r3
 8006502:	68f8      	ldr	r0, [r7, #12]
 8006504:	f7ff feaa 	bl	800625c <HAL_RTC_GetTime>
 8006508:	4603      	mov	r3, r0
 800650a:	2b00      	cmp	r3, #0
 800650c:	d001      	beq.n	8006512 <HAL_RTC_SetAlarm_IT+0x5e>
 800650e:	2301      	movs	r3, #1
 8006510:	e081      	b.n	8006616 <HAL_RTC_SetAlarm_IT+0x162>
 8006512:	7d3b      	ldrb	r3, [r7, #20]
 8006514:	461a      	mov	r2, r3
 8006516:	f44f 6361 	mov.w	r3, #3600	; 0xe10
 800651a:	fb03 f202 	mul.w	r2, r3, r2
 800651e:	7d7b      	ldrb	r3, [r7, #21]
 8006520:	4619      	mov	r1, r3
 8006522:	460b      	mov	r3, r1
 8006524:	011b      	lsls	r3, r3, #4
 8006526:	1a5b      	subs	r3, r3, r1
 8006528:	009b      	lsls	r3, r3, #2
 800652a:	4413      	add	r3, r2
 800652c:	7dba      	ldrb	r2, [r7, #22]
 800652e:	4413      	add	r3, r2
 8006530:	61bb      	str	r3, [r7, #24]
 8006532:	687b      	ldr	r3, [r7, #4]
 8006534:	2b00      	cmp	r3, #0
 8006536:	d113      	bne.n	8006560 <HAL_RTC_SetAlarm_IT+0xac>
 8006538:	68bb      	ldr	r3, [r7, #8]
 800653a:	781b      	ldrb	r3, [r3, #0]
 800653c:	461a      	mov	r2, r3
 800653e:	f44f 6361 	mov.w	r3, #3600	; 0xe10
 8006542:	fb03 f202 	mul.w	r2, r3, r2
 8006546:	68bb      	ldr	r3, [r7, #8]
 8006548:	785b      	ldrb	r3, [r3, #1]
 800654a:	4619      	mov	r1, r3
 800654c:	460b      	mov	r3, r1
 800654e:	011b      	lsls	r3, r3, #4
 8006550:	1a5b      	subs	r3, r3, r1
 8006552:	009b      	lsls	r3, r3, #2
 8006554:	4413      	add	r3, r2
 8006556:	68ba      	ldr	r2, [r7, #8]
 8006558:	7892      	ldrb	r2, [r2, #2]
 800655a:	4413      	add	r3, r2
 800655c:	61fb      	str	r3, [r7, #28]
 800655e:	e01e      	b.n	800659e <HAL_RTC_SetAlarm_IT+0xea>
 8006560:	68bb      	ldr	r3, [r7, #8]
 8006562:	781b      	ldrb	r3, [r3, #0]
 8006564:	4618      	mov	r0, r3
 8006566:	f000 f9b8 	bl	80068da <RTC_Bcd2ToByte>
 800656a:	4603      	mov	r3, r0
 800656c:	461a      	mov	r2, r3
 800656e:	f44f 6361 	mov.w	r3, #3600	; 0xe10
 8006572:	fb03 f402 	mul.w	r4, r3, r2
 8006576:	68bb      	ldr	r3, [r7, #8]
 8006578:	785b      	ldrb	r3, [r3, #1]
 800657a:	4618      	mov	r0, r3
 800657c:	f000 f9ad 	bl	80068da <RTC_Bcd2ToByte>
 8006580:	4603      	mov	r3, r0
 8006582:	461a      	mov	r2, r3
 8006584:	4613      	mov	r3, r2
 8006586:	011b      	lsls	r3, r3, #4
 8006588:	1a9b      	subs	r3, r3, r2
 800658a:	009b      	lsls	r3, r3, #2
 800658c:	441c      	add	r4, r3
 800658e:	68bb      	ldr	r3, [r7, #8]
 8006590:	789b      	ldrb	r3, [r3, #2]
 8006592:	4618      	mov	r0, r3
 8006594:	f000 f9a1 	bl	80068da <RTC_Bcd2ToByte>
 8006598:	4603      	mov	r3, r0
 800659a:	4423      	add	r3, r4
 800659c:	61fb      	str	r3, [r7, #28]
 800659e:	69fa      	ldr	r2, [r7, #28]
 80065a0:	69bb      	ldr	r3, [r7, #24]
 80065a2:	429a      	cmp	r2, r3
 80065a4:	d205      	bcs.n	80065b2 <HAL_RTC_SetAlarm_IT+0xfe>
 80065a6:	69fb      	ldr	r3, [r7, #28]
 80065a8:	f503 33a8 	add.w	r3, r3, #86016	; 0x15000
 80065ac:	f503 73c0 	add.w	r3, r3, #384	; 0x180
 80065b0:	61fb      	str	r3, [r7, #28]
 80065b2:	69f9      	ldr	r1, [r7, #28]
 80065b4:	68f8      	ldr	r0, [r7, #12]
 80065b6:	f000 f8fc 	bl	80067b2 <RTC_WriteAlarmCounter>
 80065ba:	4603      	mov	r3, r0
 80065bc:	2b00      	cmp	r3, #0
 80065be:	d007      	beq.n	80065d0 <HAL_RTC_SetAlarm_IT+0x11c>
 80065c0:	68fb      	ldr	r3, [r7, #12]
 80065c2:	2204      	movs	r2, #4
 80065c4:	745a      	strb	r2, [r3, #17]
 80065c6:	68fb      	ldr	r3, [r7, #12]
 80065c8:	2200      	movs	r2, #0
 80065ca:	741a      	strb	r2, [r3, #16]
 80065cc:	2301      	movs	r3, #1
 80065ce:	e022      	b.n	8006616 <HAL_RTC_SetAlarm_IT+0x162>
 80065d0:	68fb      	ldr	r3, [r7, #12]
 80065d2:	681b      	ldr	r3, [r3, #0]
 80065d4:	685a      	ldr	r2, [r3, #4]
 80065d6:	68fb      	ldr	r3, [r7, #12]
 80065d8:	681b      	ldr	r3, [r3, #0]
 80065da:	f022 0202 	bic.w	r2, r2, #2
 80065de:	605a      	str	r2, [r3, #4]
 80065e0:	68fb      	ldr	r3, [r7, #12]
 80065e2:	681b      	ldr	r3, [r3, #0]
 80065e4:	681a      	ldr	r2, [r3, #0]
 80065e6:	68fb      	ldr	r3, [r7, #12]
 80065e8:	681b      	ldr	r3, [r3, #0]
 80065ea:	f042 0202 	orr.w	r2, r2, #2
 80065ee:	601a      	str	r2, [r3, #0]
 80065f0:	4b0b      	ldr	r3, [pc, #44]	; (8006620 <HAL_RTC_SetAlarm_IT+0x16c>)
 80065f2:	681b      	ldr	r3, [r3, #0]
 80065f4:	4a0a      	ldr	r2, [pc, #40]	; (8006620 <HAL_RTC_SetAlarm_IT+0x16c>)
 80065f6:	f443 3300 	orr.w	r3, r3, #131072	; 0x20000
 80065fa:	6013      	str	r3, [r2, #0]
 80065fc:	4b08      	ldr	r3, [pc, #32]	; (8006620 <HAL_RTC_SetAlarm_IT+0x16c>)
 80065fe:	689b      	ldr	r3, [r3, #8]
 8006600:	4a07      	ldr	r2, [pc, #28]	; (8006620 <HAL_RTC_SetAlarm_IT+0x16c>)
 8006602:	f443 3300 	orr.w	r3, r3, #131072	; 0x20000
 8006606:	6093      	str	r3, [r2, #8]
 8006608:	68fb      	ldr	r3, [r7, #12]
 800660a:	2201      	movs	r2, #1
 800660c:	745a      	strb	r2, [r3, #17]
 800660e:	68fb      	ldr	r3, [r7, #12]
 8006610:	2200      	movs	r2, #0
 8006612:	741a      	strb	r2, [r3, #16]
 8006614:	2300      	movs	r3, #0
 8006616:	4618      	mov	r0, r3
 8006618:	3724      	adds	r7, #36	; 0x24
 800661a:	46bd      	mov	sp, r7
 800661c:	bd90      	pop	{r4, r7, pc}
 800661e:	bf00      	nop
 8006620:	40010400 	.word	0x40010400

08006624 <HAL_RTC_AlarmIRQHandler>:
 8006624:	b580      	push	{r7, lr}
 8006626:	b082      	sub	sp, #8
 8006628:	af00      	add	r7, sp, #0
 800662a:	6078      	str	r0, [r7, #4]
 800662c:	687b      	ldr	r3, [r7, #4]
 800662e:	681b      	ldr	r3, [r3, #0]
 8006630:	681b      	ldr	r3, [r3, #0]
 8006632:	f003 0302 	and.w	r3, r3, #2
 8006636:	2b00      	cmp	r3, #0
 8006638:	d011      	beq.n	800665e <HAL_RTC_AlarmIRQHandler+0x3a>
 800663a:	687b      	ldr	r3, [r7, #4]
 800663c:	681b      	ldr	r3, [r3, #0]
 800663e:	685b      	ldr	r3, [r3, #4]
 8006640:	f003 0302 	and.w	r3, r3, #2
 8006644:	2b00      	cmp	r3, #0
 8006646:	d00a      	beq.n	800665e <HAL_RTC_AlarmIRQHandler+0x3a>
 8006648:	6878      	ldr	r0, [r7, #4]
 800664a:	f7fe f8b1 	bl	80047b0 <HAL_RTC_AlarmAEventCallback>
 800664e:	687b      	ldr	r3, [r7, #4]
 8006650:	681b      	ldr	r3, [r3, #0]
 8006652:	685a      	ldr	r2, [r3, #4]
 8006654:	687b      	ldr	r3, [r7, #4]
 8006656:	681b      	ldr	r3, [r3, #0]
 8006658:	f022 0202 	bic.w	r2, r2, #2
 800665c:	605a      	str	r2, [r3, #4]
 800665e:	4b05      	ldr	r3, [pc, #20]	; (8006674 <HAL_RTC_AlarmIRQHandler+0x50>)
 8006660:	f44f 3200 	mov.w	r2, #131072	; 0x20000
 8006664:	615a      	str	r2, [r3, #20]
 8006666:	687b      	ldr	r3, [r7, #4]
 8006668:	2201      	movs	r2, #1
 800666a:	745a      	strb	r2, [r3, #17]
 800666c:	bf00      	nop
 800666e:	3708      	adds	r7, #8
 8006670:	46bd      	mov	sp, r7
 8006672:	bd80      	pop	{r7, pc}
 8006674:	40010400 	.word	0x40010400

08006678 <HAL_RTC_WaitForSynchro>:
 8006678:	b580      	push	{r7, lr}
 800667a:	b084      	sub	sp, #16
 800667c:	af00      	add	r7, sp, #0
 800667e:	6078      	str	r0, [r7, #4]
 8006680:	2300      	movs	r3, #0
 8006682:	60fb      	str	r3, [r7, #12]
 8006684:	687b      	ldr	r3, [r7, #4]
 8006686:	2b00      	cmp	r3, #0
 8006688:	d101      	bne.n	800668e <HAL_RTC_WaitForSynchro+0x16>
 800668a:	2301      	movs	r3, #1
 800668c:	e01d      	b.n	80066ca <HAL_RTC_WaitForSynchro+0x52>
 800668e:	687b      	ldr	r3, [r7, #4]
 8006690:	681b      	ldr	r3, [r3, #0]
 8006692:	685a      	ldr	r2, [r3, #4]
 8006694:	687b      	ldr	r3, [r7, #4]
 8006696:	681b      	ldr	r3, [r3, #0]
 8006698:	f022 0208 	bic.w	r2, r2, #8
 800669c:	605a      	str	r2, [r3, #4]
 800669e:	f7fe fb63 	bl	8004d68 <HAL_GetTick>
 80066a2:	60f8      	str	r0, [r7, #12]
 80066a4:	e009      	b.n	80066ba <HAL_RTC_WaitForSynchro+0x42>
 80066a6:	f7fe fb5f 	bl	8004d68 <HAL_GetTick>
 80066aa:	4602      	mov	r2, r0
 80066ac:	68fb      	ldr	r3, [r7, #12]
 80066ae:	1ad3      	subs	r3, r2, r3
 80066b0:	f5b3 7f7a 	cmp.w	r3, #1000	; 0x3e8
 80066b4:	d901      	bls.n	80066ba <HAL_RTC_WaitForSynchro+0x42>
 80066b6:	2303      	movs	r3, #3
 80066b8:	e007      	b.n	80066ca <HAL_RTC_WaitForSynchro+0x52>
 80066ba:	687b      	ldr	r3, [r7, #4]
 80066bc:	681b      	ldr	r3, [r3, #0]
 80066be:	685b      	ldr	r3, [r3, #4]
 80066c0:	f003 0308 	and.w	r3, r3, #8
 80066c4:	2b00      	cmp	r3, #0
 80066c6:	d0ee      	beq.n	80066a6 <HAL_RTC_WaitForSynchro+0x2e>
 80066c8:	2300      	movs	r3, #0
 80066ca:	4618      	mov	r0, r3
 80066cc:	3710      	adds	r7, #16
 80066ce:	46bd      	mov	sp, r7
 80066d0:	bd80      	pop	{r7, pc}

080066d2 <RTC_ReadTimeCounter>:
 80066d2:	b480      	push	{r7}
 80066d4:	b087      	sub	sp, #28
 80066d6:	af00      	add	r7, sp, #0
 80066d8:	6078      	str	r0, [r7, #4]
 80066da:	2300      	movs	r3, #0
 80066dc:	827b      	strh	r3, [r7, #18]
 80066de:	2300      	movs	r3, #0
 80066e0:	823b      	strh	r3, [r7, #16]
 80066e2:	2300      	movs	r3, #0
 80066e4:	81fb      	strh	r3, [r7, #14]
 80066e6:	2300      	movs	r3, #0
 80066e8:	617b      	str	r3, [r7, #20]
 80066ea:	687b      	ldr	r3, [r7, #4]
 80066ec:	681b      	ldr	r3, [r3, #0]
 80066ee:	699b      	ldr	r3, [r3, #24]
 80066f0:	827b      	strh	r3, [r7, #18]
 80066f2:	687b      	ldr	r3, [r7, #4]
 80066f4:	681b      	ldr	r3, [r3, #0]
 80066f6:	69db      	ldr	r3, [r3, #28]
 80066f8:	81fb      	strh	r3, [r7, #14]
 80066fa:	687b      	ldr	r3, [r7, #4]
 80066fc:	681b      	ldr	r3, [r3, #0]
 80066fe:	699b      	ldr	r3, [r3, #24]
 8006700:	823b      	strh	r3, [r7, #16]
 8006702:	8a7a      	ldrh	r2, [r7, #18]
 8006704:	8a3b      	ldrh	r3, [r7, #16]
 8006706:	429a      	cmp	r2, r3
 8006708:	d008      	beq.n	800671c <RTC_ReadTimeCounter+0x4a>
 800670a:	8a3b      	ldrh	r3, [r7, #16]
 800670c:	041a      	lsls	r2, r3, #16
 800670e:	687b      	ldr	r3, [r7, #4]
 8006710:	681b      	ldr	r3, [r3, #0]
 8006712:	69db      	ldr	r3, [r3, #28]
 8006714:	b29b      	uxth	r3, r3
 8006716:	4313      	orrs	r3, r2
 8006718:	617b      	str	r3, [r7, #20]
 800671a:	e004      	b.n	8006726 <RTC_ReadTimeCounter+0x54>
 800671c:	8a7b      	ldrh	r3, [r7, #18]
 800671e:	041a      	lsls	r2, r3, #16
 8006720:	89fb      	ldrh	r3, [r7, #14]
 8006722:	4313      	orrs	r3, r2
 8006724:	617b      	str	r3, [r7, #20]
 8006726:	697b      	ldr	r3, [r7, #20]
 8006728:	4618      	mov	r0, r3
 800672a:	371c      	adds	r7, #28
 800672c:	46bd      	mov	sp, r7
 800672e:	bc80      	pop	{r7}
 8006730:	4770      	bx	lr

08006732 <RTC_WriteTimeCounter>:
 8006732:	b580      	push	{r7, lr}
 8006734:	b084      	sub	sp, #16
 8006736:	af00      	add	r7, sp, #0
 8006738:	6078      	str	r0, [r7, #4]
 800673a:	6039      	str	r1, [r7, #0]
 800673c:	2300      	movs	r3, #0
 800673e:	73fb      	strb	r3, [r7, #15]
 8006740:	6878      	ldr	r0, [r7, #4]
 8006742:	f000 f85d 	bl	8006800 <RTC_EnterInitMode>
 8006746:	4603      	mov	r3, r0
 8006748:	2b00      	cmp	r3, #0
 800674a:	d002      	beq.n	8006752 <RTC_WriteTimeCounter+0x20>
 800674c:	2301      	movs	r3, #1
 800674e:	73fb      	strb	r3, [r7, #15]
 8006750:	e011      	b.n	8006776 <RTC_WriteTimeCounter+0x44>
 8006752:	687b      	ldr	r3, [r7, #4]
 8006754:	681b      	ldr	r3, [r3, #0]
 8006756:	683a      	ldr	r2, [r7, #0]
 8006758:	0c12      	lsrs	r2, r2, #16
 800675a:	619a      	str	r2, [r3, #24]
 800675c:	687b      	ldr	r3, [r7, #4]
 800675e:	681b      	ldr	r3, [r3, #0]
 8006760:	683a      	ldr	r2, [r7, #0]
 8006762:	b292      	uxth	r2, r2
 8006764:	61da      	str	r2, [r3, #28]
 8006766:	6878      	ldr	r0, [r7, #4]
 8006768:	f000 f872 	bl	8006850 <RTC_ExitInitMode>
 800676c:	4603      	mov	r3, r0
 800676e:	2b00      	cmp	r3, #0
 8006770:	d001      	beq.n	8006776 <RTC_WriteTimeCounter+0x44>
 8006772:	2301      	movs	r3, #1
 8006774:	73fb      	strb	r3, [r7, #15]
 8006776:	7bfb      	ldrb	r3, [r7, #15]
 8006778:	4618      	mov	r0, r3
 800677a:	3710      	adds	r7, #16
 800677c:	46bd      	mov	sp, r7
 800677e:	bd80      	pop	{r7, pc}

08006780 <RTC_ReadAlarmCounter>:
 8006780:	b480      	push	{r7}
 8006782:	b085      	sub	sp, #20
 8006784:	af00      	add	r7, sp, #0
 8006786:	6078      	str	r0, [r7, #4]
 8006788:	2300      	movs	r3, #0
 800678a:	81fb      	strh	r3, [r7, #14]
 800678c:	2300      	movs	r3, #0
 800678e:	81bb      	strh	r3, [r7, #12]
 8006790:	687b      	ldr	r3, [r7, #4]
 8006792:	681b      	ldr	r3, [r3, #0]
 8006794:	6a1b      	ldr	r3, [r3, #32]
 8006796:	81fb      	strh	r3, [r7, #14]
 8006798:	687b      	ldr	r3, [r7, #4]
 800679a:	681b      	ldr	r3, [r3, #0]
 800679c:	6a5b      	ldr	r3, [r3, #36]	; 0x24
 800679e:	81bb      	strh	r3, [r7, #12]
 80067a0:	89fb      	ldrh	r3, [r7, #14]
 80067a2:	041a      	lsls	r2, r3, #16
 80067a4:	89bb      	ldrh	r3, [r7, #12]
 80067a6:	4313      	orrs	r3, r2
 80067a8:	4618      	mov	r0, r3
 80067aa:	3714      	adds	r7, #20
 80067ac:	46bd      	mov	sp, r7
 80067ae:	bc80      	pop	{r7}
 80067b0:	4770      	bx	lr

080067b2 <RTC_WriteAlarmCounter>:
 80067b2:	b580      	push	{r7, lr}
 80067b4:	b084      	sub	sp, #16
 80067b6:	af00      	add	r7, sp, #0
 80067b8:	6078      	str	r0, [r7, #4]
 80067ba:	6039      	str	r1, [r7, #0]
 80067bc:	2300      	movs	r3, #0
 80067be:	73fb      	strb	r3, [r7, #15]
 80067c0:	6878      	ldr	r0, [r7, #4]
 80067c2:	f000 f81d 	bl	8006800 <RTC_EnterInitMode>
 80067c6:	4603      	mov	r3, r0
 80067c8:	2b00      	cmp	r3, #0
 80067ca:	d002      	beq.n	80067d2 <RTC_WriteAlarmCounter+0x20>
 80067cc:	2301      	movs	r3, #1
 80067ce:	73fb      	strb	r3, [r7, #15]
 80067d0:	e011      	b.n	80067f6 <RTC_WriteAlarmCounter+0x44>
 80067d2:	687b      	ldr	r3, [r7, #4]
 80067d4:	681b      	ldr	r3, [r3, #0]
 80067d6:	683a      	ldr	r2, [r7, #0]
 80067d8:	0c12      	lsrs	r2, r2, #16
 80067da:	621a      	str	r2, [r3, #32]
 80067dc:	687b      	ldr	r3, [r7, #4]
 80067de:	681b      	ldr	r3, [r3, #0]
 80067e0:	683a      	ldr	r2, [r7, #0]
 80067e2:	b292      	uxth	r2, r2
 80067e4:	625a      	str	r2, [r3, #36]	; 0x24
 80067e6:	6878      	ldr	r0, [r7, #4]
 80067e8:	f000 f832 	bl	8006850 <RTC_ExitInitMode>
 80067ec:	4603      	mov	r3, r0
 80067ee:	2b00      	cmp	r3, #0
 80067f0:	d001      	beq.n	80067f6 <RTC_WriteAlarmCounter+0x44>
 80067f2:	2301      	movs	r3, #1
 80067f4:	73fb      	strb	r3, [r7, #15]
 80067f6:	7bfb      	ldrb	r3, [r7, #15]
 80067f8:	4618      	mov	r0, r3
 80067fa:	3710      	adds	r7, #16
 80067fc:	46bd      	mov	sp, r7
 80067fe:	bd80      	pop	{r7, pc}

08006800 <RTC_EnterInitMode>:
 8006800:	b580      	push	{r7, lr}
 8006802:	b084      	sub	sp, #16
 8006804:	af00      	add	r7, sp, #0
 8006806:	6078      	str	r0, [r7, #4]
 8006808:	2300      	movs	r3, #0
 800680a:	60fb      	str	r3, [r7, #12]
 800680c:	f7fe faac 	bl	8004d68 <HAL_GetTick>
 8006810:	60f8      	str	r0, [r7, #12]
 8006812:	e009      	b.n	8006828 <RTC_EnterInitMode+0x28>
 8006814:	f7fe faa8 	bl	8004d68 <HAL_GetTick>
 8006818:	4602      	mov	r2, r0
 800681a:	68fb      	ldr	r3, [r7, #12]
 800681c:	1ad3      	subs	r3, r2, r3
 800681e:	f5b3 7f7a 	cmp.w	r3, #1000	; 0x3e8
 8006822:	d901      	bls.n	8006828 <RTC_EnterInitMode+0x28>
 8006824:	2303      	movs	r3, #3
 8006826:	e00f      	b.n	8006848 <RTC_EnterInitMode+0x48>
 8006828:	687b      	ldr	r3, [r7, #4]
 800682a:	681b      	ldr	r3, [r3, #0]
 800682c:	685b      	ldr	r3, [r3, #4]
 800682e:	f003 0320 	and.w	r3, r3, #32
 8006832:	2b00      	cmp	r3, #0
 8006834:	d0ee      	beq.n	8006814 <RTC_EnterInitMode+0x14>
 8006836:	687b      	ldr	r3, [r7, #4]
 8006838:	681b      	ldr	r3, [r3, #0]
 800683a:	685a      	ldr	r2, [r3, #4]
 800683c:	687b      	ldr	r3, [r7, #4]
 800683e:	681b      	ldr	r3, [r3, #0]
 8006840:	f042 0210 	orr.w	r2, r2, #16
 8006844:	605a      	str	r2, [r3, #4]
 8006846:	2300      	movs	r3, #0
 8006848:	4618      	mov	r0, r3
 800684a:	3710      	adds	r7, #16
 800684c:	46bd      	mov	sp, r7
 800684e:	bd80      	pop	{r7, pc}

08006850 <RTC_ExitInitMode>:
 8006850:	b580      	push	{r7, lr}
 8006852:	b084      	sub	sp, #16
 8006854:	af00      	add	r7, sp, #0
 8006856:	6078      	str	r0, [r7, #4]
 8006858:	2300      	movs	r3, #0
 800685a:	60fb      	str	r3, [r7, #12]
 800685c:	687b      	ldr	r3, [r7, #4]
 800685e:	681b      	ldr	r3, [r3, #0]
 8006860:	685a      	ldr	r2, [r3, #4]
 8006862:	687b      	ldr	r3, [r7, #4]
 8006864:	681b      	ldr	r3, [r3, #0]
 8006866:	f022 0210 	bic.w	r2, r2, #16
 800686a:	605a      	str	r2, [r3, #4]
 800686c:	f7fe fa7c 	bl	8004d68 <HAL_GetTick>
 8006870:	60f8      	str	r0, [r7, #12]
 8006872:	e009      	b.n	8006888 <RTC_ExitInitMode+0x38>
 8006874:	f7fe fa78 	bl	8004d68 <HAL_GetTick>
 8006878:	4602      	mov	r2, r0
 800687a:	68fb      	ldr	r3, [r7, #12]
 800687c:	1ad3      	subs	r3, r2, r3
 800687e:	f5b3 7f7a 	cmp.w	r3, #1000	; 0x3e8
 8006882:	d901      	bls.n	8006888 <RTC_ExitInitMode+0x38>
 8006884:	2303      	movs	r3, #3
 8006886:	e007      	b.n	8006898 <RTC_ExitInitMode+0x48>
 8006888:	687b      	ldr	r3, [r7, #4]
 800688a:	681b      	ldr	r3, [r3, #0]
 800688c:	685b      	ldr	r3, [r3, #4]
 800688e:	f003 0320 	and.w	r3, r3, #32
 8006892:	2b00      	cmp	r3, #0
 8006894:	d0ee      	beq.n	8006874 <RTC_ExitInitMode+0x24>
 8006896:	2300      	movs	r3, #0
 8006898:	4618      	mov	r0, r3
 800689a:	3710      	adds	r7, #16
 800689c:	46bd      	mov	sp, r7
 800689e:	bd80      	pop	{r7, pc}

080068a0 <RTC_ByteToBcd2>:
 80068a0:	b480      	push	{r7}
 80068a2:	b085      	sub	sp, #20
 80068a4:	af00      	add	r7, sp, #0
 80068a6:	4603      	mov	r3, r0
 80068a8:	71fb      	strb	r3, [r7, #7]
 80068aa:	2300      	movs	r3, #0
 80068ac:	60fb      	str	r3, [r7, #12]
 80068ae:	e005      	b.n	80068bc <RTC_ByteToBcd2+0x1c>
 80068b0:	68fb      	ldr	r3, [r7, #12]
 80068b2:	3301      	adds	r3, #1
 80068b4:	60fb      	str	r3, [r7, #12]
 80068b6:	79fb      	ldrb	r3, [r7, #7]
 80068b8:	3b0a      	subs	r3, #10
 80068ba:	71fb      	strb	r3, [r7, #7]
 80068bc:	79fb      	ldrb	r3, [r7, #7]
 80068be:	2b09      	cmp	r3, #9
 80068c0:	d8f6      	bhi.n	80068b0 <RTC_ByteToBcd2+0x10>
 80068c2:	68fb      	ldr	r3, [r7, #12]
 80068c4:	b2db      	uxtb	r3, r3
 80068c6:	011b      	lsls	r3, r3, #4
 80068c8:	b2da      	uxtb	r2, r3
 80068ca:	79fb      	ldrb	r3, [r7, #7]
 80068cc:	4313      	orrs	r3, r2
 80068ce:	b2db      	uxtb	r3, r3
 80068d0:	4618      	mov	r0, r3
 80068d2:	3714      	adds	r7, #20
 80068d4:	46bd      	mov	sp, r7
 80068d6:	bc80      	pop	{r7}
 80068d8:	4770      	bx	lr

080068da <RTC_Bcd2ToByte>:
 80068da:	b480      	push	{r7}
 80068dc:	b085      	sub	sp, #20
 80068de:	af00      	add	r7, sp, #0
 80068e0:	4603      	mov	r3, r0
 80068e2:	71fb      	strb	r3, [r7, #7]
 80068e4:	2300      	movs	r3, #0
 80068e6:	60fb      	str	r3, [r7, #12]
 80068e8:	79fb      	ldrb	r3, [r7, #7]
 80068ea:	091b      	lsrs	r3, r3, #4
 80068ec:	b2db      	uxtb	r3, r3
 80068ee:	461a      	mov	r2, r3
 80068f0:	4613      	mov	r3, r2
 80068f2:	009b      	lsls	r3, r3, #2
 80068f4:	4413      	add	r3, r2
 80068f6:	005b      	lsls	r3, r3, #1
 80068f8:	60fb      	str	r3, [r7, #12]
 80068fa:	79fb      	ldrb	r3, [r7, #7]
 80068fc:	f003 030f 	and.w	r3, r3, #15
 8006900:	b2da      	uxtb	r2, r3
 8006902:	68fb      	ldr	r3, [r7, #12]
 8006904:	b2db      	uxtb	r3, r3
 8006906:	4413      	add	r3, r2
 8006908:	b2db      	uxtb	r3, r3
 800690a:	4618      	mov	r0, r3
 800690c:	3714      	adds	r7, #20
 800690e:	46bd      	mov	sp, r7
 8006910:	bc80      	pop	{r7}
 8006912:	4770      	bx	lr

08006914 <RTC_DateUpdate>:
 8006914:	b580      	push	{r7, lr}
 8006916:	b086      	sub	sp, #24
 8006918:	af00      	add	r7, sp, #0
 800691a:	6078      	str	r0, [r7, #4]
 800691c:	6039      	str	r1, [r7, #0]
 800691e:	2300      	movs	r3, #0
 8006920:	617b      	str	r3, [r7, #20]
 8006922:	2300      	movs	r3, #0
 8006924:	613b      	str	r3, [r7, #16]
 8006926:	2300      	movs	r3, #0
 8006928:	60fb      	str	r3, [r7, #12]
 800692a:	2300      	movs	r3, #0
 800692c:	60bb      	str	r3, [r7, #8]
 800692e:	687b      	ldr	r3, [r7, #4]
 8006930:	7bdb      	ldrb	r3, [r3, #15]
 8006932:	617b      	str	r3, [r7, #20]
 8006934:	687b      	ldr	r3, [r7, #4]
 8006936:	7b5b      	ldrb	r3, [r3, #13]
 8006938:	613b      	str	r3, [r7, #16]
 800693a:	687b      	ldr	r3, [r7, #4]
 800693c:	7b9b      	ldrb	r3, [r3, #14]
 800693e:	60fb      	str	r3, [r7, #12]
 8006940:	2300      	movs	r3, #0
 8006942:	60bb      	str	r3, [r7, #8]
 8006944:	e06f      	b.n	8006a26 <RTC_DateUpdate+0x112>
 8006946:	693b      	ldr	r3, [r7, #16]
 8006948:	2b01      	cmp	r3, #1
 800694a:	d011      	beq.n	8006970 <RTC_DateUpdate+0x5c>
 800694c:	693b      	ldr	r3, [r7, #16]
 800694e:	2b03      	cmp	r3, #3
 8006950:	d00e      	beq.n	8006970 <RTC_DateUpdate+0x5c>
 8006952:	693b      	ldr	r3, [r7, #16]
 8006954:	2b05      	cmp	r3, #5
 8006956:	d00b      	beq.n	8006970 <RTC_DateUpdate+0x5c>
 8006958:	693b      	ldr	r3, [r7, #16]
 800695a:	2b07      	cmp	r3, #7
 800695c:	d008      	beq.n	8006970 <RTC_DateUpdate+0x5c>
 800695e:	693b      	ldr	r3, [r7, #16]
 8006960:	2b08      	cmp	r3, #8
 8006962:	d005      	beq.n	8006970 <RTC_DateUpdate+0x5c>
 8006964:	693b      	ldr	r3, [r7, #16]
 8006966:	2b0a      	cmp	r3, #10
 8006968:	d002      	beq.n	8006970 <RTC_DateUpdate+0x5c>
 800696a:	693b      	ldr	r3, [r7, #16]
 800696c:	2b0c      	cmp	r3, #12
 800696e:	d117      	bne.n	80069a0 <RTC_DateUpdate+0x8c>
 8006970:	68fb      	ldr	r3, [r7, #12]
 8006972:	2b1e      	cmp	r3, #30
 8006974:	d803      	bhi.n	800697e <RTC_DateUpdate+0x6a>
 8006976:	68fb      	ldr	r3, [r7, #12]
 8006978:	3301      	adds	r3, #1
 800697a:	60fb      	str	r3, [r7, #12]
 800697c:	e050      	b.n	8006a20 <RTC_DateUpdate+0x10c>
 800697e:	693b      	ldr	r3, [r7, #16]
 8006980:	2b0c      	cmp	r3, #12
 8006982:	d005      	beq.n	8006990 <RTC_DateUpdate+0x7c>
 8006984:	693b      	ldr	r3, [r7, #16]
 8006986:	3301      	adds	r3, #1
 8006988:	613b      	str	r3, [r7, #16]
 800698a:	2301      	movs	r3, #1
 800698c:	60fb      	str	r3, [r7, #12]
 800698e:	e047      	b.n	8006a20 <RTC_DateUpdate+0x10c>
 8006990:	2301      	movs	r3, #1
 8006992:	613b      	str	r3, [r7, #16]
 8006994:	2301      	movs	r3, #1
 8006996:	60fb      	str	r3, [r7, #12]
 8006998:	697b      	ldr	r3, [r7, #20]
 800699a:	3301      	adds	r3, #1
 800699c:	617b      	str	r3, [r7, #20]
 800699e:	e03f      	b.n	8006a20 <RTC_DateUpdate+0x10c>
 80069a0:	693b      	ldr	r3, [r7, #16]
 80069a2:	2b04      	cmp	r3, #4
 80069a4:	d008      	beq.n	80069b8 <RTC_DateUpdate+0xa4>
 80069a6:	693b      	ldr	r3, [r7, #16]
 80069a8:	2b06      	cmp	r3, #6
 80069aa:	d005      	beq.n	80069b8 <RTC_DateUpdate+0xa4>
 80069ac:	693b      	ldr	r3, [r7, #16]
 80069ae:	2b09      	cmp	r3, #9
 80069b0:	d002      	beq.n	80069b8 <RTC_DateUpdate+0xa4>
 80069b2:	693b      	ldr	r3, [r7, #16]
 80069b4:	2b0b      	cmp	r3, #11
 80069b6:	d10c      	bne.n	80069d2 <RTC_DateUpdate+0xbe>
 80069b8:	68fb      	ldr	r3, [r7, #12]
 80069ba:	2b1d      	cmp	r3, #29
 80069bc:	d803      	bhi.n	80069c6 <RTC_DateUpdate+0xb2>
 80069be:	68fb      	ldr	r3, [r7, #12]
 80069c0:	3301      	adds	r3, #1
 80069c2:	60fb      	str	r3, [r7, #12]
 80069c4:	e02c      	b.n	8006a20 <RTC_DateUpdate+0x10c>
 80069c6:	693b      	ldr	r3, [r7, #16]
 80069c8:	3301      	adds	r3, #1
 80069ca:	613b      	str	r3, [r7, #16]
 80069cc:	2301      	movs	r3, #1
 80069ce:	60fb      	str	r3, [r7, #12]
 80069d0:	e026      	b.n	8006a20 <RTC_DateUpdate+0x10c>
 80069d2:	693b      	ldr	r3, [r7, #16]
 80069d4:	2b02      	cmp	r3, #2
 80069d6:	d123      	bne.n	8006a20 <RTC_DateUpdate+0x10c>
 80069d8:	68fb      	ldr	r3, [r7, #12]
 80069da:	2b1b      	cmp	r3, #27
 80069dc:	d803      	bhi.n	80069e6 <RTC_DateUpdate+0xd2>
 80069de:	68fb      	ldr	r3, [r7, #12]
 80069e0:	3301      	adds	r3, #1
 80069e2:	60fb      	str	r3, [r7, #12]
 80069e4:	e01c      	b.n	8006a20 <RTC_DateUpdate+0x10c>
 80069e6:	68fb      	ldr	r3, [r7, #12]
 80069e8:	2b1c      	cmp	r3, #28
 80069ea:	d111      	bne.n	8006a10 <RTC_DateUpdate+0xfc>
 80069ec:	697b      	ldr	r3, [r7, #20]
 80069ee:	b29b      	uxth	r3, r3
 80069f0:	4618      	mov	r0, r3
 80069f2:	f000 f839 	bl	8006a68 <RTC_IsLeapYear>
 80069f6:	4603      	mov	r3, r0
 80069f8:	2b00      	cmp	r3, #0
 80069fa:	d003      	beq.n	8006a04 <RTC_DateUpdate+0xf0>
 80069fc:	68fb      	ldr	r3, [r7, #12]
 80069fe:	3301      	adds	r3, #1
 8006a00:	60fb      	str	r3, [r7, #12]
 8006a02:	e00d      	b.n	8006a20 <RTC_DateUpdate+0x10c>
 8006a04:	693b      	ldr	r3, [r7, #16]
 8006a06:	3301      	adds	r3, #1
 8006a08:	613b      	str	r3, [r7, #16]
 8006a0a:	2301      	movs	r3, #1
 8006a0c:	60fb      	str	r3, [r7, #12]
 8006a0e:	e007      	b.n	8006a20 <RTC_DateUpdate+0x10c>
 8006a10:	68fb      	ldr	r3, [r7, #12]
 8006a12:	2b1d      	cmp	r3, #29
 8006a14:	d104      	bne.n	8006a20 <RTC_DateUpdate+0x10c>
 8006a16:	693b      	ldr	r3, [r7, #16]
 8006a18:	3301      	adds	r3, #1
 8006a1a:	613b      	str	r3, [r7, #16]
 8006a1c:	2301      	movs	r3, #1
 8006a1e:	60fb      	str	r3, [r7, #12]
 8006a20:	68bb      	ldr	r3, [r7, #8]
 8006a22:	3301      	adds	r3, #1
 8006a24:	60bb      	str	r3, [r7, #8]
 8006a26:	68ba      	ldr	r2, [r7, #8]
 8006a28:	683b      	ldr	r3, [r7, #0]
 8006a2a:	429a      	cmp	r2, r3
 8006a2c:	d38b      	bcc.n	8006946 <RTC_DateUpdate+0x32>
 8006a2e:	697b      	ldr	r3, [r7, #20]
 8006a30:	b2da      	uxtb	r2, r3
 8006a32:	687b      	ldr	r3, [r7, #4]
 8006a34:	73da      	strb	r2, [r3, #15]
 8006a36:	693b      	ldr	r3, [r7, #16]
 8006a38:	b2da      	uxtb	r2, r3
 8006a3a:	687b      	ldr	r3, [r7, #4]
 8006a3c:	735a      	strb	r2, [r3, #13]
 8006a3e:	68fb      	ldr	r3, [r7, #12]
 8006a40:	b2da      	uxtb	r2, r3
 8006a42:	687b      	ldr	r3, [r7, #4]
 8006a44:	739a      	strb	r2, [r3, #14]
 8006a46:	693b      	ldr	r3, [r7, #16]
 8006a48:	b2db      	uxtb	r3, r3
 8006a4a:	68fa      	ldr	r2, [r7, #12]
 8006a4c:	b2d2      	uxtb	r2, r2
 8006a4e:	4619      	mov	r1, r3
 8006a50:	6978      	ldr	r0, [r7, #20]
 8006a52:	f000 f83b 	bl	8006acc <RTC_WeekDayNum>
 8006a56:	4603      	mov	r3, r0
 8006a58:	461a      	mov	r2, r3
 8006a5a:	687b      	ldr	r3, [r7, #4]
 8006a5c:	731a      	strb	r2, [r3, #12]
 8006a5e:	bf00      	nop
 8006a60:	3718      	adds	r7, #24
 8006a62:	46bd      	mov	sp, r7
 8006a64:	bd80      	pop	{r7, pc}
	...

08006a68 <RTC_IsLeapYear>:
 8006a68:	b480      	push	{r7}
 8006a6a:	b083      	sub	sp, #12
 8006a6c:	af00      	add	r7, sp, #0
 8006a6e:	4603      	mov	r3, r0
 8006a70:	80fb      	strh	r3, [r7, #6]
 8006a72:	88fb      	ldrh	r3, [r7, #6]
 8006a74:	f003 0303 	and.w	r3, r3, #3
 8006a78:	b29b      	uxth	r3, r3
 8006a7a:	2b00      	cmp	r3, #0
 8006a7c:	d001      	beq.n	8006a82 <RTC_IsLeapYear+0x1a>
 8006a7e:	2300      	movs	r3, #0
 8006a80:	e01d      	b.n	8006abe <RTC_IsLeapYear+0x56>
 8006a82:	88fb      	ldrh	r3, [r7, #6]
 8006a84:	4a10      	ldr	r2, [pc, #64]	; (8006ac8 <RTC_IsLeapYear+0x60>)
 8006a86:	fba2 1203 	umull	r1, r2, r2, r3
 8006a8a:	0952      	lsrs	r2, r2, #5
 8006a8c:	2164      	movs	r1, #100	; 0x64
 8006a8e:	fb01 f202 	mul.w	r2, r1, r2
 8006a92:	1a9b      	subs	r3, r3, r2
 8006a94:	b29b      	uxth	r3, r3
 8006a96:	2b00      	cmp	r3, #0
 8006a98:	d001      	beq.n	8006a9e <RTC_IsLeapYear+0x36>
 8006a9a:	2301      	movs	r3, #1
 8006a9c:	e00f      	b.n	8006abe <RTC_IsLeapYear+0x56>
 8006a9e:	88fb      	ldrh	r3, [r7, #6]
 8006aa0:	4a09      	ldr	r2, [pc, #36]	; (8006ac8 <RTC_IsLeapYear+0x60>)
 8006aa2:	fba2 1203 	umull	r1, r2, r2, r3
 8006aa6:	09d2      	lsrs	r2, r2, #7
 8006aa8:	f44f 71c8 	mov.w	r1, #400	; 0x190
 8006aac:	fb01 f202 	mul.w	r2, r1, r2
 8006ab0:	1a9b      	subs	r3, r3, r2
 8006ab2:	b29b      	uxth	r3, r3
 8006ab4:	2b00      	cmp	r3, #0
 8006ab6:	d101      	bne.n	8006abc <RTC_IsLeapYear+0x54>
 8006ab8:	2301      	movs	r3, #1
 8006aba:	e000      	b.n	8006abe <RTC_IsLeapYear+0x56>
 8006abc:	2300      	movs	r3, #0
 8006abe:	4618      	mov	r0, r3
 8006ac0:	370c      	adds	r7, #12
 8006ac2:	46bd      	mov	sp, r7
 8006ac4:	bc80      	pop	{r7}
 8006ac6:	4770      	bx	lr
 8006ac8:	51eb851f 	.word	0x51eb851f

08006acc <RTC_WeekDayNum>:
 8006acc:	b480      	push	{r7}
 8006ace:	b085      	sub	sp, #20
 8006ad0:	af00      	add	r7, sp, #0
 8006ad2:	6078      	str	r0, [r7, #4]
 8006ad4:	460b      	mov	r3, r1
 8006ad6:	70fb      	strb	r3, [r7, #3]
 8006ad8:	4613      	mov	r3, r2
 8006ada:	70bb      	strb	r3, [r7, #2]
 8006adc:	2300      	movs	r3, #0
 8006ade:	60bb      	str	r3, [r7, #8]
 8006ae0:	2300      	movs	r3, #0
 8006ae2:	60fb      	str	r3, [r7, #12]
 8006ae4:	687b      	ldr	r3, [r7, #4]
 8006ae6:	f503 63fa 	add.w	r3, r3, #2000	; 0x7d0
 8006aea:	60bb      	str	r3, [r7, #8]
 8006aec:	78fb      	ldrb	r3, [r7, #3]
 8006aee:	2b02      	cmp	r3, #2
 8006af0:	d82d      	bhi.n	8006b4e <RTC_WeekDayNum+0x82>
 8006af2:	78fa      	ldrb	r2, [r7, #3]
 8006af4:	4613      	mov	r3, r2
 8006af6:	005b      	lsls	r3, r3, #1
 8006af8:	4413      	add	r3, r2
 8006afa:	00db      	lsls	r3, r3, #3
 8006afc:	1a9b      	subs	r3, r3, r2
 8006afe:	4a2c      	ldr	r2, [pc, #176]	; (8006bb0 <RTC_WeekDayNum+0xe4>)
 8006b00:	fba2 2303 	umull	r2, r3, r2, r3
 8006b04:	085a      	lsrs	r2, r3, #1
 8006b06:	78bb      	ldrb	r3, [r7, #2]
 8006b08:	441a      	add	r2, r3
 8006b0a:	68bb      	ldr	r3, [r7, #8]
 8006b0c:	441a      	add	r2, r3
 8006b0e:	68bb      	ldr	r3, [r7, #8]
 8006b10:	3b01      	subs	r3, #1
 8006b12:	089b      	lsrs	r3, r3, #2
 8006b14:	441a      	add	r2, r3
 8006b16:	68bb      	ldr	r3, [r7, #8]
 8006b18:	3b01      	subs	r3, #1
 8006b1a:	4926      	ldr	r1, [pc, #152]	; (8006bb4 <RTC_WeekDayNum+0xe8>)
 8006b1c:	fba1 1303 	umull	r1, r3, r1, r3
 8006b20:	095b      	lsrs	r3, r3, #5
 8006b22:	1ad2      	subs	r2, r2, r3
 8006b24:	68bb      	ldr	r3, [r7, #8]
 8006b26:	3b01      	subs	r3, #1
 8006b28:	4922      	ldr	r1, [pc, #136]	; (8006bb4 <RTC_WeekDayNum+0xe8>)
 8006b2a:	fba1 1303 	umull	r1, r3, r1, r3
 8006b2e:	09db      	lsrs	r3, r3, #7
 8006b30:	4413      	add	r3, r2
 8006b32:	1d1a      	adds	r2, r3, #4
 8006b34:	4b20      	ldr	r3, [pc, #128]	; (8006bb8 <RTC_WeekDayNum+0xec>)
 8006b36:	fba3 1302 	umull	r1, r3, r3, r2
 8006b3a:	1ad1      	subs	r1, r2, r3
 8006b3c:	0849      	lsrs	r1, r1, #1
 8006b3e:	440b      	add	r3, r1
 8006b40:	0899      	lsrs	r1, r3, #2
 8006b42:	460b      	mov	r3, r1
 8006b44:	00db      	lsls	r3, r3, #3
 8006b46:	1a5b      	subs	r3, r3, r1
 8006b48:	1ad3      	subs	r3, r2, r3
 8006b4a:	60fb      	str	r3, [r7, #12]
 8006b4c:	e029      	b.n	8006ba2 <RTC_WeekDayNum+0xd6>
 8006b4e:	78fa      	ldrb	r2, [r7, #3]
 8006b50:	4613      	mov	r3, r2
 8006b52:	005b      	lsls	r3, r3, #1
 8006b54:	4413      	add	r3, r2
 8006b56:	00db      	lsls	r3, r3, #3
 8006b58:	1a9b      	subs	r3, r3, r2
 8006b5a:	4a15      	ldr	r2, [pc, #84]	; (8006bb0 <RTC_WeekDayNum+0xe4>)
 8006b5c:	fba2 2303 	umull	r2, r3, r2, r3
 8006b60:	085a      	lsrs	r2, r3, #1
 8006b62:	78bb      	ldrb	r3, [r7, #2]
 8006b64:	441a      	add	r2, r3
 8006b66:	68bb      	ldr	r3, [r7, #8]
 8006b68:	441a      	add	r2, r3
 8006b6a:	68bb      	ldr	r3, [r7, #8]
 8006b6c:	089b      	lsrs	r3, r3, #2
 8006b6e:	441a      	add	r2, r3
 8006b70:	68bb      	ldr	r3, [r7, #8]
 8006b72:	4910      	ldr	r1, [pc, #64]	; (8006bb4 <RTC_WeekDayNum+0xe8>)
 8006b74:	fba1 1303 	umull	r1, r3, r1, r3
 8006b78:	095b      	lsrs	r3, r3, #5
 8006b7a:	1ad2      	subs	r2, r2, r3
 8006b7c:	68bb      	ldr	r3, [r7, #8]
 8006b7e:	490d      	ldr	r1, [pc, #52]	; (8006bb4 <RTC_WeekDayNum+0xe8>)
 8006b80:	fba1 1303 	umull	r1, r3, r1, r3
 8006b84:	09db      	lsrs	r3, r3, #7
 8006b86:	4413      	add	r3, r2
 8006b88:	1c9a      	adds	r2, r3, #2
 8006b8a:	4b0b      	ldr	r3, [pc, #44]	; (8006bb8 <RTC_WeekDayNum+0xec>)
 8006b8c:	fba3 1302 	umull	r1, r3, r3, r2
 8006b90:	1ad1      	subs	r1, r2, r3
 8006b92:	0849      	lsrs	r1, r1, #1
 8006b94:	440b      	add	r3, r1
 8006b96:	0899      	lsrs	r1, r3, #2
 8006b98:	460b      	mov	r3, r1
 8006b9a:	00db      	lsls	r3, r3, #3
 8006b9c:	1a5b      	subs	r3, r3, r1
 8006b9e:	1ad3      	subs	r3, r2, r3
 8006ba0:	60fb      	str	r3, [r7, #12]
 8006ba2:	68fb      	ldr	r3, [r7, #12]
 8006ba4:	b2db      	uxtb	r3, r3
 8006ba6:	4618      	mov	r0, r3
 8006ba8:	3714      	adds	r7, #20
 8006baa:	46bd      	mov	sp, r7
 8006bac:	bc80      	pop	{r7}
 8006bae:	4770      	bx	lr
 8006bb0:	38e38e39 	.word	0x38e38e39
 8006bb4:	51eb851f 	.word	0x51eb851f
 8006bb8:	24924925 	.word	0x24924925

08006bbc <HAL_RTCEx_RTCIRQHandler>:
 8006bbc:	b580      	push	{r7, lr}
 8006bbe:	b082      	sub	sp, #8
 8006bc0:	af00      	add	r7, sp, #0
 8006bc2:	6078      	str	r0, [r7, #4]
 8006bc4:	687b      	ldr	r3, [r7, #4]
 8006bc6:	681b      	ldr	r3, [r3, #0]
 8006bc8:	681b      	ldr	r3, [r3, #0]
 8006bca:	f003 0301 	and.w	r3, r3, #1
 8006bce:	2b00      	cmp	r3, #0
 8006bd0:	d027      	beq.n	8006c22 <HAL_RTCEx_RTCIRQHandler+0x66>
 8006bd2:	687b      	ldr	r3, [r7, #4]
 8006bd4:	681b      	ldr	r3, [r3, #0]
 8006bd6:	685b      	ldr	r3, [r3, #4]
 8006bd8:	f003 0301 	and.w	r3, r3, #1
 8006bdc:	2b00      	cmp	r3, #0
 8006bde:	d020      	beq.n	8006c22 <HAL_RTCEx_RTCIRQHandler+0x66>
 8006be0:	687b      	ldr	r3, [r7, #4]
 8006be2:	681b      	ldr	r3, [r3, #0]
 8006be4:	685b      	ldr	r3, [r3, #4]
 8006be6:	f003 0304 	and.w	r3, r3, #4
 8006bea:	2b00      	cmp	r3, #0
 8006bec:	d00b      	beq.n	8006c06 <HAL_RTCEx_RTCIRQHandler+0x4a>
 8006bee:	6878      	ldr	r0, [r7, #4]
 8006bf0:	f000 f81b 	bl	8006c2a <HAL_RTCEx_RTCEventErrorCallback>
 8006bf4:	687b      	ldr	r3, [r7, #4]
 8006bf6:	681b      	ldr	r3, [r3, #0]
 8006bf8:	f06f 0204 	mvn.w	r2, #4
 8006bfc:	605a      	str	r2, [r3, #4]
 8006bfe:	687b      	ldr	r3, [r7, #4]
 8006c00:	2204      	movs	r2, #4
 8006c02:	745a      	strb	r2, [r3, #17]
 8006c04:	e005      	b.n	8006c12 <HAL_RTCEx_RTCIRQHandler+0x56>
 8006c06:	6878      	ldr	r0, [r7, #4]
 8006c08:	f7fd fda0 	bl	800474c <HAL_RTCEx_RTCEventCallback>
 8006c0c:	687b      	ldr	r3, [r7, #4]
 8006c0e:	2201      	movs	r2, #1
 8006c10:	745a      	strb	r2, [r3, #17]
 8006c12:	687b      	ldr	r3, [r7, #4]
 8006c14:	681b      	ldr	r3, [r3, #0]
 8006c16:	685a      	ldr	r2, [r3, #4]
 8006c18:	687b      	ldr	r3, [r7, #4]
 8006c1a:	681b      	ldr	r3, [r3, #0]
 8006c1c:	f022 0201 	bic.w	r2, r2, #1
 8006c20:	605a      	str	r2, [r3, #4]
 8006c22:	bf00      	nop
 8006c24:	3708      	adds	r7, #8
 8006c26:	46bd      	mov	sp, r7
 8006c28:	bd80      	pop	{r7, pc}

08006c2a <HAL_RTCEx_RTCEventErrorCallback>:
 8006c2a:	b480      	push	{r7}
 8006c2c:	b083      	sub	sp, #12
 8006c2e:	af00      	add	r7, sp, #0
 8006c30:	6078      	str	r0, [r7, #4]
 8006c32:	bf00      	nop
 8006c34:	370c      	adds	r7, #12
 8006c36:	46bd      	mov	sp, r7
 8006c38:	bc80      	pop	{r7}
 8006c3a:	4770      	bx	lr

08006c3c <HAL_SPI_Init>:
 8006c3c:	b580      	push	{r7, lr}
 8006c3e:	b082      	sub	sp, #8
 8006c40:	af00      	add	r7, sp, #0
 8006c42:	6078      	str	r0, [r7, #4]
 8006c44:	687b      	ldr	r3, [r7, #4]
 8006c46:	2b00      	cmp	r3, #0
 8006c48:	d101      	bne.n	8006c4e <HAL_SPI_Init+0x12>
 8006c4a:	2301      	movs	r3, #1
 8006c4c:	e076      	b.n	8006d3c <HAL_SPI_Init+0x100>
 8006c4e:	687b      	ldr	r3, [r7, #4]
 8006c50:	6a5b      	ldr	r3, [r3, #36]	; 0x24
 8006c52:	2b00      	cmp	r3, #0
 8006c54:	d108      	bne.n	8006c68 <HAL_SPI_Init+0x2c>
 8006c56:	687b      	ldr	r3, [r7, #4]
 8006c58:	685b      	ldr	r3, [r3, #4]
 8006c5a:	f5b3 7f82 	cmp.w	r3, #260	; 0x104
 8006c5e:	d009      	beq.n	8006c74 <HAL_SPI_Init+0x38>
 8006c60:	687b      	ldr	r3, [r7, #4]
 8006c62:	2200      	movs	r2, #0
 8006c64:	61da      	str	r2, [r3, #28]
 8006c66:	e005      	b.n	8006c74 <HAL_SPI_Init+0x38>
 8006c68:	687b      	ldr	r3, [r7, #4]
 8006c6a:	2200      	movs	r2, #0
 8006c6c:	611a      	str	r2, [r3, #16]
 8006c6e:	687b      	ldr	r3, [r7, #4]
 8006c70:	2200      	movs	r2, #0
 8006c72:	615a      	str	r2, [r3, #20]
 8006c74:	687b      	ldr	r3, [r7, #4]
 8006c76:	2200      	movs	r2, #0
 8006c78:	629a      	str	r2, [r3, #40]	; 0x28
 8006c7a:	687b      	ldr	r3, [r7, #4]
 8006c7c:	f893 3051 	ldrb.w	r3, [r3, #81]	; 0x51
 8006c80:	b2db      	uxtb	r3, r3
 8006c82:	2b00      	cmp	r3, #0
 8006c84:	d106      	bne.n	8006c94 <HAL_SPI_Init+0x58>
 8006c86:	687b      	ldr	r3, [r7, #4]
 8006c88:	2200      	movs	r2, #0
 8006c8a:	f883 2050 	strb.w	r2, [r3, #80]	; 0x50
 8006c8e:	6878      	ldr	r0, [r7, #4]
 8006c90:	f7fd fdde 	bl	8004850 <HAL_SPI_MspInit>
 8006c94:	687b      	ldr	r3, [r7, #4]
 8006c96:	2202      	movs	r2, #2
 8006c98:	f883 2051 	strb.w	r2, [r3, #81]	; 0x51
 8006c9c:	687b      	ldr	r3, [r7, #4]
 8006c9e:	681b      	ldr	r3, [r3, #0]
 8006ca0:	681a      	ldr	r2, [r3, #0]
 8006ca2:	687b      	ldr	r3, [r7, #4]
 8006ca4:	681b      	ldr	r3, [r3, #0]
 8006ca6:	f022 0240 	bic.w	r2, r2, #64	; 0x40
 8006caa:	601a      	str	r2, [r3, #0]
 8006cac:	687b      	ldr	r3, [r7, #4]
 8006cae:	685b      	ldr	r3, [r3, #4]
 8006cb0:	f403 7282 	and.w	r2, r3, #260	; 0x104
 8006cb4:	687b      	ldr	r3, [r7, #4]
 8006cb6:	689b      	ldr	r3, [r3, #8]
 8006cb8:	f403 4304 	and.w	r3, r3, #33792	; 0x8400
 8006cbc:	431a      	orrs	r2, r3
 8006cbe:	687b      	ldr	r3, [r7, #4]
 8006cc0:	68db      	ldr	r3, [r3, #12]
 8006cc2:	f403 6300 	and.w	r3, r3, #2048	; 0x800
 8006cc6:	431a      	orrs	r2, r3
 8006cc8:	687b      	ldr	r3, [r7, #4]
 8006cca:	691b      	ldr	r3, [r3, #16]
 8006ccc:	f003 0302 	and.w	r3, r3, #2
 8006cd0:	431a      	orrs	r2, r3
 8006cd2:	687b      	ldr	r3, [r7, #4]
 8006cd4:	695b      	ldr	r3, [r3, #20]
 8006cd6:	f003 0301 	and.w	r3, r3, #1
 8006cda:	431a      	orrs	r2, r3
 8006cdc:	687b      	ldr	r3, [r7, #4]
 8006cde:	699b      	ldr	r3, [r3, #24]
 8006ce0:	f403 7300 	and.w	r3, r3, #512	; 0x200
 8006ce4:	431a      	orrs	r2, r3
 8006ce6:	687b      	ldr	r3, [r7, #4]
 8006ce8:	69db      	ldr	r3, [r3, #28]
 8006cea:	f003 0338 	and.w	r3, r3, #56	; 0x38
 8006cee:	431a      	orrs	r2, r3
 8006cf0:	687b      	ldr	r3, [r7, #4]
 8006cf2:	6a1b      	ldr	r3, [r3, #32]
 8006cf4:	f003 0380 	and.w	r3, r3, #128	; 0x80
 8006cf8:	ea42 0103 	orr.w	r1, r2, r3
 8006cfc:	687b      	ldr	r3, [r7, #4]
 8006cfe:	6a9b      	ldr	r3, [r3, #40]	; 0x28
 8006d00:	f403 5200 	and.w	r2, r3, #8192	; 0x2000
 8006d04:	687b      	ldr	r3, [r7, #4]
 8006d06:	681b      	ldr	r3, [r3, #0]
 8006d08:	430a      	orrs	r2, r1
 8006d0a:	601a      	str	r2, [r3, #0]
 8006d0c:	687b      	ldr	r3, [r7, #4]
 8006d0e:	699b      	ldr	r3, [r3, #24]
 8006d10:	0c1a      	lsrs	r2, r3, #16
 8006d12:	687b      	ldr	r3, [r7, #4]
 8006d14:	681b      	ldr	r3, [r3, #0]
 8006d16:	f002 0204 	and.w	r2, r2, #4
 8006d1a:	605a      	str	r2, [r3, #4]
 8006d1c:	687b      	ldr	r3, [r7, #4]
 8006d1e:	681b      	ldr	r3, [r3, #0]
 8006d20:	69da      	ldr	r2, [r3, #28]
 8006d22:	687b      	ldr	r3, [r7, #4]
 8006d24:	681b      	ldr	r3, [r3, #0]
 8006d26:	f422 6200 	bic.w	r2, r2, #2048	; 0x800
 8006d2a:	61da      	str	r2, [r3, #28]
 8006d2c:	687b      	ldr	r3, [r7, #4]
 8006d2e:	2200      	movs	r2, #0
 8006d30:	655a      	str	r2, [r3, #84]	; 0x54
 8006d32:	687b      	ldr	r3, [r7, #4]
 8006d34:	2201      	movs	r2, #1
 8006d36:	f883 2051 	strb.w	r2, [r3, #81]	; 0x51
 8006d3a:	2300      	movs	r3, #0
 8006d3c:	4618      	mov	r0, r3
 8006d3e:	3708      	adds	r7, #8
 8006d40:	46bd      	mov	sp, r7
 8006d42:	bd80      	pop	{r7, pc}

08006d44 <HAL_SRAM_Init>:
 8006d44:	b580      	push	{r7, lr}
 8006d46:	b084      	sub	sp, #16
 8006d48:	af00      	add	r7, sp, #0
 8006d4a:	60f8      	str	r0, [r7, #12]
 8006d4c:	60b9      	str	r1, [r7, #8]
 8006d4e:	607a      	str	r2, [r7, #4]
 8006d50:	68fb      	ldr	r3, [r7, #12]
 8006d52:	2b00      	cmp	r3, #0
 8006d54:	d004      	beq.n	8006d60 <HAL_SRAM_Init+0x1c>
 8006d56:	68fb      	ldr	r3, [r7, #12]
 8006d58:	699b      	ldr	r3, [r3, #24]
 8006d5a:	f5b3 7f80 	cmp.w	r3, #256	; 0x100
 8006d5e:	d101      	bne.n	8006d64 <HAL_SRAM_Init+0x20>
 8006d60:	2301      	movs	r3, #1
 8006d62:	e038      	b.n	8006dd6 <HAL_SRAM_Init+0x92>
 8006d64:	68fb      	ldr	r3, [r7, #12]
 8006d66:	f893 3041 	ldrb.w	r3, [r3, #65]	; 0x41
 8006d6a:	b2db      	uxtb	r3, r3
 8006d6c:	2b00      	cmp	r3, #0
 8006d6e:	d106      	bne.n	8006d7e <HAL_SRAM_Init+0x3a>
 8006d70:	68fb      	ldr	r3, [r7, #12]
 8006d72:	2200      	movs	r2, #0
 8006d74:	f883 2040 	strb.w	r2, [r3, #64]	; 0x40
 8006d78:	68f8      	ldr	r0, [r7, #12]
 8006d7a:	f7fd f931 	bl	8003fe0 <HAL_SRAM_MspInit>
 8006d7e:	68fb      	ldr	r3, [r7, #12]
 8006d80:	681a      	ldr	r2, [r3, #0]
 8006d82:	68fb      	ldr	r3, [r7, #12]
 8006d84:	3308      	adds	r3, #8
 8006d86:	4619      	mov	r1, r3
 8006d88:	4610      	mov	r0, r2
 8006d8a:	f000 fe4b 	bl	8007a24 <FSMC_NORSRAM_Init>
 8006d8e:	68fb      	ldr	r3, [r7, #12]
 8006d90:	6818      	ldr	r0, [r3, #0]
 8006d92:	68fb      	ldr	r3, [r7, #12]
 8006d94:	689b      	ldr	r3, [r3, #8]
 8006d96:	461a      	mov	r2, r3
 8006d98:	68b9      	ldr	r1, [r7, #8]
 8006d9a:	f000 fead 	bl	8007af8 <FSMC_NORSRAM_Timing_Init>
 8006d9e:	68fb      	ldr	r3, [r7, #12]
 8006da0:	6858      	ldr	r0, [r3, #4]
 8006da2:	68fb      	ldr	r3, [r7, #12]
 8006da4:	689a      	ldr	r2, [r3, #8]
 8006da6:	68fb      	ldr	r3, [r7, #12]
 8006da8:	6b1b      	ldr	r3, [r3, #48]	; 0x30
 8006daa:	6879      	ldr	r1, [r7, #4]
 8006dac:	f000 fed8 	bl	8007b60 <FSMC_NORSRAM_Extended_Timing_Init>
 8006db0:	68fb      	ldr	r3, [r7, #12]
 8006db2:	681b      	ldr	r3, [r3, #0]
 8006db4:	68fa      	ldr	r2, [r7, #12]
 8006db6:	6892      	ldr	r2, [r2, #8]
 8006db8:	f853 1022 	ldr.w	r1, [r3, r2, lsl #2]
 8006dbc:	68fb      	ldr	r3, [r7, #12]
 8006dbe:	681b      	ldr	r3, [r3, #0]
 8006dc0:	68fa      	ldr	r2, [r7, #12]
 8006dc2:	6892      	ldr	r2, [r2, #8]
 8006dc4:	f041 0101 	orr.w	r1, r1, #1
 8006dc8:	f843 1022 	str.w	r1, [r3, r2, lsl #2]
 8006dcc:	68fb      	ldr	r3, [r7, #12]
 8006dce:	2201      	movs	r2, #1
 8006dd0:	f883 2041 	strb.w	r2, [r3, #65]	; 0x41
 8006dd4:	2300      	movs	r3, #0
 8006dd6:	4618      	mov	r0, r3
 8006dd8:	3710      	adds	r7, #16
 8006dda:	46bd      	mov	sp, r7
 8006ddc:	bd80      	pop	{r7, pc}

08006dde <HAL_UART_Init>:
 8006dde:	b580      	push	{r7, lr}
 8006de0:	b082      	sub	sp, #8
 8006de2:	af00      	add	r7, sp, #0
 8006de4:	6078      	str	r0, [r7, #4]
 8006de6:	687b      	ldr	r3, [r7, #4]
 8006de8:	2b00      	cmp	r3, #0
 8006dea:	d101      	bne.n	8006df0 <HAL_UART_Init+0x12>
 8006dec:	2301      	movs	r3, #1
 8006dee:	e042      	b.n	8006e76 <HAL_UART_Init+0x98>
 8006df0:	687b      	ldr	r3, [r7, #4]
 8006df2:	f893 3041 	ldrb.w	r3, [r3, #65]	; 0x41
 8006df6:	b2db      	uxtb	r3, r3
 8006df8:	2b00      	cmp	r3, #0
 8006dfa:	d106      	bne.n	8006e0a <HAL_UART_Init+0x2c>
 8006dfc:	687b      	ldr	r3, [r7, #4]
 8006dfe:	2200      	movs	r2, #0
 8006e00:	f883 2040 	strb.w	r2, [r3, #64]	; 0x40
 8006e04:	6878      	ldr	r0, [r7, #4]
 8006e06:	f7fd fec7 	bl	8004b98 <HAL_UART_MspInit>
 8006e0a:	687b      	ldr	r3, [r7, #4]
 8006e0c:	2224      	movs	r2, #36	; 0x24
 8006e0e:	f883 2041 	strb.w	r2, [r3, #65]	; 0x41
 8006e12:	687b      	ldr	r3, [r7, #4]
 8006e14:	681b      	ldr	r3, [r3, #0]
 8006e16:	68da      	ldr	r2, [r3, #12]
 8006e18:	687b      	ldr	r3, [r7, #4]
 8006e1a:	681b      	ldr	r3, [r3, #0]
 8006e1c:	f422 5200 	bic.w	r2, r2, #8192	; 0x2000
 8006e20:	60da      	str	r2, [r3, #12]
 8006e22:	6878      	ldr	r0, [r7, #4]
 8006e24:	f000 fd70 	bl	8007908 <UART_SetConfig>
 8006e28:	687b      	ldr	r3, [r7, #4]
 8006e2a:	681b      	ldr	r3, [r3, #0]
 8006e2c:	691a      	ldr	r2, [r3, #16]
 8006e2e:	687b      	ldr	r3, [r7, #4]
 8006e30:	681b      	ldr	r3, [r3, #0]
 8006e32:	f422 4290 	bic.w	r2, r2, #18432	; 0x4800
 8006e36:	611a      	str	r2, [r3, #16]
 8006e38:	687b      	ldr	r3, [r7, #4]
 8006e3a:	681b      	ldr	r3, [r3, #0]
 8006e3c:	695a      	ldr	r2, [r3, #20]
 8006e3e:	687b      	ldr	r3, [r7, #4]
 8006e40:	681b      	ldr	r3, [r3, #0]
 8006e42:	f022 022a 	bic.w	r2, r2, #42	; 0x2a
 8006e46:	615a      	str	r2, [r3, #20]
 8006e48:	687b      	ldr	r3, [r7, #4]
 8006e4a:	681b      	ldr	r3, [r3, #0]
 8006e4c:	68da      	ldr	r2, [r3, #12]
 8006e4e:	687b      	ldr	r3, [r7, #4]
 8006e50:	681b      	ldr	r3, [r3, #0]
 8006e52:	f442 5200 	orr.w	r2, r2, #8192	; 0x2000
 8006e56:	60da      	str	r2, [r3, #12]
 8006e58:	687b      	ldr	r3, [r7, #4]
 8006e5a:	2200      	movs	r2, #0
 8006e5c:	645a      	str	r2, [r3, #68]	; 0x44
 8006e5e:	687b      	ldr	r3, [r7, #4]
 8006e60:	2220      	movs	r2, #32
 8006e62:	f883 2041 	strb.w	r2, [r3, #65]	; 0x41
 8006e66:	687b      	ldr	r3, [r7, #4]
 8006e68:	2220      	movs	r2, #32
 8006e6a:	f883 2042 	strb.w	r2, [r3, #66]	; 0x42
 8006e6e:	687b      	ldr	r3, [r7, #4]
 8006e70:	2200      	movs	r2, #0
 8006e72:	635a      	str	r2, [r3, #52]	; 0x34
 8006e74:	2300      	movs	r3, #0
 8006e76:	4618      	mov	r0, r3
 8006e78:	3708      	adds	r7, #8
 8006e7a:	46bd      	mov	sp, r7
 8006e7c:	bd80      	pop	{r7, pc}

08006e7e <HAL_UART_Transmit>:
 8006e7e:	b580      	push	{r7, lr}
 8006e80:	b08a      	sub	sp, #40	; 0x28
 8006e82:	af02      	add	r7, sp, #8
 8006e84:	60f8      	str	r0, [r7, #12]
 8006e86:	60b9      	str	r1, [r7, #8]
 8006e88:	603b      	str	r3, [r7, #0]
 8006e8a:	4613      	mov	r3, r2
 8006e8c:	80fb      	strh	r3, [r7, #6]
 8006e8e:	2300      	movs	r3, #0
 8006e90:	617b      	str	r3, [r7, #20]
 8006e92:	68fb      	ldr	r3, [r7, #12]
 8006e94:	f893 3041 	ldrb.w	r3, [r3, #65]	; 0x41
 8006e98:	b2db      	uxtb	r3, r3
 8006e9a:	2b20      	cmp	r3, #32
 8006e9c:	d16d      	bne.n	8006f7a <HAL_UART_Transmit+0xfc>
 8006e9e:	68bb      	ldr	r3, [r7, #8]
 8006ea0:	2b00      	cmp	r3, #0
 8006ea2:	d002      	beq.n	8006eaa <HAL_UART_Transmit+0x2c>
 8006ea4:	88fb      	ldrh	r3, [r7, #6]
 8006ea6:	2b00      	cmp	r3, #0
 8006ea8:	d101      	bne.n	8006eae <HAL_UART_Transmit+0x30>
 8006eaa:	2301      	movs	r3, #1
 8006eac:	e066      	b.n	8006f7c <HAL_UART_Transmit+0xfe>
 8006eae:	68fb      	ldr	r3, [r7, #12]
 8006eb0:	2200      	movs	r2, #0
 8006eb2:	645a      	str	r2, [r3, #68]	; 0x44
 8006eb4:	68fb      	ldr	r3, [r7, #12]
 8006eb6:	2221      	movs	r2, #33	; 0x21
 8006eb8:	f883 2041 	strb.w	r2, [r3, #65]	; 0x41
 8006ebc:	f7fd ff54 	bl	8004d68 <HAL_GetTick>
 8006ec0:	6178      	str	r0, [r7, #20]
 8006ec2:	68fb      	ldr	r3, [r7, #12]
 8006ec4:	88fa      	ldrh	r2, [r7, #6]
 8006ec6:	849a      	strh	r2, [r3, #36]	; 0x24
 8006ec8:	68fb      	ldr	r3, [r7, #12]
 8006eca:	88fa      	ldrh	r2, [r7, #6]
 8006ecc:	84da      	strh	r2, [r3, #38]	; 0x26
 8006ece:	68fb      	ldr	r3, [r7, #12]
 8006ed0:	689b      	ldr	r3, [r3, #8]
 8006ed2:	f5b3 5f80 	cmp.w	r3, #4096	; 0x1000
 8006ed6:	d108      	bne.n	8006eea <HAL_UART_Transmit+0x6c>
 8006ed8:	68fb      	ldr	r3, [r7, #12]
 8006eda:	691b      	ldr	r3, [r3, #16]
 8006edc:	2b00      	cmp	r3, #0
 8006ede:	d104      	bne.n	8006eea <HAL_UART_Transmit+0x6c>
 8006ee0:	2300      	movs	r3, #0
 8006ee2:	61fb      	str	r3, [r7, #28]
 8006ee4:	68bb      	ldr	r3, [r7, #8]
 8006ee6:	61bb      	str	r3, [r7, #24]
 8006ee8:	e003      	b.n	8006ef2 <HAL_UART_Transmit+0x74>
 8006eea:	68bb      	ldr	r3, [r7, #8]
 8006eec:	61fb      	str	r3, [r7, #28]
 8006eee:	2300      	movs	r3, #0
 8006ef0:	61bb      	str	r3, [r7, #24]
 8006ef2:	e02a      	b.n	8006f4a <HAL_UART_Transmit+0xcc>
 8006ef4:	683b      	ldr	r3, [r7, #0]
 8006ef6:	9300      	str	r3, [sp, #0]
 8006ef8:	697b      	ldr	r3, [r7, #20]
 8006efa:	2200      	movs	r2, #0
 8006efc:	2180      	movs	r1, #128	; 0x80
 8006efe:	68f8      	ldr	r0, [r7, #12]
 8006f00:	f000 faf8 	bl	80074f4 <UART_WaitOnFlagUntilTimeout>
 8006f04:	4603      	mov	r3, r0
 8006f06:	2b00      	cmp	r3, #0
 8006f08:	d001      	beq.n	8006f0e <HAL_UART_Transmit+0x90>
 8006f0a:	2303      	movs	r3, #3
 8006f0c:	e036      	b.n	8006f7c <HAL_UART_Transmit+0xfe>
 8006f0e:	69fb      	ldr	r3, [r7, #28]
 8006f10:	2b00      	cmp	r3, #0
 8006f12:	d10b      	bne.n	8006f2c <HAL_UART_Transmit+0xae>
 8006f14:	69bb      	ldr	r3, [r7, #24]
 8006f16:	881b      	ldrh	r3, [r3, #0]
 8006f18:	461a      	mov	r2, r3
 8006f1a:	68fb      	ldr	r3, [r7, #12]
 8006f1c:	681b      	ldr	r3, [r3, #0]
 8006f1e:	f3c2 0208 	ubfx	r2, r2, #0, #9
 8006f22:	605a      	str	r2, [r3, #4]
 8006f24:	69bb      	ldr	r3, [r7, #24]
 8006f26:	3302      	adds	r3, #2
 8006f28:	61bb      	str	r3, [r7, #24]
 8006f2a:	e007      	b.n	8006f3c <HAL_UART_Transmit+0xbe>
 8006f2c:	69fb      	ldr	r3, [r7, #28]
 8006f2e:	781a      	ldrb	r2, [r3, #0]
 8006f30:	68fb      	ldr	r3, [r7, #12]
 8006f32:	681b      	ldr	r3, [r3, #0]
 8006f34:	605a      	str	r2, [r3, #4]
 8006f36:	69fb      	ldr	r3, [r7, #28]
 8006f38:	3301      	adds	r3, #1
 8006f3a:	61fb      	str	r3, [r7, #28]
 8006f3c:	68fb      	ldr	r3, [r7, #12]
 8006f3e:	8cdb      	ldrh	r3, [r3, #38]	; 0x26
 8006f40:	b29b      	uxth	r3, r3
 8006f42:	3b01      	subs	r3, #1
 8006f44:	b29a      	uxth	r2, r3
 8006f46:	68fb      	ldr	r3, [r7, #12]
 8006f48:	84da      	strh	r2, [r3, #38]	; 0x26
 8006f4a:	68fb      	ldr	r3, [r7, #12]
 8006f4c:	8cdb      	ldrh	r3, [r3, #38]	; 0x26
 8006f4e:	b29b      	uxth	r3, r3
 8006f50:	2b00      	cmp	r3, #0
 8006f52:	d1cf      	bne.n	8006ef4 <HAL_UART_Transmit+0x76>
 8006f54:	683b      	ldr	r3, [r7, #0]
 8006f56:	9300      	str	r3, [sp, #0]
 8006f58:	697b      	ldr	r3, [r7, #20]
 8006f5a:	2200      	movs	r2, #0
 8006f5c:	2140      	movs	r1, #64	; 0x40
 8006f5e:	68f8      	ldr	r0, [r7, #12]
 8006f60:	f000 fac8 	bl	80074f4 <UART_WaitOnFlagUntilTimeout>
 8006f64:	4603      	mov	r3, r0
 8006f66:	2b00      	cmp	r3, #0
 8006f68:	d001      	beq.n	8006f6e <HAL_UART_Transmit+0xf0>
 8006f6a:	2303      	movs	r3, #3
 8006f6c:	e006      	b.n	8006f7c <HAL_UART_Transmit+0xfe>
 8006f6e:	68fb      	ldr	r3, [r7, #12]
 8006f70:	2220      	movs	r2, #32
 8006f72:	f883 2041 	strb.w	r2, [r3, #65]	; 0x41
 8006f76:	2300      	movs	r3, #0
 8006f78:	e000      	b.n	8006f7c <HAL_UART_Transmit+0xfe>
 8006f7a:	2302      	movs	r3, #2
 8006f7c:	4618      	mov	r0, r3
 8006f7e:	3720      	adds	r7, #32
 8006f80:	46bd      	mov	sp, r7
 8006f82:	bd80      	pop	{r7, pc}

08006f84 <HAL_UART_IRQHandler>:
 8006f84:	b580      	push	{r7, lr}
 8006f86:	b0ba      	sub	sp, #232	; 0xe8
 8006f88:	af00      	add	r7, sp, #0
 8006f8a:	6078      	str	r0, [r7, #4]
 8006f8c:	687b      	ldr	r3, [r7, #4]
 8006f8e:	681b      	ldr	r3, [r3, #0]
 8006f90:	681b      	ldr	r3, [r3, #0]
 8006f92:	f8c7 30e4 	str.w	r3, [r7, #228]	; 0xe4
 8006f96:	687b      	ldr	r3, [r7, #4]
 8006f98:	681b      	ldr	r3, [r3, #0]
 8006f9a:	68db      	ldr	r3, [r3, #12]
 8006f9c:	f8c7 30e0 	str.w	r3, [r7, #224]	; 0xe0
 8006fa0:	687b      	ldr	r3, [r7, #4]
 8006fa2:	681b      	ldr	r3, [r3, #0]
 8006fa4:	695b      	ldr	r3, [r3, #20]
 8006fa6:	f8c7 30dc 	str.w	r3, [r7, #220]	; 0xdc
 8006faa:	2300      	movs	r3, #0
 8006fac:	f8c7 30d8 	str.w	r3, [r7, #216]	; 0xd8
 8006fb0:	2300      	movs	r3, #0
 8006fb2:	f8c7 30d4 	str.w	r3, [r7, #212]	; 0xd4
 8006fb6:	f8d7 30e4 	ldr.w	r3, [r7, #228]	; 0xe4
 8006fba:	f003 030f 	and.w	r3, r3, #15
 8006fbe:	f8c7 30d8 	str.w	r3, [r7, #216]	; 0xd8
 8006fc2:	f8d7 30d8 	ldr.w	r3, [r7, #216]	; 0xd8
 8006fc6:	2b00      	cmp	r3, #0
 8006fc8:	d10f      	bne.n	8006fea <HAL_UART_IRQHandler+0x66>
 8006fca:	f8d7 30e4 	ldr.w	r3, [r7, #228]	; 0xe4
 8006fce:	f003 0320 	and.w	r3, r3, #32
 8006fd2:	2b00      	cmp	r3, #0
 8006fd4:	d009      	beq.n	8006fea <HAL_UART_IRQHandler+0x66>
 8006fd6:	f8d7 30e0 	ldr.w	r3, [r7, #224]	; 0xe0
 8006fda:	f003 0320 	and.w	r3, r3, #32
 8006fde:	2b00      	cmp	r3, #0
 8006fe0:	d003      	beq.n	8006fea <HAL_UART_IRQHandler+0x66>
 8006fe2:	6878      	ldr	r0, [r7, #4]
 8006fe4:	f000 fbd1 	bl	800778a <UART_Receive_IT>
 8006fe8:	e25b      	b.n	80074a2 <HAL_UART_IRQHandler+0x51e>
 8006fea:	f8d7 30d8 	ldr.w	r3, [r7, #216]	; 0xd8
 8006fee:	2b00      	cmp	r3, #0
 8006ff0:	f000 80de 	beq.w	80071b0 <HAL_UART_IRQHandler+0x22c>
 8006ff4:	f8d7 30dc 	ldr.w	r3, [r7, #220]	; 0xdc
 8006ff8:	f003 0301 	and.w	r3, r3, #1
 8006ffc:	2b00      	cmp	r3, #0
 8006ffe:	d106      	bne.n	800700e <HAL_UART_IRQHandler+0x8a>
 8007000:	f8d7 30e0 	ldr.w	r3, [r7, #224]	; 0xe0
 8007004:	f403 7390 	and.w	r3, r3, #288	; 0x120
 8007008:	2b00      	cmp	r3, #0
 800700a:	f000 80d1 	beq.w	80071b0 <HAL_UART_IRQHandler+0x22c>
 800700e:	f8d7 30e4 	ldr.w	r3, [r7, #228]	; 0xe4
 8007012:	f003 0301 	and.w	r3, r3, #1
 8007016:	2b00      	cmp	r3, #0
 8007018:	d00b      	beq.n	8007032 <HAL_UART_IRQHandler+0xae>
 800701a:	f8d7 30e0 	ldr.w	r3, [r7, #224]	; 0xe0
 800701e:	f403 7380 	and.w	r3, r3, #256	; 0x100
 8007022:	2b00      	cmp	r3, #0
 8007024:	d005      	beq.n	8007032 <HAL_UART_IRQHandler+0xae>
 8007026:	687b      	ldr	r3, [r7, #4]
 8007028:	6c5b      	ldr	r3, [r3, #68]	; 0x44
 800702a:	f043 0201 	orr.w	r2, r3, #1
 800702e:	687b      	ldr	r3, [r7, #4]
 8007030:	645a      	str	r2, [r3, #68]	; 0x44
 8007032:	f8d7 30e4 	ldr.w	r3, [r7, #228]	; 0xe4
 8007036:	f003 0304 	and.w	r3, r3, #4
 800703a:	2b00      	cmp	r3, #0
 800703c:	d00b      	beq.n	8007056 <HAL_UART_IRQHandler+0xd2>
 800703e:	f8d7 30dc 	ldr.w	r3, [r7, #220]	; 0xdc
 8007042:	f003 0301 	and.w	r3, r3, #1
 8007046:	2b00      	cmp	r3, #0
 8007048:	d005      	beq.n	8007056 <HAL_UART_IRQHandler+0xd2>
 800704a:	687b      	ldr	r3, [r7, #4]
 800704c:	6c5b      	ldr	r3, [r3, #68]	; 0x44
 800704e:	f043 0202 	orr.w	r2, r3, #2
 8007052:	687b      	ldr	r3, [r7, #4]
 8007054:	645a      	str	r2, [r3, #68]	; 0x44
 8007056:	f8d7 30e4 	ldr.w	r3, [r7, #228]	; 0xe4
 800705a:	f003 0302 	and.w	r3, r3, #2
 800705e:	2b00      	cmp	r3, #0
 8007060:	d00b      	beq.n	800707a <HAL_UART_IRQHandler+0xf6>
 8007062:	f8d7 30dc 	ldr.w	r3, [r7, #220]	; 0xdc
 8007066:	f003 0301 	and.w	r3, r3, #1
 800706a:	2b00      	cmp	r3, #0
 800706c:	d005      	beq.n	800707a <HAL_UART_IRQHandler+0xf6>
 800706e:	687b      	ldr	r3, [r7, #4]
 8007070:	6c5b      	ldr	r3, [r3, #68]	; 0x44
 8007072:	f043 0204 	orr.w	r2, r3, #4
 8007076:	687b      	ldr	r3, [r7, #4]
 8007078:	645a      	str	r2, [r3, #68]	; 0x44
 800707a:	f8d7 30e4 	ldr.w	r3, [r7, #228]	; 0xe4
 800707e:	f003 0308 	and.w	r3, r3, #8
 8007082:	2b00      	cmp	r3, #0
 8007084:	d011      	beq.n	80070aa <HAL_UART_IRQHandler+0x126>
 8007086:	f8d7 30e0 	ldr.w	r3, [r7, #224]	; 0xe0
 800708a:	f003 0320 	and.w	r3, r3, #32
 800708e:	2b00      	cmp	r3, #0
 8007090:	d105      	bne.n	800709e <HAL_UART_IRQHandler+0x11a>
 8007092:	f8d7 30dc 	ldr.w	r3, [r7, #220]	; 0xdc
 8007096:	f003 0301 	and.w	r3, r3, #1
 800709a:	2b00      	cmp	r3, #0
 800709c:	d005      	beq.n	80070aa <HAL_UART_IRQHandler+0x126>
 800709e:	687b      	ldr	r3, [r7, #4]
 80070a0:	6c5b      	ldr	r3, [r3, #68]	; 0x44
 80070a2:	f043 0208 	orr.w	r2, r3, #8
 80070a6:	687b      	ldr	r3, [r7, #4]
 80070a8:	645a      	str	r2, [r3, #68]	; 0x44
 80070aa:	687b      	ldr	r3, [r7, #4]
 80070ac:	6c5b      	ldr	r3, [r3, #68]	; 0x44
 80070ae:	2b00      	cmp	r3, #0
 80070b0:	f000 81f2 	beq.w	8007498 <HAL_UART_IRQHandler+0x514>
 80070b4:	f8d7 30e4 	ldr.w	r3, [r7, #228]	; 0xe4
 80070b8:	f003 0320 	and.w	r3, r3, #32
 80070bc:	2b00      	cmp	r3, #0
 80070be:	d008      	beq.n	80070d2 <HAL_UART_IRQHandler+0x14e>
 80070c0:	f8d7 30e0 	ldr.w	r3, [r7, #224]	; 0xe0
 80070c4:	f003 0320 	and.w	r3, r3, #32
 80070c8:	2b00      	cmp	r3, #0
 80070ca:	d002      	beq.n	80070d2 <HAL_UART_IRQHandler+0x14e>
 80070cc:	6878      	ldr	r0, [r7, #4]
 80070ce:	f000 fb5c 	bl	800778a <UART_Receive_IT>
 80070d2:	687b      	ldr	r3, [r7, #4]
 80070d4:	681b      	ldr	r3, [r3, #0]
 80070d6:	695b      	ldr	r3, [r3, #20]
 80070d8:	f003 0340 	and.w	r3, r3, #64	; 0x40
 80070dc:	2b00      	cmp	r3, #0
 80070de:	bf14      	ite	ne
 80070e0:	2301      	movne	r3, #1
 80070e2:	2300      	moveq	r3, #0
 80070e4:	b2db      	uxtb	r3, r3
 80070e6:	f8c7 30d4 	str.w	r3, [r7, #212]	; 0xd4
 80070ea:	687b      	ldr	r3, [r7, #4]
 80070ec:	6c5b      	ldr	r3, [r3, #68]	; 0x44
 80070ee:	f003 0308 	and.w	r3, r3, #8
 80070f2:	2b00      	cmp	r3, #0
 80070f4:	d103      	bne.n	80070fe <HAL_UART_IRQHandler+0x17a>
 80070f6:	f8d7 30d4 	ldr.w	r3, [r7, #212]	; 0xd4
 80070fa:	2b00      	cmp	r3, #0
 80070fc:	d04f      	beq.n	800719e <HAL_UART_IRQHandler+0x21a>
 80070fe:	6878      	ldr	r0, [r7, #4]
 8007100:	f000 fa66 	bl	80075d0 <UART_EndRxTransfer>
 8007104:	687b      	ldr	r3, [r7, #4]
 8007106:	681b      	ldr	r3, [r3, #0]
 8007108:	695b      	ldr	r3, [r3, #20]
 800710a:	f003 0340 	and.w	r3, r3, #64	; 0x40
 800710e:	2b00      	cmp	r3, #0
 8007110:	d041      	beq.n	8007196 <HAL_UART_IRQHandler+0x212>
 8007112:	687b      	ldr	r3, [r7, #4]
 8007114:	681b      	ldr	r3, [r3, #0]
 8007116:	3314      	adds	r3, #20
 8007118:	f8c7 309c 	str.w	r3, [r7, #156]	; 0x9c
 800711c:	f8d7 309c 	ldr.w	r3, [r7, #156]	; 0x9c
 8007120:	e853 3f00 	ldrex	r3, [r3]
 8007124:	f8c7 3098 	str.w	r3, [r7, #152]	; 0x98
 8007128:	f8d7 3098 	ldr.w	r3, [r7, #152]	; 0x98
 800712c:	f023 0340 	bic.w	r3, r3, #64	; 0x40
 8007130:	f8c7 30d0 	str.w	r3, [r7, #208]	; 0xd0
 8007134:	687b      	ldr	r3, [r7, #4]
 8007136:	681b      	ldr	r3, [r3, #0]
 8007138:	3314      	adds	r3, #20
 800713a:	f8d7 20d0 	ldr.w	r2, [r7, #208]	; 0xd0
 800713e:	f8c7 20a8 	str.w	r2, [r7, #168]	; 0xa8
 8007142:	f8c7 30a4 	str.w	r3, [r7, #164]	; 0xa4
 8007146:	f8d7 10a4 	ldr.w	r1, [r7, #164]	; 0xa4
 800714a:	f8d7 20a8 	ldr.w	r2, [r7, #168]	; 0xa8
 800714e:	e841 2300 	strex	r3, r2, [r1]
 8007152:	f8c7 30a0 	str.w	r3, [r7, #160]	; 0xa0
 8007156:	f8d7 30a0 	ldr.w	r3, [r7, #160]	; 0xa0
 800715a:	2b00      	cmp	r3, #0
 800715c:	d1d9      	bne.n	8007112 <HAL_UART_IRQHandler+0x18e>
 800715e:	687b      	ldr	r3, [r7, #4]
 8007160:	6bdb      	ldr	r3, [r3, #60]	; 0x3c
 8007162:	2b00      	cmp	r3, #0
 8007164:	d013      	beq.n	800718e <HAL_UART_IRQHandler+0x20a>
 8007166:	687b      	ldr	r3, [r7, #4]
 8007168:	6bdb      	ldr	r3, [r3, #60]	; 0x3c
 800716a:	4a7e      	ldr	r2, [pc, #504]	; (8007364 <HAL_UART_IRQHandler+0x3e0>)
 800716c:	635a      	str	r2, [r3, #52]	; 0x34
 800716e:	687b      	ldr	r3, [r7, #4]
 8007170:	6bdb      	ldr	r3, [r3, #60]	; 0x3c
 8007172:	4618      	mov	r0, r3
 8007174:	f7fd ff6e 	bl	8005054 <HAL_DMA_Abort_IT>
 8007178:	4603      	mov	r3, r0
 800717a:	2b00      	cmp	r3, #0
 800717c:	d016      	beq.n	80071ac <HAL_UART_IRQHandler+0x228>
 800717e:	687b      	ldr	r3, [r7, #4]
 8007180:	6bdb      	ldr	r3, [r3, #60]	; 0x3c
 8007182:	6b5b      	ldr	r3, [r3, #52]	; 0x34
 8007184:	687a      	ldr	r2, [r7, #4]
 8007186:	6bd2      	ldr	r2, [r2, #60]	; 0x3c
 8007188:	4610      	mov	r0, r2
 800718a:	4798      	blx	r3
 800718c:	e00e      	b.n	80071ac <HAL_UART_IRQHandler+0x228>
 800718e:	6878      	ldr	r0, [r7, #4]
 8007190:	f000 f99c 	bl	80074cc <HAL_UART_ErrorCallback>
 8007194:	e00a      	b.n	80071ac <HAL_UART_IRQHandler+0x228>
 8007196:	6878      	ldr	r0, [r7, #4]
 8007198:	f000 f998 	bl	80074cc <HAL_UART_ErrorCallback>
 800719c:	e006      	b.n	80071ac <HAL_UART_IRQHandler+0x228>
 800719e:	6878      	ldr	r0, [r7, #4]
 80071a0:	f000 f994 	bl	80074cc <HAL_UART_ErrorCallback>
 80071a4:	687b      	ldr	r3, [r7, #4]
 80071a6:	2200      	movs	r2, #0
 80071a8:	645a      	str	r2, [r3, #68]	; 0x44
 80071aa:	e175      	b.n	8007498 <HAL_UART_IRQHandler+0x514>
 80071ac:	bf00      	nop
 80071ae:	e173      	b.n	8007498 <HAL_UART_IRQHandler+0x514>
 80071b0:	687b      	ldr	r3, [r7, #4]
 80071b2:	6b1b      	ldr	r3, [r3, #48]	; 0x30
 80071b4:	2b01      	cmp	r3, #1
 80071b6:	f040 814f 	bne.w	8007458 <HAL_UART_IRQHandler+0x4d4>
 80071ba:	f8d7 30e4 	ldr.w	r3, [r7, #228]	; 0xe4
 80071be:	f003 0310 	and.w	r3, r3, #16
 80071c2:	2b00      	cmp	r3, #0
 80071c4:	f000 8148 	beq.w	8007458 <HAL_UART_IRQHandler+0x4d4>
 80071c8:	f8d7 30e0 	ldr.w	r3, [r7, #224]	; 0xe0
 80071cc:	f003 0310 	and.w	r3, r3, #16
 80071d0:	2b00      	cmp	r3, #0
 80071d2:	f000 8141 	beq.w	8007458 <HAL_UART_IRQHandler+0x4d4>
 80071d6:	2300      	movs	r3, #0
 80071d8:	60bb      	str	r3, [r7, #8]
 80071da:	687b      	ldr	r3, [r7, #4]
 80071dc:	681b      	ldr	r3, [r3, #0]
 80071de:	681b      	ldr	r3, [r3, #0]
 80071e0:	60bb      	str	r3, [r7, #8]
 80071e2:	687b      	ldr	r3, [r7, #4]
 80071e4:	681b      	ldr	r3, [r3, #0]
 80071e6:	685b      	ldr	r3, [r3, #4]
 80071e8:	60bb      	str	r3, [r7, #8]
 80071ea:	68bb      	ldr	r3, [r7, #8]
 80071ec:	687b      	ldr	r3, [r7, #4]
 80071ee:	681b      	ldr	r3, [r3, #0]
 80071f0:	695b      	ldr	r3, [r3, #20]
 80071f2:	f003 0340 	and.w	r3, r3, #64	; 0x40
 80071f6:	2b00      	cmp	r3, #0
 80071f8:	f000 80b6 	beq.w	8007368 <HAL_UART_IRQHandler+0x3e4>
 80071fc:	687b      	ldr	r3, [r7, #4]
 80071fe:	6bdb      	ldr	r3, [r3, #60]	; 0x3c
 8007200:	681b      	ldr	r3, [r3, #0]
 8007202:	685b      	ldr	r3, [r3, #4]
 8007204:	f8a7 30be 	strh.w	r3, [r7, #190]	; 0xbe
 8007208:	f8b7 30be 	ldrh.w	r3, [r7, #190]	; 0xbe
 800720c:	2b00      	cmp	r3, #0
 800720e:	f000 8145 	beq.w	800749c <HAL_UART_IRQHandler+0x518>
 8007212:	687b      	ldr	r3, [r7, #4]
 8007214:	8d9b      	ldrh	r3, [r3, #44]	; 0x2c
 8007216:	f8b7 20be 	ldrh.w	r2, [r7, #190]	; 0xbe
 800721a:	429a      	cmp	r2, r3
 800721c:	f080 813e 	bcs.w	800749c <HAL_UART_IRQHandler+0x518>
 8007220:	687b      	ldr	r3, [r7, #4]
 8007222:	f8b7 20be 	ldrh.w	r2, [r7, #190]	; 0xbe
 8007226:	85da      	strh	r2, [r3, #46]	; 0x2e
 8007228:	687b      	ldr	r3, [r7, #4]
 800722a:	6bdb      	ldr	r3, [r3, #60]	; 0x3c
 800722c:	699b      	ldr	r3, [r3, #24]
 800722e:	2b20      	cmp	r3, #32
 8007230:	f000 8088 	beq.w	8007344 <HAL_UART_IRQHandler+0x3c0>
 8007234:	687b      	ldr	r3, [r7, #4]
 8007236:	681b      	ldr	r3, [r3, #0]
 8007238:	330c      	adds	r3, #12
 800723a:	f8c7 3088 	str.w	r3, [r7, #136]	; 0x88
 800723e:	f8d7 3088 	ldr.w	r3, [r7, #136]	; 0x88
 8007242:	e853 3f00 	ldrex	r3, [r3]
 8007246:	f8c7 3084 	str.w	r3, [r7, #132]	; 0x84
 800724a:	f8d7 3084 	ldr.w	r3, [r7, #132]	; 0x84
 800724e:	f423 7380 	bic.w	r3, r3, #256	; 0x100
 8007252:	f8c7 30b8 	str.w	r3, [r7, #184]	; 0xb8
 8007256:	687b      	ldr	r3, [r7, #4]
 8007258:	681b      	ldr	r3, [r3, #0]
 800725a:	330c      	adds	r3, #12
 800725c:	f8d7 20b8 	ldr.w	r2, [r7, #184]	; 0xb8
 8007260:	f8c7 2094 	str.w	r2, [r7, #148]	; 0x94
 8007264:	f8c7 3090 	str.w	r3, [r7, #144]	; 0x90
 8007268:	f8d7 1090 	ldr.w	r1, [r7, #144]	; 0x90
 800726c:	f8d7 2094 	ldr.w	r2, [r7, #148]	; 0x94
 8007270:	e841 2300 	strex	r3, r2, [r1]
 8007274:	f8c7 308c 	str.w	r3, [r7, #140]	; 0x8c
 8007278:	f8d7 308c 	ldr.w	r3, [r7, #140]	; 0x8c
 800727c:	2b00      	cmp	r3, #0
 800727e:	d1d9      	bne.n	8007234 <HAL_UART_IRQHandler+0x2b0>
 8007280:	687b      	ldr	r3, [r7, #4]
 8007282:	681b      	ldr	r3, [r3, #0]
 8007284:	3314      	adds	r3, #20
 8007286:	677b      	str	r3, [r7, #116]	; 0x74
 8007288:	6f7b      	ldr	r3, [r7, #116]	; 0x74
 800728a:	e853 3f00 	ldrex	r3, [r3]
 800728e:	673b      	str	r3, [r7, #112]	; 0x70
 8007290:	6f3b      	ldr	r3, [r7, #112]	; 0x70
 8007292:	f023 0301 	bic.w	r3, r3, #1
 8007296:	f8c7 30b4 	str.w	r3, [r7, #180]	; 0xb4
 800729a:	687b      	ldr	r3, [r7, #4]
 800729c:	681b      	ldr	r3, [r3, #0]
 800729e:	3314      	adds	r3, #20
 80072a0:	f8d7 20b4 	ldr.w	r2, [r7, #180]	; 0xb4
 80072a4:	f8c7 2080 	str.w	r2, [r7, #128]	; 0x80
 80072a8:	67fb      	str	r3, [r7, #124]	; 0x7c
 80072aa:	6ff9      	ldr	r1, [r7, #124]	; 0x7c
 80072ac:	f8d7 2080 	ldr.w	r2, [r7, #128]	; 0x80
 80072b0:	e841 2300 	strex	r3, r2, [r1]
 80072b4:	67bb      	str	r3, [r7, #120]	; 0x78
 80072b6:	6fbb      	ldr	r3, [r7, #120]	; 0x78
 80072b8:	2b00      	cmp	r3, #0
 80072ba:	d1e1      	bne.n	8007280 <HAL_UART_IRQHandler+0x2fc>
 80072bc:	687b      	ldr	r3, [r7, #4]
 80072be:	681b      	ldr	r3, [r3, #0]
 80072c0:	3314      	adds	r3, #20
 80072c2:	663b      	str	r3, [r7, #96]	; 0x60
 80072c4:	6e3b      	ldr	r3, [r7, #96]	; 0x60
 80072c6:	e853 3f00 	ldrex	r3, [r3]
 80072ca:	65fb      	str	r3, [r7, #92]	; 0x5c
 80072cc:	6dfb      	ldr	r3, [r7, #92]	; 0x5c
 80072ce:	f023 0340 	bic.w	r3, r3, #64	; 0x40
 80072d2:	f8c7 30b0 	str.w	r3, [r7, #176]	; 0xb0
 80072d6:	687b      	ldr	r3, [r7, #4]
 80072d8:	681b      	ldr	r3, [r3, #0]
 80072da:	3314      	adds	r3, #20
 80072dc:	f8d7 20b0 	ldr.w	r2, [r7, #176]	; 0xb0
 80072e0:	66fa      	str	r2, [r7, #108]	; 0x6c
 80072e2:	66bb      	str	r3, [r7, #104]	; 0x68
 80072e4:	6eb9      	ldr	r1, [r7, #104]	; 0x68
 80072e6:	6efa      	ldr	r2, [r7, #108]	; 0x6c
 80072e8:	e841 2300 	strex	r3, r2, [r1]
 80072ec:	667b      	str	r3, [r7, #100]	; 0x64
 80072ee:	6e7b      	ldr	r3, [r7, #100]	; 0x64
 80072f0:	2b00      	cmp	r3, #0
 80072f2:	d1e3      	bne.n	80072bc <HAL_UART_IRQHandler+0x338>
 80072f4:	687b      	ldr	r3, [r7, #4]
 80072f6:	2220      	movs	r2, #32
 80072f8:	f883 2042 	strb.w	r2, [r3, #66]	; 0x42
 80072fc:	687b      	ldr	r3, [r7, #4]
 80072fe:	2200      	movs	r2, #0
 8007300:	631a      	str	r2, [r3, #48]	; 0x30
 8007302:	687b      	ldr	r3, [r7, #4]
 8007304:	681b      	ldr	r3, [r3, #0]
 8007306:	330c      	adds	r3, #12
 8007308:	64fb      	str	r3, [r7, #76]	; 0x4c
 800730a:	6cfb      	ldr	r3, [r7, #76]	; 0x4c
 800730c:	e853 3f00 	ldrex	r3, [r3]
 8007310:	64bb      	str	r3, [r7, #72]	; 0x48
 8007312:	6cbb      	ldr	r3, [r7, #72]	; 0x48
 8007314:	f023 0310 	bic.w	r3, r3, #16
 8007318:	f8c7 30ac 	str.w	r3, [r7, #172]	; 0xac
 800731c:	687b      	ldr	r3, [r7, #4]
 800731e:	681b      	ldr	r3, [r3, #0]
 8007320:	330c      	adds	r3, #12
 8007322:	f8d7 20ac 	ldr.w	r2, [r7, #172]	; 0xac
 8007326:	65ba      	str	r2, [r7, #88]	; 0x58
 8007328:	657b      	str	r3, [r7, #84]	; 0x54
 800732a:	6d79      	ldr	r1, [r7, #84]	; 0x54
 800732c:	6dba      	ldr	r2, [r7, #88]	; 0x58
 800732e:	e841 2300 	strex	r3, r2, [r1]
 8007332:	653b      	str	r3, [r7, #80]	; 0x50
 8007334:	6d3b      	ldr	r3, [r7, #80]	; 0x50
 8007336:	2b00      	cmp	r3, #0
 8007338:	d1e3      	bne.n	8007302 <HAL_UART_IRQHandler+0x37e>
 800733a:	687b      	ldr	r3, [r7, #4]
 800733c:	6bdb      	ldr	r3, [r3, #60]	; 0x3c
 800733e:	4618      	mov	r0, r3
 8007340:	f7fd fe4d 	bl	8004fde <HAL_DMA_Abort>
 8007344:	687b      	ldr	r3, [r7, #4]
 8007346:	2202      	movs	r2, #2
 8007348:	635a      	str	r2, [r3, #52]	; 0x34
 800734a:	687b      	ldr	r3, [r7, #4]
 800734c:	8d9a      	ldrh	r2, [r3, #44]	; 0x2c
 800734e:	687b      	ldr	r3, [r7, #4]
 8007350:	8ddb      	ldrh	r3, [r3, #46]	; 0x2e
 8007352:	b29b      	uxth	r3, r3
 8007354:	1ad3      	subs	r3, r2, r3
 8007356:	b29b      	uxth	r3, r3
 8007358:	4619      	mov	r1, r3
 800735a:	6878      	ldr	r0, [r7, #4]
 800735c:	f000 f8bf 	bl	80074de <HAL_UARTEx_RxEventCallback>
 8007360:	e09c      	b.n	800749c <HAL_UART_IRQHandler+0x518>
 8007362:	bf00      	nop
 8007364:	08007695 	.word	0x08007695
 8007368:	687b      	ldr	r3, [r7, #4]
 800736a:	8d9a      	ldrh	r2, [r3, #44]	; 0x2c
 800736c:	687b      	ldr	r3, [r7, #4]
 800736e:	8ddb      	ldrh	r3, [r3, #46]	; 0x2e
 8007370:	b29b      	uxth	r3, r3
 8007372:	1ad3      	subs	r3, r2, r3
 8007374:	f8a7 30ce 	strh.w	r3, [r7, #206]	; 0xce
 8007378:	687b      	ldr	r3, [r7, #4]
 800737a:	8ddb      	ldrh	r3, [r3, #46]	; 0x2e
 800737c:	b29b      	uxth	r3, r3
 800737e:	2b00      	cmp	r3, #0
 8007380:	f000 808e 	beq.w	80074a0 <HAL_UART_IRQHandler+0x51c>
 8007384:	f8b7 30ce 	ldrh.w	r3, [r7, #206]	; 0xce
 8007388:	2b00      	cmp	r3, #0
 800738a:	f000 8089 	beq.w	80074a0 <HAL_UART_IRQHandler+0x51c>
 800738e:	687b      	ldr	r3, [r7, #4]
 8007390:	681b      	ldr	r3, [r3, #0]
 8007392:	330c      	adds	r3, #12
 8007394:	63bb      	str	r3, [r7, #56]	; 0x38
 8007396:	6bbb      	ldr	r3, [r7, #56]	; 0x38
 8007398:	e853 3f00 	ldrex	r3, [r3]
 800739c:	637b      	str	r3, [r7, #52]	; 0x34
 800739e:	6b7b      	ldr	r3, [r7, #52]	; 0x34
 80073a0:	f423 7390 	bic.w	r3, r3, #288	; 0x120
 80073a4:	f8c7 30c8 	str.w	r3, [r7, #200]	; 0xc8
 80073a8:	687b      	ldr	r3, [r7, #4]
 80073aa:	681b      	ldr	r3, [r3, #0]
 80073ac:	330c      	adds	r3, #12
 80073ae:	f8d7 20c8 	ldr.w	r2, [r7, #200]	; 0xc8
 80073b2:	647a      	str	r2, [r7, #68]	; 0x44
 80073b4:	643b      	str	r3, [r7, #64]	; 0x40
 80073b6:	6c39      	ldr	r1, [r7, #64]	; 0x40
 80073b8:	6c7a      	ldr	r2, [r7, #68]	; 0x44
 80073ba:	e841 2300 	strex	r3, r2, [r1]
 80073be:	63fb      	str	r3, [r7, #60]	; 0x3c
 80073c0:	6bfb      	ldr	r3, [r7, #60]	; 0x3c
 80073c2:	2b00      	cmp	r3, #0
 80073c4:	d1e3      	bne.n	800738e <HAL_UART_IRQHandler+0x40a>
 80073c6:	687b      	ldr	r3, [r7, #4]
 80073c8:	681b      	ldr	r3, [r3, #0]
 80073ca:	3314      	adds	r3, #20
 80073cc:	627b      	str	r3, [r7, #36]	; 0x24
 80073ce:	6a7b      	ldr	r3, [r7, #36]	; 0x24
 80073d0:	e853 3f00 	ldrex	r3, [r3]
 80073d4:	623b      	str	r3, [r7, #32]
 80073d6:	6a3b      	ldr	r3, [r7, #32]
 80073d8:	f023 0301 	bic.w	r3, r3, #1
 80073dc:	f8c7 30c4 	str.w	r3, [r7, #196]	; 0xc4
 80073e0:	687b      	ldr	r3, [r7, #4]
 80073e2:	681b      	ldr	r3, [r3, #0]
 80073e4:	3314      	adds	r3, #20
 80073e6:	f8d7 20c4 	ldr.w	r2, [r7, #196]	; 0xc4
 80073ea:	633a      	str	r2, [r7, #48]	; 0x30
 80073ec:	62fb      	str	r3, [r7, #44]	; 0x2c
 80073ee:	6af9      	ldr	r1, [r7, #44]	; 0x2c
 80073f0:	6b3a      	ldr	r2, [r7, #48]	; 0x30
 80073f2:	e841 2300 	strex	r3, r2, [r1]
 80073f6:	62bb      	str	r3, [r7, #40]	; 0x28
 80073f8:	6abb      	ldr	r3, [r7, #40]	; 0x28
 80073fa:	2b00      	cmp	r3, #0
 80073fc:	d1e3      	bne.n	80073c6 <HAL_UART_IRQHandler+0x442>
 80073fe:	687b      	ldr	r3, [r7, #4]
 8007400:	2220      	movs	r2, #32
 8007402:	f883 2042 	strb.w	r2, [r3, #66]	; 0x42
 8007406:	687b      	ldr	r3, [r7, #4]
 8007408:	2200      	movs	r2, #0
 800740a:	631a      	str	r2, [r3, #48]	; 0x30
 800740c:	687b      	ldr	r3, [r7, #4]
 800740e:	681b      	ldr	r3, [r3, #0]
 8007410:	330c      	adds	r3, #12
 8007412:	613b      	str	r3, [r7, #16]
 8007414:	693b      	ldr	r3, [r7, #16]
 8007416:	e853 3f00 	ldrex	r3, [r3]
 800741a:	60fb      	str	r3, [r7, #12]
 800741c:	68fb      	ldr	r3, [r7, #12]
 800741e:	f023 0310 	bic.w	r3, r3, #16
 8007422:	f8c7 30c0 	str.w	r3, [r7, #192]	; 0xc0
 8007426:	687b      	ldr	r3, [r7, #4]
 8007428:	681b      	ldr	r3, [r3, #0]
 800742a:	330c      	adds	r3, #12
 800742c:	f8d7 20c0 	ldr.w	r2, [r7, #192]	; 0xc0
 8007430:	61fa      	str	r2, [r7, #28]
 8007432:	61bb      	str	r3, [r7, #24]
 8007434:	69b9      	ldr	r1, [r7, #24]
 8007436:	69fa      	ldr	r2, [r7, #28]
 8007438:	e841 2300 	strex	r3, r2, [r1]
 800743c:	617b      	str	r3, [r7, #20]
 800743e:	697b      	ldr	r3, [r7, #20]
 8007440:	2b00      	cmp	r3, #0
 8007442:	d1e3      	bne.n	800740c <HAL_UART_IRQHandler+0x488>
 8007444:	687b      	ldr	r3, [r7, #4]
 8007446:	2202      	movs	r2, #2
 8007448:	635a      	str	r2, [r3, #52]	; 0x34
 800744a:	f8b7 30ce 	ldrh.w	r3, [r7, #206]	; 0xce
 800744e:	4619      	mov	r1, r3
 8007450:	6878      	ldr	r0, [r7, #4]
 8007452:	f000 f844 	bl	80074de <HAL_UARTEx_RxEventCallback>
 8007456:	e023      	b.n	80074a0 <HAL_UART_IRQHandler+0x51c>
 8007458:	f8d7 30e4 	ldr.w	r3, [r7, #228]	; 0xe4
 800745c:	f003 0380 	and.w	r3, r3, #128	; 0x80
 8007460:	2b00      	cmp	r3, #0
 8007462:	d009      	beq.n	8007478 <HAL_UART_IRQHandler+0x4f4>
 8007464:	f8d7 30e0 	ldr.w	r3, [r7, #224]	; 0xe0
 8007468:	f003 0380 	and.w	r3, r3, #128	; 0x80
 800746c:	2b00      	cmp	r3, #0
 800746e:	d003      	beq.n	8007478 <HAL_UART_IRQHandler+0x4f4>
 8007470:	6878      	ldr	r0, [r7, #4]
 8007472:	f000 f923 	bl	80076bc <UART_Transmit_IT>
 8007476:	e014      	b.n	80074a2 <HAL_UART_IRQHandler+0x51e>
 8007478:	f8d7 30e4 	ldr.w	r3, [r7, #228]	; 0xe4
 800747c:	f003 0340 	and.w	r3, r3, #64	; 0x40
 8007480:	2b00      	cmp	r3, #0
 8007482:	d00e      	beq.n	80074a2 <HAL_UART_IRQHandler+0x51e>
 8007484:	f8d7 30e0 	ldr.w	r3, [r7, #224]	; 0xe0
 8007488:	f003 0340 	and.w	r3, r3, #64	; 0x40
 800748c:	2b00      	cmp	r3, #0
 800748e:	d008      	beq.n	80074a2 <HAL_UART_IRQHandler+0x51e>
 8007490:	6878      	ldr	r0, [r7, #4]
 8007492:	f000 f962 	bl	800775a <UART_EndTransmit_IT>
 8007496:	e004      	b.n	80074a2 <HAL_UART_IRQHandler+0x51e>
 8007498:	bf00      	nop
 800749a:	e002      	b.n	80074a2 <HAL_UART_IRQHandler+0x51e>
 800749c:	bf00      	nop
 800749e:	e000      	b.n	80074a2 <HAL_UART_IRQHandler+0x51e>
 80074a0:	bf00      	nop
 80074a2:	37e8      	adds	r7, #232	; 0xe8
 80074a4:	46bd      	mov	sp, r7
 80074a6:	bd80      	pop	{r7, pc}

080074a8 <HAL_UART_TxCpltCallback>:
 80074a8:	b480      	push	{r7}
 80074aa:	b083      	sub	sp, #12
 80074ac:	af00      	add	r7, sp, #0
 80074ae:	6078      	str	r0, [r7, #4]
 80074b0:	bf00      	nop
 80074b2:	370c      	adds	r7, #12
 80074b4:	46bd      	mov	sp, r7
 80074b6:	bc80      	pop	{r7}
 80074b8:	4770      	bx	lr

080074ba <HAL_UART_RxCpltCallback>:
 80074ba:	b480      	push	{r7}
 80074bc:	b083      	sub	sp, #12
 80074be:	af00      	add	r7, sp, #0
 80074c0:	6078      	str	r0, [r7, #4]
 80074c2:	bf00      	nop
 80074c4:	370c      	adds	r7, #12
 80074c6:	46bd      	mov	sp, r7
 80074c8:	bc80      	pop	{r7}
 80074ca:	4770      	bx	lr

080074cc <HAL_UART_ErrorCallback>:
 80074cc:	b480      	push	{r7}
 80074ce:	b083      	sub	sp, #12
 80074d0:	af00      	add	r7, sp, #0
 80074d2:	6078      	str	r0, [r7, #4]
 80074d4:	bf00      	nop
 80074d6:	370c      	adds	r7, #12
 80074d8:	46bd      	mov	sp, r7
 80074da:	bc80      	pop	{r7}
 80074dc:	4770      	bx	lr

080074de <HAL_UARTEx_RxEventCallback>:
 80074de:	b480      	push	{r7}
 80074e0:	b083      	sub	sp, #12
 80074e2:	af00      	add	r7, sp, #0
 80074e4:	6078      	str	r0, [r7, #4]
 80074e6:	460b      	mov	r3, r1
 80074e8:	807b      	strh	r3, [r7, #2]
 80074ea:	bf00      	nop
 80074ec:	370c      	adds	r7, #12
 80074ee:	46bd      	mov	sp, r7
 80074f0:	bc80      	pop	{r7}
 80074f2:	4770      	bx	lr

080074f4 <UART_WaitOnFlagUntilTimeout>:
 80074f4:	b580      	push	{r7, lr}
 80074f6:	b090      	sub	sp, #64	; 0x40
 80074f8:	af00      	add	r7, sp, #0
 80074fa:	60f8      	str	r0, [r7, #12]
 80074fc:	60b9      	str	r1, [r7, #8]
 80074fe:	603b      	str	r3, [r7, #0]
 8007500:	4613      	mov	r3, r2
 8007502:	71fb      	strb	r3, [r7, #7]
 8007504:	e050      	b.n	80075a8 <UART_WaitOnFlagUntilTimeout+0xb4>
 8007506:	6cbb      	ldr	r3, [r7, #72]	; 0x48
 8007508:	f1b3 3fff 	cmp.w	r3, #4294967295
 800750c:	d04c      	beq.n	80075a8 <UART_WaitOnFlagUntilTimeout+0xb4>
 800750e:	6cbb      	ldr	r3, [r7, #72]	; 0x48
 8007510:	2b00      	cmp	r3, #0
 8007512:	d007      	beq.n	8007524 <UART_WaitOnFlagUntilTimeout+0x30>
 8007514:	f7fd fc28 	bl	8004d68 <HAL_GetTick>
 8007518:	4602      	mov	r2, r0
 800751a:	683b      	ldr	r3, [r7, #0]
 800751c:	1ad3      	subs	r3, r2, r3
 800751e:	6cba      	ldr	r2, [r7, #72]	; 0x48
 8007520:	429a      	cmp	r2, r3
 8007522:	d241      	bcs.n	80075a8 <UART_WaitOnFlagUntilTimeout+0xb4>
 8007524:	68fb      	ldr	r3, [r7, #12]
 8007526:	681b      	ldr	r3, [r3, #0]
 8007528:	330c      	adds	r3, #12
 800752a:	62bb      	str	r3, [r7, #40]	; 0x28
 800752c:	6abb      	ldr	r3, [r7, #40]	; 0x28
 800752e:	e853 3f00 	ldrex	r3, [r3]
 8007532:	627b      	str	r3, [r7, #36]	; 0x24
 8007534:	6a7b      	ldr	r3, [r7, #36]	; 0x24
 8007536:	f423 73d0 	bic.w	r3, r3, #416	; 0x1a0
 800753a:	63fb      	str	r3, [r7, #60]	; 0x3c
 800753c:	68fb      	ldr	r3, [r7, #12]
 800753e:	681b      	ldr	r3, [r3, #0]
 8007540:	330c      	adds	r3, #12
 8007542:	6bfa      	ldr	r2, [r7, #60]	; 0x3c
 8007544:	637a      	str	r2, [r7, #52]	; 0x34
 8007546:	633b      	str	r3, [r7, #48]	; 0x30
 8007548:	6b39      	ldr	r1, [r7, #48]	; 0x30
 800754a:	6b7a      	ldr	r2, [r7, #52]	; 0x34
 800754c:	e841 2300 	strex	r3, r2, [r1]
 8007550:	62fb      	str	r3, [r7, #44]	; 0x2c
 8007552:	6afb      	ldr	r3, [r7, #44]	; 0x2c
 8007554:	2b00      	cmp	r3, #0
 8007556:	d1e5      	bne.n	8007524 <UART_WaitOnFlagUntilTimeout+0x30>
 8007558:	68fb      	ldr	r3, [r7, #12]
 800755a:	681b      	ldr	r3, [r3, #0]
 800755c:	3314      	adds	r3, #20
 800755e:	617b      	str	r3, [r7, #20]
 8007560:	697b      	ldr	r3, [r7, #20]
 8007562:	e853 3f00 	ldrex	r3, [r3]
 8007566:	613b      	str	r3, [r7, #16]
 8007568:	693b      	ldr	r3, [r7, #16]
 800756a:	f023 0301 	bic.w	r3, r3, #1
 800756e:	63bb      	str	r3, [r7, #56]	; 0x38
 8007570:	68fb      	ldr	r3, [r7, #12]
 8007572:	681b      	ldr	r3, [r3, #0]
 8007574:	3314      	adds	r3, #20
 8007576:	6bba      	ldr	r2, [r7, #56]	; 0x38
 8007578:	623a      	str	r2, [r7, #32]
 800757a:	61fb      	str	r3, [r7, #28]
 800757c:	69f9      	ldr	r1, [r7, #28]
 800757e:	6a3a      	ldr	r2, [r7, #32]
 8007580:	e841 2300 	strex	r3, r2, [r1]
 8007584:	61bb      	str	r3, [r7, #24]
 8007586:	69bb      	ldr	r3, [r7, #24]
 8007588:	2b00      	cmp	r3, #0
 800758a:	d1e5      	bne.n	8007558 <UART_WaitOnFlagUntilTimeout+0x64>
 800758c:	68fb      	ldr	r3, [r7, #12]
 800758e:	2220      	movs	r2, #32
 8007590:	f883 2041 	strb.w	r2, [r3, #65]	; 0x41
 8007594:	68fb      	ldr	r3, [r7, #12]
 8007596:	2220      	movs	r2, #32
 8007598:	f883 2042 	strb.w	r2, [r3, #66]	; 0x42
 800759c:	68fb      	ldr	r3, [r7, #12]
 800759e:	2200      	movs	r2, #0
 80075a0:	f883 2040 	strb.w	r2, [r3, #64]	; 0x40
 80075a4:	2303      	movs	r3, #3
 80075a6:	e00f      	b.n	80075c8 <UART_WaitOnFlagUntilTimeout+0xd4>
 80075a8:	68fb      	ldr	r3, [r7, #12]
 80075aa:	681b      	ldr	r3, [r3, #0]
 80075ac:	681a      	ldr	r2, [r3, #0]
 80075ae:	68bb      	ldr	r3, [r7, #8]
 80075b0:	4013      	ands	r3, r2
 80075b2:	68ba      	ldr	r2, [r7, #8]
 80075b4:	429a      	cmp	r2, r3
 80075b6:	bf0c      	ite	eq
 80075b8:	2301      	moveq	r3, #1
 80075ba:	2300      	movne	r3, #0
 80075bc:	b2db      	uxtb	r3, r3
 80075be:	461a      	mov	r2, r3
 80075c0:	79fb      	ldrb	r3, [r7, #7]
 80075c2:	429a      	cmp	r2, r3
 80075c4:	d09f      	beq.n	8007506 <UART_WaitOnFlagUntilTimeout+0x12>
 80075c6:	2300      	movs	r3, #0
 80075c8:	4618      	mov	r0, r3
 80075ca:	3740      	adds	r7, #64	; 0x40
 80075cc:	46bd      	mov	sp, r7
 80075ce:	bd80      	pop	{r7, pc}

080075d0 <UART_EndRxTransfer>:
 80075d0:	b480      	push	{r7}
 80075d2:	b095      	sub	sp, #84	; 0x54
 80075d4:	af00      	add	r7, sp, #0
 80075d6:	6078      	str	r0, [r7, #4]
 80075d8:	687b      	ldr	r3, [r7, #4]
 80075da:	681b      	ldr	r3, [r3, #0]
 80075dc:	330c      	adds	r3, #12
 80075de:	637b      	str	r3, [r7, #52]	; 0x34
 80075e0:	6b7b      	ldr	r3, [r7, #52]	; 0x34
 80075e2:	e853 3f00 	ldrex	r3, [r3]
 80075e6:	633b      	str	r3, [r7, #48]	; 0x30
 80075e8:	6b3b      	ldr	r3, [r7, #48]	; 0x30
 80075ea:	f423 7390 	bic.w	r3, r3, #288	; 0x120
 80075ee:	64fb      	str	r3, [r7, #76]	; 0x4c
 80075f0:	687b      	ldr	r3, [r7, #4]
 80075f2:	681b      	ldr	r3, [r3, #0]
 80075f4:	330c      	adds	r3, #12
 80075f6:	6cfa      	ldr	r2, [r7, #76]	; 0x4c
 80075f8:	643a      	str	r2, [r7, #64]	; 0x40
 80075fa:	63fb      	str	r3, [r7, #60]	; 0x3c
 80075fc:	6bf9      	ldr	r1, [r7, #60]	; 0x3c
 80075fe:	6c3a      	ldr	r2, [r7, #64]	; 0x40
 8007600:	e841 2300 	strex	r3, r2, [r1]
 8007604:	63bb      	str	r3, [r7, #56]	; 0x38
 8007606:	6bbb      	ldr	r3, [r7, #56]	; 0x38
 8007608:	2b00      	cmp	r3, #0
 800760a:	d1e5      	bne.n	80075d8 <UART_EndRxTransfer+0x8>
 800760c:	687b      	ldr	r3, [r7, #4]
 800760e:	681b      	ldr	r3, [r3, #0]
 8007610:	3314      	adds	r3, #20
 8007612:	623b      	str	r3, [r7, #32]
 8007614:	6a3b      	ldr	r3, [r7, #32]
 8007616:	e853 3f00 	ldrex	r3, [r3]
 800761a:	61fb      	str	r3, [r7, #28]
 800761c:	69fb      	ldr	r3, [r7, #28]
 800761e:	f023 0301 	bic.w	r3, r3, #1
 8007622:	64bb      	str	r3, [r7, #72]	; 0x48
 8007624:	687b      	ldr	r3, [r7, #4]
 8007626:	681b      	ldr	r3, [r3, #0]
 8007628:	3314      	adds	r3, #20
 800762a:	6cba      	ldr	r2, [r7, #72]	; 0x48
 800762c:	62fa      	str	r2, [r7, #44]	; 0x2c
 800762e:	62bb      	str	r3, [r7, #40]	; 0x28
 8007630:	6ab9      	ldr	r1, [r7, #40]	; 0x28
 8007632:	6afa      	ldr	r2, [r7, #44]	; 0x2c
 8007634:	e841 2300 	strex	r3, r2, [r1]
 8007638:	627b      	str	r3, [r7, #36]	; 0x24
 800763a:	6a7b      	ldr	r3, [r7, #36]	; 0x24
 800763c:	2b00      	cmp	r3, #0
 800763e:	d1e5      	bne.n	800760c <UART_EndRxTransfer+0x3c>
 8007640:	687b      	ldr	r3, [r7, #4]
 8007642:	6b1b      	ldr	r3, [r3, #48]	; 0x30
 8007644:	2b01      	cmp	r3, #1
 8007646:	d119      	bne.n	800767c <UART_EndRxTransfer+0xac>
 8007648:	687b      	ldr	r3, [r7, #4]
 800764a:	681b      	ldr	r3, [r3, #0]
 800764c:	330c      	adds	r3, #12
 800764e:	60fb      	str	r3, [r7, #12]
 8007650:	68fb      	ldr	r3, [r7, #12]
 8007652:	e853 3f00 	ldrex	r3, [r3]
 8007656:	60bb      	str	r3, [r7, #8]
 8007658:	68bb      	ldr	r3, [r7, #8]
 800765a:	f023 0310 	bic.w	r3, r3, #16
 800765e:	647b      	str	r3, [r7, #68]	; 0x44
 8007660:	687b      	ldr	r3, [r7, #4]
 8007662:	681b      	ldr	r3, [r3, #0]
 8007664:	330c      	adds	r3, #12
 8007666:	6c7a      	ldr	r2, [r7, #68]	; 0x44
 8007668:	61ba      	str	r2, [r7, #24]
 800766a:	617b      	str	r3, [r7, #20]
 800766c:	6979      	ldr	r1, [r7, #20]
 800766e:	69ba      	ldr	r2, [r7, #24]
 8007670:	e841 2300 	strex	r3, r2, [r1]
 8007674:	613b      	str	r3, [r7, #16]
 8007676:	693b      	ldr	r3, [r7, #16]
 8007678:	2b00      	cmp	r3, #0
 800767a:	d1e5      	bne.n	8007648 <UART_EndRxTransfer+0x78>
 800767c:	687b      	ldr	r3, [r7, #4]
 800767e:	2220      	movs	r2, #32
 8007680:	f883 2042 	strb.w	r2, [r3, #66]	; 0x42
 8007684:	687b      	ldr	r3, [r7, #4]
 8007686:	2200      	movs	r2, #0
 8007688:	631a      	str	r2, [r3, #48]	; 0x30
 800768a:	bf00      	nop
 800768c:	3754      	adds	r7, #84	; 0x54
 800768e:	46bd      	mov	sp, r7
 8007690:	bc80      	pop	{r7}
 8007692:	4770      	bx	lr

08007694 <UART_DMAAbortOnError>:
 8007694:	b580      	push	{r7, lr}
 8007696:	b084      	sub	sp, #16
 8007698:	af00      	add	r7, sp, #0
 800769a:	6078      	str	r0, [r7, #4]
 800769c:	687b      	ldr	r3, [r7, #4]
 800769e:	6a5b      	ldr	r3, [r3, #36]	; 0x24
 80076a0:	60fb      	str	r3, [r7, #12]
 80076a2:	68fb      	ldr	r3, [r7, #12]
 80076a4:	2200      	movs	r2, #0
 80076a6:	85da      	strh	r2, [r3, #46]	; 0x2e
 80076a8:	68fb      	ldr	r3, [r7, #12]
 80076aa:	2200      	movs	r2, #0
 80076ac:	84da      	strh	r2, [r3, #38]	; 0x26
 80076ae:	68f8      	ldr	r0, [r7, #12]
 80076b0:	f7ff ff0c 	bl	80074cc <HAL_UART_ErrorCallback>
 80076b4:	bf00      	nop
 80076b6:	3710      	adds	r7, #16
 80076b8:	46bd      	mov	sp, r7
 80076ba:	bd80      	pop	{r7, pc}

080076bc <UART_Transmit_IT>:
 80076bc:	b480      	push	{r7}
 80076be:	b085      	sub	sp, #20
 80076c0:	af00      	add	r7, sp, #0
 80076c2:	6078      	str	r0, [r7, #4]
 80076c4:	687b      	ldr	r3, [r7, #4]
 80076c6:	f893 3041 	ldrb.w	r3, [r3, #65]	; 0x41
 80076ca:	b2db      	uxtb	r3, r3
 80076cc:	2b21      	cmp	r3, #33	; 0x21
 80076ce:	d13e      	bne.n	800774e <UART_Transmit_IT+0x92>
 80076d0:	687b      	ldr	r3, [r7, #4]
 80076d2:	689b      	ldr	r3, [r3, #8]
 80076d4:	f5b3 5f80 	cmp.w	r3, #4096	; 0x1000
 80076d8:	d114      	bne.n	8007704 <UART_Transmit_IT+0x48>
 80076da:	687b      	ldr	r3, [r7, #4]
 80076dc:	691b      	ldr	r3, [r3, #16]
 80076de:	2b00      	cmp	r3, #0
 80076e0:	d110      	bne.n	8007704 <UART_Transmit_IT+0x48>
 80076e2:	687b      	ldr	r3, [r7, #4]
 80076e4:	6a1b      	ldr	r3, [r3, #32]
 80076e6:	60fb      	str	r3, [r7, #12]
 80076e8:	68fb      	ldr	r3, [r7, #12]
 80076ea:	881b      	ldrh	r3, [r3, #0]
 80076ec:	461a      	mov	r2, r3
 80076ee:	687b      	ldr	r3, [r7, #4]
 80076f0:	681b      	ldr	r3, [r3, #0]
 80076f2:	f3c2 0208 	ubfx	r2, r2, #0, #9
 80076f6:	605a      	str	r2, [r3, #4]
 80076f8:	687b      	ldr	r3, [r7, #4]
 80076fa:	6a1b      	ldr	r3, [r3, #32]
 80076fc:	1c9a      	adds	r2, r3, #2
 80076fe:	687b      	ldr	r3, [r7, #4]
 8007700:	621a      	str	r2, [r3, #32]
 8007702:	e008      	b.n	8007716 <UART_Transmit_IT+0x5a>
 8007704:	687b      	ldr	r3, [r7, #4]
 8007706:	6a1b      	ldr	r3, [r3, #32]
 8007708:	1c59      	adds	r1, r3, #1
 800770a:	687a      	ldr	r2, [r7, #4]
 800770c:	6211      	str	r1, [r2, #32]
 800770e:	781a      	ldrb	r2, [r3, #0]
 8007710:	687b      	ldr	r3, [r7, #4]
 8007712:	681b      	ldr	r3, [r3, #0]
 8007714:	605a      	str	r2, [r3, #4]
 8007716:	687b      	ldr	r3, [r7, #4]
 8007718:	8cdb      	ldrh	r3, [r3, #38]	; 0x26
 800771a:	b29b      	uxth	r3, r3
 800771c:	3b01      	subs	r3, #1
 800771e:	b29b      	uxth	r3, r3
 8007720:	687a      	ldr	r2, [r7, #4]
 8007722:	4619      	mov	r1, r3
 8007724:	84d1      	strh	r1, [r2, #38]	; 0x26
 8007726:	2b00      	cmp	r3, #0
 8007728:	d10f      	bne.n	800774a <UART_Transmit_IT+0x8e>
 800772a:	687b      	ldr	r3, [r7, #4]
 800772c:	681b      	ldr	r3, [r3, #0]
 800772e:	68da      	ldr	r2, [r3, #12]
 8007730:	687b      	ldr	r3, [r7, #4]
 8007732:	681b      	ldr	r3, [r3, #0]
 8007734:	f022 0280 	bic.w	r2, r2, #128	; 0x80
 8007738:	60da      	str	r2, [r3, #12]
 800773a:	687b      	ldr	r3, [r7, #4]
 800773c:	681b      	ldr	r3, [r3, #0]
 800773e:	68da      	ldr	r2, [r3, #12]
 8007740:	687b      	ldr	r3, [r7, #4]
 8007742:	681b      	ldr	r3, [r3, #0]
 8007744:	f042 0240 	orr.w	r2, r2, #64	; 0x40
 8007748:	60da      	str	r2, [r3, #12]
 800774a:	2300      	movs	r3, #0
 800774c:	e000      	b.n	8007750 <UART_Transmit_IT+0x94>
 800774e:	2302      	movs	r3, #2
 8007750:	4618      	mov	r0, r3
 8007752:	3714      	adds	r7, #20
 8007754:	46bd      	mov	sp, r7
 8007756:	bc80      	pop	{r7}
 8007758:	4770      	bx	lr

0800775a <UART_EndTransmit_IT>:
 800775a:	b580      	push	{r7, lr}
 800775c:	b082      	sub	sp, #8
 800775e:	af00      	add	r7, sp, #0
 8007760:	6078      	str	r0, [r7, #4]
 8007762:	687b      	ldr	r3, [r7, #4]
 8007764:	681b      	ldr	r3, [r3, #0]
 8007766:	68da      	ldr	r2, [r3, #12]
 8007768:	687b      	ldr	r3, [r7, #4]
 800776a:	681b      	ldr	r3, [r3, #0]
 800776c:	f022 0240 	bic.w	r2, r2, #64	; 0x40
 8007770:	60da      	str	r2, [r3, #12]
 8007772:	687b      	ldr	r3, [r7, #4]
 8007774:	2220      	movs	r2, #32
 8007776:	f883 2041 	strb.w	r2, [r3, #65]	; 0x41
 800777a:	6878      	ldr	r0, [r7, #4]
 800777c:	f7ff fe94 	bl	80074a8 <HAL_UART_TxCpltCallback>
 8007780:	2300      	movs	r3, #0
 8007782:	4618      	mov	r0, r3
 8007784:	3708      	adds	r7, #8
 8007786:	46bd      	mov	sp, r7
 8007788:	bd80      	pop	{r7, pc}

0800778a <UART_Receive_IT>:
 800778a:	b580      	push	{r7, lr}
 800778c:	b08c      	sub	sp, #48	; 0x30
 800778e:	af00      	add	r7, sp, #0
 8007790:	6078      	str	r0, [r7, #4]
 8007792:	687b      	ldr	r3, [r7, #4]
 8007794:	f893 3042 	ldrb.w	r3, [r3, #66]	; 0x42
 8007798:	b2db      	uxtb	r3, r3
 800779a:	2b22      	cmp	r3, #34	; 0x22
 800779c:	f040 80ae 	bne.w	80078fc <UART_Receive_IT+0x172>
 80077a0:	687b      	ldr	r3, [r7, #4]
 80077a2:	689b      	ldr	r3, [r3, #8]
 80077a4:	f5b3 5f80 	cmp.w	r3, #4096	; 0x1000
 80077a8:	d117      	bne.n	80077da <UART_Receive_IT+0x50>
 80077aa:	687b      	ldr	r3, [r7, #4]
 80077ac:	691b      	ldr	r3, [r3, #16]
 80077ae:	2b00      	cmp	r3, #0
 80077b0:	d113      	bne.n	80077da <UART_Receive_IT+0x50>
 80077b2:	2300      	movs	r3, #0
 80077b4:	62fb      	str	r3, [r7, #44]	; 0x2c
 80077b6:	687b      	ldr	r3, [r7, #4]
 80077b8:	6a9b      	ldr	r3, [r3, #40]	; 0x28
 80077ba:	62bb      	str	r3, [r7, #40]	; 0x28
 80077bc:	687b      	ldr	r3, [r7, #4]
 80077be:	681b      	ldr	r3, [r3, #0]
 80077c0:	685b      	ldr	r3, [r3, #4]
 80077c2:	b29b      	uxth	r3, r3
 80077c4:	f3c3 0308 	ubfx	r3, r3, #0, #9
 80077c8:	b29a      	uxth	r2, r3
 80077ca:	6abb      	ldr	r3, [r7, #40]	; 0x28
 80077cc:	801a      	strh	r2, [r3, #0]
 80077ce:	687b      	ldr	r3, [r7, #4]
 80077d0:	6a9b      	ldr	r3, [r3, #40]	; 0x28
 80077d2:	1c9a      	adds	r2, r3, #2
 80077d4:	687b      	ldr	r3, [r7, #4]
 80077d6:	629a      	str	r2, [r3, #40]	; 0x28
 80077d8:	e026      	b.n	8007828 <UART_Receive_IT+0x9e>
 80077da:	687b      	ldr	r3, [r7, #4]
 80077dc:	6a9b      	ldr	r3, [r3, #40]	; 0x28
 80077de:	62fb      	str	r3, [r7, #44]	; 0x2c
 80077e0:	2300      	movs	r3, #0
 80077e2:	62bb      	str	r3, [r7, #40]	; 0x28
 80077e4:	687b      	ldr	r3, [r7, #4]
 80077e6:	689b      	ldr	r3, [r3, #8]
 80077e8:	f5b3 5f80 	cmp.w	r3, #4096	; 0x1000
 80077ec:	d007      	beq.n	80077fe <UART_Receive_IT+0x74>
 80077ee:	687b      	ldr	r3, [r7, #4]
 80077f0:	689b      	ldr	r3, [r3, #8]
 80077f2:	2b00      	cmp	r3, #0
 80077f4:	d10a      	bne.n	800780c <UART_Receive_IT+0x82>
 80077f6:	687b      	ldr	r3, [r7, #4]
 80077f8:	691b      	ldr	r3, [r3, #16]
 80077fa:	2b00      	cmp	r3, #0
 80077fc:	d106      	bne.n	800780c <UART_Receive_IT+0x82>
 80077fe:	687b      	ldr	r3, [r7, #4]
 8007800:	681b      	ldr	r3, [r3, #0]
 8007802:	685b      	ldr	r3, [r3, #4]
 8007804:	b2da      	uxtb	r2, r3
 8007806:	6afb      	ldr	r3, [r7, #44]	; 0x2c
 8007808:	701a      	strb	r2, [r3, #0]
 800780a:	e008      	b.n	800781e <UART_Receive_IT+0x94>
 800780c:	687b      	ldr	r3, [r7, #4]
 800780e:	681b      	ldr	r3, [r3, #0]
 8007810:	685b      	ldr	r3, [r3, #4]
 8007812:	b2db      	uxtb	r3, r3
 8007814:	f003 037f 	and.w	r3, r3, #127	; 0x7f
 8007818:	b2da      	uxtb	r2, r3
 800781a:	6afb      	ldr	r3, [r7, #44]	; 0x2c
 800781c:	701a      	strb	r2, [r3, #0]
 800781e:	687b      	ldr	r3, [r7, #4]
 8007820:	6a9b      	ldr	r3, [r3, #40]	; 0x28
 8007822:	1c5a      	adds	r2, r3, #1
 8007824:	687b      	ldr	r3, [r7, #4]
 8007826:	629a      	str	r2, [r3, #40]	; 0x28
 8007828:	687b      	ldr	r3, [r7, #4]
 800782a:	8ddb      	ldrh	r3, [r3, #46]	; 0x2e
 800782c:	b29b      	uxth	r3, r3
 800782e:	3b01      	subs	r3, #1
 8007830:	b29b      	uxth	r3, r3
 8007832:	687a      	ldr	r2, [r7, #4]
 8007834:	4619      	mov	r1, r3
 8007836:	85d1      	strh	r1, [r2, #46]	; 0x2e
 8007838:	2b00      	cmp	r3, #0
 800783a:	d15d      	bne.n	80078f8 <UART_Receive_IT+0x16e>
 800783c:	687b      	ldr	r3, [r7, #4]
 800783e:	681b      	ldr	r3, [r3, #0]
 8007840:	68da      	ldr	r2, [r3, #12]
 8007842:	687b      	ldr	r3, [r7, #4]
 8007844:	681b      	ldr	r3, [r3, #0]
 8007846:	f022 0220 	bic.w	r2, r2, #32
 800784a:	60da      	str	r2, [r3, #12]
 800784c:	687b      	ldr	r3, [r7, #4]
 800784e:	681b      	ldr	r3, [r3, #0]
 8007850:	68da      	ldr	r2, [r3, #12]
 8007852:	687b      	ldr	r3, [r7, #4]
 8007854:	681b      	ldr	r3, [r3, #0]
 8007856:	f422 7280 	bic.w	r2, r2, #256	; 0x100
 800785a:	60da      	str	r2, [r3, #12]
 800785c:	687b      	ldr	r3, [r7, #4]
 800785e:	681b      	ldr	r3, [r3, #0]
 8007860:	695a      	ldr	r2, [r3, #20]
 8007862:	687b      	ldr	r3, [r7, #4]
 8007864:	681b      	ldr	r3, [r3, #0]
 8007866:	f022 0201 	bic.w	r2, r2, #1
 800786a:	615a      	str	r2, [r3, #20]
 800786c:	687b      	ldr	r3, [r7, #4]
 800786e:	2220      	movs	r2, #32
 8007870:	f883 2042 	strb.w	r2, [r3, #66]	; 0x42
 8007874:	687b      	ldr	r3, [r7, #4]
 8007876:	2200      	movs	r2, #0
 8007878:	635a      	str	r2, [r3, #52]	; 0x34
 800787a:	687b      	ldr	r3, [r7, #4]
 800787c:	6b1b      	ldr	r3, [r3, #48]	; 0x30
 800787e:	2b01      	cmp	r3, #1
 8007880:	d135      	bne.n	80078ee <UART_Receive_IT+0x164>
 8007882:	687b      	ldr	r3, [r7, #4]
 8007884:	2200      	movs	r2, #0
 8007886:	631a      	str	r2, [r3, #48]	; 0x30
 8007888:	687b      	ldr	r3, [r7, #4]
 800788a:	681b      	ldr	r3, [r3, #0]
 800788c:	330c      	adds	r3, #12
 800788e:	617b      	str	r3, [r7, #20]
 8007890:	697b      	ldr	r3, [r7, #20]
 8007892:	e853 3f00 	ldrex	r3, [r3]
 8007896:	613b      	str	r3, [r7, #16]
 8007898:	693b      	ldr	r3, [r7, #16]
 800789a:	f023 0310 	bic.w	r3, r3, #16
 800789e:	627b      	str	r3, [r7, #36]	; 0x24
 80078a0:	687b      	ldr	r3, [r7, #4]
 80078a2:	681b      	ldr	r3, [r3, #0]
 80078a4:	330c      	adds	r3, #12
 80078a6:	6a7a      	ldr	r2, [r7, #36]	; 0x24
 80078a8:	623a      	str	r2, [r7, #32]
 80078aa:	61fb      	str	r3, [r7, #28]
 80078ac:	69f9      	ldr	r1, [r7, #28]
 80078ae:	6a3a      	ldr	r2, [r7, #32]
 80078b0:	e841 2300 	strex	r3, r2, [r1]
 80078b4:	61bb      	str	r3, [r7, #24]
 80078b6:	69bb      	ldr	r3, [r7, #24]
 80078b8:	2b00      	cmp	r3, #0
 80078ba:	d1e5      	bne.n	8007888 <UART_Receive_IT+0xfe>
 80078bc:	687b      	ldr	r3, [r7, #4]
 80078be:	681b      	ldr	r3, [r3, #0]
 80078c0:	681b      	ldr	r3, [r3, #0]
 80078c2:	f003 0310 	and.w	r3, r3, #16
 80078c6:	2b10      	cmp	r3, #16
 80078c8:	d10a      	bne.n	80078e0 <UART_Receive_IT+0x156>
 80078ca:	2300      	movs	r3, #0
 80078cc:	60fb      	str	r3, [r7, #12]
 80078ce:	687b      	ldr	r3, [r7, #4]
 80078d0:	681b      	ldr	r3, [r3, #0]
 80078d2:	681b      	ldr	r3, [r3, #0]
 80078d4:	60fb      	str	r3, [r7, #12]
 80078d6:	687b      	ldr	r3, [r7, #4]
 80078d8:	681b      	ldr	r3, [r3, #0]
 80078da:	685b      	ldr	r3, [r3, #4]
 80078dc:	60fb      	str	r3, [r7, #12]
 80078de:	68fb      	ldr	r3, [r7, #12]
 80078e0:	687b      	ldr	r3, [r7, #4]
 80078e2:	8d9b      	ldrh	r3, [r3, #44]	; 0x2c
 80078e4:	4619      	mov	r1, r3
 80078e6:	6878      	ldr	r0, [r7, #4]
 80078e8:	f7ff fdf9 	bl	80074de <HAL_UARTEx_RxEventCallback>
 80078ec:	e002      	b.n	80078f4 <UART_Receive_IT+0x16a>
 80078ee:	6878      	ldr	r0, [r7, #4]
 80078f0:	f7ff fde3 	bl	80074ba <HAL_UART_RxCpltCallback>
 80078f4:	2300      	movs	r3, #0
 80078f6:	e002      	b.n	80078fe <UART_Receive_IT+0x174>
 80078f8:	2300      	movs	r3, #0
 80078fa:	e000      	b.n	80078fe <UART_Receive_IT+0x174>
 80078fc:	2302      	movs	r3, #2
 80078fe:	4618      	mov	r0, r3
 8007900:	3730      	adds	r7, #48	; 0x30
 8007902:	46bd      	mov	sp, r7
 8007904:	bd80      	pop	{r7, pc}
	...

08007908 <UART_SetConfig>:
 8007908:	b580      	push	{r7, lr}
 800790a:	b084      	sub	sp, #16
 800790c:	af00      	add	r7, sp, #0
 800790e:	6078      	str	r0, [r7, #4]
 8007910:	687b      	ldr	r3, [r7, #4]
 8007912:	681b      	ldr	r3, [r3, #0]
 8007914:	691b      	ldr	r3, [r3, #16]
 8007916:	f423 5140 	bic.w	r1, r3, #12288	; 0x3000
 800791a:	687b      	ldr	r3, [r7, #4]
 800791c:	68da      	ldr	r2, [r3, #12]
 800791e:	687b      	ldr	r3, [r7, #4]
 8007920:	681b      	ldr	r3, [r3, #0]
 8007922:	430a      	orrs	r2, r1
 8007924:	611a      	str	r2, [r3, #16]
 8007926:	687b      	ldr	r3, [r7, #4]
 8007928:	689a      	ldr	r2, [r3, #8]
 800792a:	687b      	ldr	r3, [r7, #4]
 800792c:	691b      	ldr	r3, [r3, #16]
 800792e:	431a      	orrs	r2, r3
 8007930:	687b      	ldr	r3, [r7, #4]
 8007932:	695b      	ldr	r3, [r3, #20]
 8007934:	4313      	orrs	r3, r2
 8007936:	60bb      	str	r3, [r7, #8]
 8007938:	687b      	ldr	r3, [r7, #4]
 800793a:	681b      	ldr	r3, [r3, #0]
 800793c:	68db      	ldr	r3, [r3, #12]
 800793e:	f423 53b0 	bic.w	r3, r3, #5632	; 0x1600
 8007942:	f023 030c 	bic.w	r3, r3, #12
 8007946:	687a      	ldr	r2, [r7, #4]
 8007948:	6812      	ldr	r2, [r2, #0]
 800794a:	68b9      	ldr	r1, [r7, #8]
 800794c:	430b      	orrs	r3, r1
 800794e:	60d3      	str	r3, [r2, #12]
 8007950:	687b      	ldr	r3, [r7, #4]
 8007952:	681b      	ldr	r3, [r3, #0]
 8007954:	695b      	ldr	r3, [r3, #20]
 8007956:	f423 7140 	bic.w	r1, r3, #768	; 0x300
 800795a:	687b      	ldr	r3, [r7, #4]
 800795c:	699a      	ldr	r2, [r3, #24]
 800795e:	687b      	ldr	r3, [r7, #4]
 8007960:	681b      	ldr	r3, [r3, #0]
 8007962:	430a      	orrs	r2, r1
 8007964:	615a      	str	r2, [r3, #20]
 8007966:	687b      	ldr	r3, [r7, #4]
 8007968:	681b      	ldr	r3, [r3, #0]
 800796a:	4a2c      	ldr	r2, [pc, #176]	; (8007a1c <UART_SetConfig+0x114>)
 800796c:	4293      	cmp	r3, r2
 800796e:	d103      	bne.n	8007978 <UART_SetConfig+0x70>
 8007970:	f7fe fa28 	bl	8005dc4 <HAL_RCC_GetPCLK2Freq>
 8007974:	60f8      	str	r0, [r7, #12]
 8007976:	e002      	b.n	800797e <UART_SetConfig+0x76>
 8007978:	f7fe fa10 	bl	8005d9c <HAL_RCC_GetPCLK1Freq>
 800797c:	60f8      	str	r0, [r7, #12]
 800797e:	68fa      	ldr	r2, [r7, #12]
 8007980:	4613      	mov	r3, r2
 8007982:	009b      	lsls	r3, r3, #2
 8007984:	4413      	add	r3, r2
 8007986:	009a      	lsls	r2, r3, #2
 8007988:	441a      	add	r2, r3
 800798a:	687b      	ldr	r3, [r7, #4]
 800798c:	685b      	ldr	r3, [r3, #4]
 800798e:	009b      	lsls	r3, r3, #2
 8007990:	fbb2 f3f3 	udiv	r3, r2, r3
 8007994:	4a22      	ldr	r2, [pc, #136]	; (8007a20 <UART_SetConfig+0x118>)
 8007996:	fba2 2303 	umull	r2, r3, r2, r3
 800799a:	095b      	lsrs	r3, r3, #5
 800799c:	0119      	lsls	r1, r3, #4
 800799e:	68fa      	ldr	r2, [r7, #12]
 80079a0:	4613      	mov	r3, r2
 80079a2:	009b      	lsls	r3, r3, #2
 80079a4:	4413      	add	r3, r2
 80079a6:	009a      	lsls	r2, r3, #2
 80079a8:	441a      	add	r2, r3
 80079aa:	687b      	ldr	r3, [r7, #4]
 80079ac:	685b      	ldr	r3, [r3, #4]
 80079ae:	009b      	lsls	r3, r3, #2
 80079b0:	fbb2 f2f3 	udiv	r2, r2, r3
 80079b4:	4b1a      	ldr	r3, [pc, #104]	; (8007a20 <UART_SetConfig+0x118>)
 80079b6:	fba3 0302 	umull	r0, r3, r3, r2
 80079ba:	095b      	lsrs	r3, r3, #5
 80079bc:	2064      	movs	r0, #100	; 0x64
 80079be:	fb00 f303 	mul.w	r3, r0, r3
 80079c2:	1ad3      	subs	r3, r2, r3
 80079c4:	011b      	lsls	r3, r3, #4
 80079c6:	3332      	adds	r3, #50	; 0x32
 80079c8:	4a15      	ldr	r2, [pc, #84]	; (8007a20 <UART_SetConfig+0x118>)
 80079ca:	fba2 2303 	umull	r2, r3, r2, r3
 80079ce:	095b      	lsrs	r3, r3, #5
 80079d0:	f003 03f0 	and.w	r3, r3, #240	; 0xf0
 80079d4:	4419      	add	r1, r3
 80079d6:	68fa      	ldr	r2, [r7, #12]
 80079d8:	4613      	mov	r3, r2
 80079da:	009b      	lsls	r3, r3, #2
 80079dc:	4413      	add	r3, r2
 80079de:	009a      	lsls	r2, r3, #2
 80079e0:	441a      	add	r2, r3
 80079e2:	687b      	ldr	r3, [r7, #4]
 80079e4:	685b      	ldr	r3, [r3, #4]
 80079e6:	009b      	lsls	r3, r3, #2
 80079e8:	fbb2 f2f3 	udiv	r2, r2, r3
 80079ec:	4b0c      	ldr	r3, [pc, #48]	; (8007a20 <UART_SetConfig+0x118>)
 80079ee:	fba3 0302 	umull	r0, r3, r3, r2
 80079f2:	095b      	lsrs	r3, r3, #5
 80079f4:	2064      	movs	r0, #100	; 0x64
 80079f6:	fb00 f303 	mul.w	r3, r0, r3
 80079fa:	1ad3      	subs	r3, r2, r3
 80079fc:	011b      	lsls	r3, r3, #4
 80079fe:	3332      	adds	r3, #50	; 0x32
 8007a00:	4a07      	ldr	r2, [pc, #28]	; (8007a20 <UART_SetConfig+0x118>)
 8007a02:	fba2 2303 	umull	r2, r3, r2, r3
 8007a06:	095b      	lsrs	r3, r3, #5
 8007a08:	f003 020f 	and.w	r2, r3, #15
 8007a0c:	687b      	ldr	r3, [r7, #4]
 8007a0e:	681b      	ldr	r3, [r3, #0]
 8007a10:	440a      	add	r2, r1
 8007a12:	609a      	str	r2, [r3, #8]
 8007a14:	bf00      	nop
 8007a16:	3710      	adds	r7, #16
 8007a18:	46bd      	mov	sp, r7
 8007a1a:	bd80      	pop	{r7, pc}
 8007a1c:	40013800 	.word	0x40013800
 8007a20:	51eb851f 	.word	0x51eb851f

08007a24 <FSMC_NORSRAM_Init>:
 8007a24:	b480      	push	{r7}
 8007a26:	b087      	sub	sp, #28
 8007a28:	af00      	add	r7, sp, #0
 8007a2a:	6078      	str	r0, [r7, #4]
 8007a2c:	6039      	str	r1, [r7, #0]
 8007a2e:	683b      	ldr	r3, [r7, #0]
 8007a30:	681a      	ldr	r2, [r3, #0]
 8007a32:	687b      	ldr	r3, [r7, #4]
 8007a34:	f853 3022 	ldr.w	r3, [r3, r2, lsl #2]
 8007a38:	683a      	ldr	r2, [r7, #0]
 8007a3a:	6812      	ldr	r2, [r2, #0]
 8007a3c:	f023 0101 	bic.w	r1, r3, #1
 8007a40:	687b      	ldr	r3, [r7, #4]
 8007a42:	f843 1022 	str.w	r1, [r3, r2, lsl #2]
 8007a46:	683b      	ldr	r3, [r7, #0]
 8007a48:	689b      	ldr	r3, [r3, #8]
 8007a4a:	2b08      	cmp	r3, #8
 8007a4c:	d102      	bne.n	8007a54 <FSMC_NORSRAM_Init+0x30>
 8007a4e:	2340      	movs	r3, #64	; 0x40
 8007a50:	617b      	str	r3, [r7, #20]
 8007a52:	e001      	b.n	8007a58 <FSMC_NORSRAM_Init+0x34>
 8007a54:	2300      	movs	r3, #0
 8007a56:	617b      	str	r3, [r7, #20]
 8007a58:	683b      	ldr	r3, [r7, #0]
 8007a5a:	685a      	ldr	r2, [r3, #4]
 8007a5c:	697b      	ldr	r3, [r7, #20]
 8007a5e:	431a      	orrs	r2, r3
 8007a60:	683b      	ldr	r3, [r7, #0]
 8007a62:	689b      	ldr	r3, [r3, #8]
 8007a64:	431a      	orrs	r2, r3
 8007a66:	683b      	ldr	r3, [r7, #0]
 8007a68:	68db      	ldr	r3, [r3, #12]
 8007a6a:	431a      	orrs	r2, r3
 8007a6c:	683b      	ldr	r3, [r7, #0]
 8007a6e:	691b      	ldr	r3, [r3, #16]
 8007a70:	431a      	orrs	r2, r3
 8007a72:	683b      	ldr	r3, [r7, #0]
 8007a74:	695b      	ldr	r3, [r3, #20]
 8007a76:	431a      	orrs	r2, r3
 8007a78:	683b      	ldr	r3, [r7, #0]
 8007a7a:	69db      	ldr	r3, [r3, #28]
 8007a7c:	431a      	orrs	r2, r3
 8007a7e:	683b      	ldr	r3, [r7, #0]
 8007a80:	6a1b      	ldr	r3, [r3, #32]
 8007a82:	431a      	orrs	r2, r3
 8007a84:	683b      	ldr	r3, [r7, #0]
 8007a86:	6a5b      	ldr	r3, [r3, #36]	; 0x24
 8007a88:	431a      	orrs	r2, r3
 8007a8a:	683b      	ldr	r3, [r7, #0]
 8007a8c:	6a9b      	ldr	r3, [r3, #40]	; 0x28
 8007a8e:	431a      	orrs	r2, r3
 8007a90:	683b      	ldr	r3, [r7, #0]
 8007a92:	6adb      	ldr	r3, [r3, #44]	; 0x2c
 8007a94:	431a      	orrs	r2, r3
 8007a96:	683b      	ldr	r3, [r7, #0]
 8007a98:	6b1b      	ldr	r3, [r3, #48]	; 0x30
 8007a9a:	4313      	orrs	r3, r2
 8007a9c:	613b      	str	r3, [r7, #16]
 8007a9e:	683b      	ldr	r3, [r7, #0]
 8007aa0:	699b      	ldr	r3, [r3, #24]
 8007aa2:	693a      	ldr	r2, [r7, #16]
 8007aa4:	4313      	orrs	r3, r2
 8007aa6:	613b      	str	r3, [r7, #16]
 8007aa8:	683b      	ldr	r3, [r7, #0]
 8007aaa:	6b5b      	ldr	r3, [r3, #52]	; 0x34
 8007aac:	693a      	ldr	r2, [r7, #16]
 8007aae:	4313      	orrs	r3, r2
 8007ab0:	613b      	str	r3, [r7, #16]
 8007ab2:	4b10      	ldr	r3, [pc, #64]	; (8007af4 <FSMC_NORSRAM_Init+0xd0>)
 8007ab4:	60fb      	str	r3, [r7, #12]
 8007ab6:	68fb      	ldr	r3, [r7, #12]
 8007ab8:	f443 6380 	orr.w	r3, r3, #1024	; 0x400
 8007abc:	60fb      	str	r3, [r7, #12]
 8007abe:	68fb      	ldr	r3, [r7, #12]
 8007ac0:	f443 23e0 	orr.w	r3, r3, #458752	; 0x70000
 8007ac4:	60fb      	str	r3, [r7, #12]
 8007ac6:	683b      	ldr	r3, [r7, #0]
 8007ac8:	681a      	ldr	r2, [r3, #0]
 8007aca:	687b      	ldr	r3, [r7, #4]
 8007acc:	f853 2022 	ldr.w	r2, [r3, r2, lsl #2]
 8007ad0:	68fb      	ldr	r3, [r7, #12]
 8007ad2:	43db      	mvns	r3, r3
 8007ad4:	ea02 0103 	and.w	r1, r2, r3
 8007ad8:	683b      	ldr	r3, [r7, #0]
 8007ada:	681a      	ldr	r2, [r3, #0]
 8007adc:	693b      	ldr	r3, [r7, #16]
 8007ade:	4319      	orrs	r1, r3
 8007ae0:	687b      	ldr	r3, [r7, #4]
 8007ae2:	f843 1022 	str.w	r1, [r3, r2, lsl #2]
 8007ae6:	2300      	movs	r3, #0
 8007ae8:	4618      	mov	r0, r3
 8007aea:	371c      	adds	r7, #28
 8007aec:	46bd      	mov	sp, r7
 8007aee:	bc80      	pop	{r7}
 8007af0:	4770      	bx	lr
 8007af2:	bf00      	nop
 8007af4:	0008fb7f 	.word	0x0008fb7f

08007af8 <FSMC_NORSRAM_Timing_Init>:
 8007af8:	b480      	push	{r7}
 8007afa:	b085      	sub	sp, #20
 8007afc:	af00      	add	r7, sp, #0
 8007afe:	60f8      	str	r0, [r7, #12]
 8007b00:	60b9      	str	r1, [r7, #8]
 8007b02:	607a      	str	r2, [r7, #4]
 8007b04:	687b      	ldr	r3, [r7, #4]
 8007b06:	1c5a      	adds	r2, r3, #1
 8007b08:	68fb      	ldr	r3, [r7, #12]
 8007b0a:	f853 3022 	ldr.w	r3, [r3, r2, lsl #2]
 8007b0e:	f003 4140 	and.w	r1, r3, #3221225472	; 0xc0000000
 8007b12:	68bb      	ldr	r3, [r7, #8]
 8007b14:	681a      	ldr	r2, [r3, #0]
 8007b16:	68bb      	ldr	r3, [r7, #8]
 8007b18:	685b      	ldr	r3, [r3, #4]
 8007b1a:	011b      	lsls	r3, r3, #4
 8007b1c:	431a      	orrs	r2, r3
 8007b1e:	68bb      	ldr	r3, [r7, #8]
 8007b20:	689b      	ldr	r3, [r3, #8]
 8007b22:	021b      	lsls	r3, r3, #8
 8007b24:	431a      	orrs	r2, r3
 8007b26:	68bb      	ldr	r3, [r7, #8]
 8007b28:	68db      	ldr	r3, [r3, #12]
 8007b2a:	041b      	lsls	r3, r3, #16
 8007b2c:	431a      	orrs	r2, r3
 8007b2e:	68bb      	ldr	r3, [r7, #8]
 8007b30:	691b      	ldr	r3, [r3, #16]
 8007b32:	3b01      	subs	r3, #1
 8007b34:	051b      	lsls	r3, r3, #20
 8007b36:	431a      	orrs	r2, r3
 8007b38:	68bb      	ldr	r3, [r7, #8]
 8007b3a:	695b      	ldr	r3, [r3, #20]
 8007b3c:	3b02      	subs	r3, #2
 8007b3e:	061b      	lsls	r3, r3, #24
 8007b40:	431a      	orrs	r2, r3
 8007b42:	68bb      	ldr	r3, [r7, #8]
 8007b44:	699b      	ldr	r3, [r3, #24]
 8007b46:	4313      	orrs	r3, r2
 8007b48:	687a      	ldr	r2, [r7, #4]
 8007b4a:	3201      	adds	r2, #1
 8007b4c:	4319      	orrs	r1, r3
 8007b4e:	68fb      	ldr	r3, [r7, #12]
 8007b50:	f843 1022 	str.w	r1, [r3, r2, lsl #2]
 8007b54:	2300      	movs	r3, #0
 8007b56:	4618      	mov	r0, r3
 8007b58:	3714      	adds	r7, #20
 8007b5a:	46bd      	mov	sp, r7
 8007b5c:	bc80      	pop	{r7}
 8007b5e:	4770      	bx	lr

08007b60 <FSMC_NORSRAM_Extended_Timing_Init>:
 8007b60:	b480      	push	{r7}
 8007b62:	b085      	sub	sp, #20
 8007b64:	af00      	add	r7, sp, #0
 8007b66:	60f8      	str	r0, [r7, #12]
 8007b68:	60b9      	str	r1, [r7, #8]
 8007b6a:	607a      	str	r2, [r7, #4]
 8007b6c:	603b      	str	r3, [r7, #0]
 8007b6e:	683b      	ldr	r3, [r7, #0]
 8007b70:	f5b3 4f80 	cmp.w	r3, #16384	; 0x4000
 8007b74:	d11d      	bne.n	8007bb2 <FSMC_NORSRAM_Extended_Timing_Init+0x52>
 8007b76:	68fb      	ldr	r3, [r7, #12]
 8007b78:	687a      	ldr	r2, [r7, #4]
 8007b7a:	f853 2022 	ldr.w	r2, [r3, r2, lsl #2]
 8007b7e:	4b13      	ldr	r3, [pc, #76]	; (8007bcc <FSMC_NORSRAM_Extended_Timing_Init+0x6c>)
 8007b80:	4013      	ands	r3, r2
 8007b82:	68ba      	ldr	r2, [r7, #8]
 8007b84:	6811      	ldr	r1, [r2, #0]
 8007b86:	68ba      	ldr	r2, [r7, #8]
 8007b88:	6852      	ldr	r2, [r2, #4]
 8007b8a:	0112      	lsls	r2, r2, #4
 8007b8c:	4311      	orrs	r1, r2
 8007b8e:	68ba      	ldr	r2, [r7, #8]
 8007b90:	6892      	ldr	r2, [r2, #8]
 8007b92:	0212      	lsls	r2, r2, #8
 8007b94:	4311      	orrs	r1, r2
 8007b96:	68ba      	ldr	r2, [r7, #8]
 8007b98:	6992      	ldr	r2, [r2, #24]
 8007b9a:	4311      	orrs	r1, r2
 8007b9c:	68ba      	ldr	r2, [r7, #8]
 8007b9e:	68d2      	ldr	r2, [r2, #12]
 8007ba0:	0412      	lsls	r2, r2, #16
 8007ba2:	430a      	orrs	r2, r1
 8007ba4:	ea43 0102 	orr.w	r1, r3, r2
 8007ba8:	68fb      	ldr	r3, [r7, #12]
 8007baa:	687a      	ldr	r2, [r7, #4]
 8007bac:	f843 1022 	str.w	r1, [r3, r2, lsl #2]
 8007bb0:	e005      	b.n	8007bbe <FSMC_NORSRAM_Extended_Timing_Init+0x5e>
 8007bb2:	68fb      	ldr	r3, [r7, #12]
 8007bb4:	687a      	ldr	r2, [r7, #4]
 8007bb6:	f06f 4170 	mvn.w	r1, #4026531840	; 0xf0000000
 8007bba:	f843 1022 	str.w	r1, [r3, r2, lsl #2]
 8007bbe:	2300      	movs	r3, #0
 8007bc0:	4618      	mov	r0, r3
 8007bc2:	3714      	adds	r7, #20
 8007bc4:	46bd      	mov	sp, r7
 8007bc6:	bc80      	pop	{r7}
 8007bc8:	4770      	bx	lr
 8007bca:	bf00      	nop
 8007bcc:	cff00000 	.word	0xcff00000

08007bd0 <__errno>:
 8007bd0:	4b01      	ldr	r3, [pc, #4]	; (8007bd8 <__errno+0x8>)
 8007bd2:	6818      	ldr	r0, [r3, #0]
 8007bd4:	4770      	bx	lr
 8007bd6:	bf00      	nop
 8007bd8:	20000014 	.word	0x20000014

08007bdc <__libc_init_array>:
 8007bdc:	b570      	push	{r4, r5, r6, lr}
 8007bde:	2600      	movs	r6, #0
 8007be0:	4d0c      	ldr	r5, [pc, #48]	; (8007c14 <__libc_init_array+0x38>)
 8007be2:	4c0d      	ldr	r4, [pc, #52]	; (8007c18 <__libc_init_array+0x3c>)
 8007be4:	1b64      	subs	r4, r4, r5
 8007be6:	10a4      	asrs	r4, r4, #2
 8007be8:	42a6      	cmp	r6, r4
 8007bea:	d109      	bne.n	8007c00 <__libc_init_array+0x24>
 8007bec:	f004 fc52 	bl	800c494 <_init>
 8007bf0:	2600      	movs	r6, #0
 8007bf2:	4d0a      	ldr	r5, [pc, #40]	; (8007c1c <__libc_init_array+0x40>)
 8007bf4:	4c0a      	ldr	r4, [pc, #40]	; (8007c20 <__libc_init_array+0x44>)
 8007bf6:	1b64      	subs	r4, r4, r5
 8007bf8:	10a4      	asrs	r4, r4, #2
 8007bfa:	42a6      	cmp	r6, r4
 8007bfc:	d105      	bne.n	8007c0a <__libc_init_array+0x2e>
 8007bfe:	bd70      	pop	{r4, r5, r6, pc}
 8007c00:	f855 3b04 	ldr.w	r3, [r5], #4
 8007c04:	4798      	blx	r3
 8007c06:	3601      	adds	r6, #1
 8007c08:	e7ee      	b.n	8007be8 <__libc_init_array+0xc>
 8007c0a:	f855 3b04 	ldr.w	r3, [r5], #4
 8007c0e:	4798      	blx	r3
 8007c10:	3601      	adds	r6, #1
 8007c12:	e7f2      	b.n	8007bfa <__libc_init_array+0x1e>
 8007c14:	0800e1f4 	.word	0x0800e1f4
 8007c18:	0800e1f4 	.word	0x0800e1f4
 8007c1c:	0800e1f4 	.word	0x0800e1f4
 8007c20:	0800e1f8 	.word	0x0800e1f8

08007c24 <memset>:
 8007c24:	4603      	mov	r3, r0
 8007c26:	4402      	add	r2, r0
 8007c28:	4293      	cmp	r3, r2
 8007c2a:	d100      	bne.n	8007c2e <memset+0xa>
 8007c2c:	4770      	bx	lr
 8007c2e:	f803 1b01 	strb.w	r1, [r3], #1
 8007c32:	e7f9      	b.n	8007c28 <memset+0x4>

08007c34 <__cvt>:
 8007c34:	2b00      	cmp	r3, #0
 8007c36:	e92d 47f0 	stmdb	sp!, {r4, r5, r6, r7, r8, r9, sl, lr}
 8007c3a:	461f      	mov	r7, r3
 8007c3c:	bfbb      	ittet	lt
 8007c3e:	f103 4300 	addlt.w	r3, r3, #2147483648	; 0x80000000
 8007c42:	461f      	movlt	r7, r3
 8007c44:	2300      	movge	r3, #0
 8007c46:	232d      	movlt	r3, #45	; 0x2d
 8007c48:	b088      	sub	sp, #32
 8007c4a:	4614      	mov	r4, r2
 8007c4c:	9a12      	ldr	r2, [sp, #72]	; 0x48
 8007c4e:	9d10      	ldr	r5, [sp, #64]	; 0x40
 8007c50:	7013      	strb	r3, [r2, #0]
 8007c52:	9b14      	ldr	r3, [sp, #80]	; 0x50
 8007c54:	f8dd a04c 	ldr.w	sl, [sp, #76]	; 0x4c
 8007c58:	f023 0820 	bic.w	r8, r3, #32
 8007c5c:	f1b8 0f46 	cmp.w	r8, #70	; 0x46
 8007c60:	d005      	beq.n	8007c6e <__cvt+0x3a>
 8007c62:	f1b8 0f45 	cmp.w	r8, #69	; 0x45
 8007c66:	d100      	bne.n	8007c6a <__cvt+0x36>
 8007c68:	3501      	adds	r5, #1
 8007c6a:	2302      	movs	r3, #2
 8007c6c:	e000      	b.n	8007c70 <__cvt+0x3c>
 8007c6e:	2303      	movs	r3, #3
 8007c70:	aa07      	add	r2, sp, #28
 8007c72:	9204      	str	r2, [sp, #16]
 8007c74:	aa06      	add	r2, sp, #24
 8007c76:	e9cd a202 	strd	sl, r2, [sp, #8]
 8007c7a:	e9cd 3500 	strd	r3, r5, [sp]
 8007c7e:	4622      	mov	r2, r4
 8007c80:	463b      	mov	r3, r7
 8007c82:	f001 fd85 	bl	8009790 <_dtoa_r>
 8007c86:	f1b8 0f47 	cmp.w	r8, #71	; 0x47
 8007c8a:	4606      	mov	r6, r0
 8007c8c:	d102      	bne.n	8007c94 <__cvt+0x60>
 8007c8e:	9b11      	ldr	r3, [sp, #68]	; 0x44
 8007c90:	07db      	lsls	r3, r3, #31
 8007c92:	d522      	bpl.n	8007cda <__cvt+0xa6>
 8007c94:	f1b8 0f46 	cmp.w	r8, #70	; 0x46
 8007c98:	eb06 0905 	add.w	r9, r6, r5
 8007c9c:	d110      	bne.n	8007cc0 <__cvt+0x8c>
 8007c9e:	7833      	ldrb	r3, [r6, #0]
 8007ca0:	2b30      	cmp	r3, #48	; 0x30
 8007ca2:	d10a      	bne.n	8007cba <__cvt+0x86>
 8007ca4:	2200      	movs	r2, #0
 8007ca6:	2300      	movs	r3, #0
 8007ca8:	4620      	mov	r0, r4
 8007caa:	4639      	mov	r1, r7
 8007cac:	f7f8 fee8 	bl	8000a80 <__aeabi_dcmpeq>
 8007cb0:	b918      	cbnz	r0, 8007cba <__cvt+0x86>
 8007cb2:	f1c5 0501 	rsb	r5, r5, #1
 8007cb6:	f8ca 5000 	str.w	r5, [sl]
 8007cba:	f8da 3000 	ldr.w	r3, [sl]
 8007cbe:	4499      	add	r9, r3
 8007cc0:	2200      	movs	r2, #0
 8007cc2:	2300      	movs	r3, #0
 8007cc4:	4620      	mov	r0, r4
 8007cc6:	4639      	mov	r1, r7
 8007cc8:	f7f8 feda 	bl	8000a80 <__aeabi_dcmpeq>
 8007ccc:	b108      	cbz	r0, 8007cd2 <__cvt+0x9e>
 8007cce:	f8cd 901c 	str.w	r9, [sp, #28]
 8007cd2:	2230      	movs	r2, #48	; 0x30
 8007cd4:	9b07      	ldr	r3, [sp, #28]
 8007cd6:	454b      	cmp	r3, r9
 8007cd8:	d307      	bcc.n	8007cea <__cvt+0xb6>
 8007cda:	4630      	mov	r0, r6
 8007cdc:	9b07      	ldr	r3, [sp, #28]
 8007cde:	9a15      	ldr	r2, [sp, #84]	; 0x54
 8007ce0:	1b9b      	subs	r3, r3, r6
 8007ce2:	6013      	str	r3, [r2, #0]
 8007ce4:	b008      	add	sp, #32
 8007ce6:	e8bd 87f0 	ldmia.w	sp!, {r4, r5, r6, r7, r8, r9, sl, pc}
 8007cea:	1c59      	adds	r1, r3, #1
 8007cec:	9107      	str	r1, [sp, #28]
 8007cee:	701a      	strb	r2, [r3, #0]
 8007cf0:	e7f0      	b.n	8007cd4 <__cvt+0xa0>

08007cf2 <__exponent>:
 8007cf2:	4603      	mov	r3, r0
 8007cf4:	b5f7      	push	{r0, r1, r2, r4, r5, r6, r7, lr}
 8007cf6:	2900      	cmp	r1, #0
 8007cf8:	f803 2b02 	strb.w	r2, [r3], #2
 8007cfc:	bfb6      	itet	lt
 8007cfe:	222d      	movlt	r2, #45	; 0x2d
 8007d00:	222b      	movge	r2, #43	; 0x2b
 8007d02:	4249      	neglt	r1, r1
 8007d04:	2909      	cmp	r1, #9
 8007d06:	7042      	strb	r2, [r0, #1]
 8007d08:	dd2b      	ble.n	8007d62 <__exponent+0x70>
 8007d0a:	f10d 0407 	add.w	r4, sp, #7
 8007d0e:	46a4      	mov	ip, r4
 8007d10:	270a      	movs	r7, #10
 8007d12:	fb91 f6f7 	sdiv	r6, r1, r7
 8007d16:	460a      	mov	r2, r1
 8007d18:	46a6      	mov	lr, r4
 8007d1a:	fb07 1516 	mls	r5, r7, r6, r1
 8007d1e:	2a63      	cmp	r2, #99	; 0x63
 8007d20:	f105 0530 	add.w	r5, r5, #48	; 0x30
 8007d24:	4631      	mov	r1, r6
 8007d26:	f104 34ff 	add.w	r4, r4, #4294967295
 8007d2a:	f80e 5c01 	strb.w	r5, [lr, #-1]
 8007d2e:	dcf0      	bgt.n	8007d12 <__exponent+0x20>
 8007d30:	3130      	adds	r1, #48	; 0x30
 8007d32:	f1ae 0502 	sub.w	r5, lr, #2
 8007d36:	f804 1c01 	strb.w	r1, [r4, #-1]
 8007d3a:	4629      	mov	r1, r5
 8007d3c:	1c44      	adds	r4, r0, #1
 8007d3e:	4561      	cmp	r1, ip
 8007d40:	d30a      	bcc.n	8007d58 <__exponent+0x66>
 8007d42:	f10d 0209 	add.w	r2, sp, #9
 8007d46:	eba2 020e 	sub.w	r2, r2, lr
 8007d4a:	4565      	cmp	r5, ip
 8007d4c:	bf88      	it	hi
 8007d4e:	2200      	movhi	r2, #0
 8007d50:	4413      	add	r3, r2
 8007d52:	1a18      	subs	r0, r3, r0
 8007d54:	b003      	add	sp, #12
 8007d56:	bdf0      	pop	{r4, r5, r6, r7, pc}
 8007d58:	f811 2b01 	ldrb.w	r2, [r1], #1
 8007d5c:	f804 2f01 	strb.w	r2, [r4, #1]!
 8007d60:	e7ed      	b.n	8007d3e <__exponent+0x4c>
 8007d62:	2330      	movs	r3, #48	; 0x30
 8007d64:	3130      	adds	r1, #48	; 0x30
 8007d66:	7083      	strb	r3, [r0, #2]
 8007d68:	70c1      	strb	r1, [r0, #3]
 8007d6a:	1d03      	adds	r3, r0, #4
 8007d6c:	e7f1      	b.n	8007d52 <__exponent+0x60>
	...

08007d70 <_printf_float>:
 8007d70:	e92d 4ff0 	stmdb	sp!, {r4, r5, r6, r7, r8, r9, sl, fp, lr}
 8007d74:	b091      	sub	sp, #68	; 0x44
 8007d76:	460c      	mov	r4, r1
 8007d78:	f8dd 8068 	ldr.w	r8, [sp, #104]	; 0x68
 8007d7c:	4616      	mov	r6, r2
 8007d7e:	461f      	mov	r7, r3
 8007d80:	4605      	mov	r5, r0
 8007d82:	f002 fe59 	bl	800aa38 <_localeconv_r>
 8007d86:	6803      	ldr	r3, [r0, #0]
 8007d88:	4618      	mov	r0, r3
 8007d8a:	9309      	str	r3, [sp, #36]	; 0x24
 8007d8c:	f7f8 fa4c 	bl	8000228 <strlen>
 8007d90:	2300      	movs	r3, #0
 8007d92:	930e      	str	r3, [sp, #56]	; 0x38
 8007d94:	f8d8 3000 	ldr.w	r3, [r8]
 8007d98:	900a      	str	r0, [sp, #40]	; 0x28
 8007d9a:	3307      	adds	r3, #7
 8007d9c:	f023 0307 	bic.w	r3, r3, #7
 8007da0:	f103 0208 	add.w	r2, r3, #8
 8007da4:	f894 9018 	ldrb.w	r9, [r4, #24]
 8007da8:	f8d4 b000 	ldr.w	fp, [r4]
 8007dac:	f8c8 2000 	str.w	r2, [r8]
 8007db0:	e9d3 2300 	ldrd	r2, r3, [r3]
 8007db4:	e9c4 2312 	strd	r2, r3, [r4, #72]	; 0x48
 8007db8:	e9d4 8a12 	ldrd	r8, sl, [r4, #72]	; 0x48
 8007dbc:	f02a 4300 	bic.w	r3, sl, #2147483648	; 0x80000000
 8007dc0:	930b      	str	r3, [sp, #44]	; 0x2c
 8007dc2:	f04f 32ff 	mov.w	r2, #4294967295
 8007dc6:	4640      	mov	r0, r8
 8007dc8:	4b9c      	ldr	r3, [pc, #624]	; (800803c <_printf_float+0x2cc>)
 8007dca:	990b      	ldr	r1, [sp, #44]	; 0x2c
 8007dcc:	f7f8 fe8a 	bl	8000ae4 <__aeabi_dcmpun>
 8007dd0:	bb70      	cbnz	r0, 8007e30 <_printf_float+0xc0>
 8007dd2:	f04f 32ff 	mov.w	r2, #4294967295
 8007dd6:	4640      	mov	r0, r8
 8007dd8:	4b98      	ldr	r3, [pc, #608]	; (800803c <_printf_float+0x2cc>)
 8007dda:	990b      	ldr	r1, [sp, #44]	; 0x2c
 8007ddc:	f7f8 fe64 	bl	8000aa8 <__aeabi_dcmple>
 8007de0:	bb30      	cbnz	r0, 8007e30 <_printf_float+0xc0>
 8007de2:	2200      	movs	r2, #0
 8007de4:	2300      	movs	r3, #0
 8007de6:	4640      	mov	r0, r8
 8007de8:	4651      	mov	r1, sl
 8007dea:	f7f8 fe53 	bl	8000a94 <__aeabi_dcmplt>
 8007dee:	b110      	cbz	r0, 8007df6 <_printf_float+0x86>
 8007df0:	232d      	movs	r3, #45	; 0x2d
 8007df2:	f884 3043 	strb.w	r3, [r4, #67]	; 0x43
 8007df6:	4b92      	ldr	r3, [pc, #584]	; (8008040 <_printf_float+0x2d0>)
 8007df8:	4892      	ldr	r0, [pc, #584]	; (8008044 <_printf_float+0x2d4>)
 8007dfa:	f1b9 0f47 	cmp.w	r9, #71	; 0x47
 8007dfe:	bf94      	ite	ls
 8007e00:	4698      	movls	r8, r3
 8007e02:	4680      	movhi	r8, r0
 8007e04:	2303      	movs	r3, #3
 8007e06:	f04f 0a00 	mov.w	sl, #0
 8007e0a:	6123      	str	r3, [r4, #16]
 8007e0c:	f02b 0304 	bic.w	r3, fp, #4
 8007e10:	6023      	str	r3, [r4, #0]
 8007e12:	4633      	mov	r3, r6
 8007e14:	4621      	mov	r1, r4
 8007e16:	4628      	mov	r0, r5
 8007e18:	9700      	str	r7, [sp, #0]
 8007e1a:	aa0f      	add	r2, sp, #60	; 0x3c
 8007e1c:	f000 f9d4 	bl	80081c8 <_printf_common>
 8007e20:	3001      	adds	r0, #1
 8007e22:	f040 8090 	bne.w	8007f46 <_printf_float+0x1d6>
 8007e26:	f04f 30ff 	mov.w	r0, #4294967295
 8007e2a:	b011      	add	sp, #68	; 0x44
 8007e2c:	e8bd 8ff0 	ldmia.w	sp!, {r4, r5, r6, r7, r8, r9, sl, fp, pc}
 8007e30:	4642      	mov	r2, r8
 8007e32:	4653      	mov	r3, sl
 8007e34:	4640      	mov	r0, r8
 8007e36:	4651      	mov	r1, sl
 8007e38:	f7f8 fe54 	bl	8000ae4 <__aeabi_dcmpun>
 8007e3c:	b148      	cbz	r0, 8007e52 <_printf_float+0xe2>
 8007e3e:	f1ba 0f00 	cmp.w	sl, #0
 8007e42:	bfb8      	it	lt
 8007e44:	232d      	movlt	r3, #45	; 0x2d
 8007e46:	4880      	ldr	r0, [pc, #512]	; (8008048 <_printf_float+0x2d8>)
 8007e48:	bfb8      	it	lt
 8007e4a:	f884 3043 	strblt.w	r3, [r4, #67]	; 0x43
 8007e4e:	4b7f      	ldr	r3, [pc, #508]	; (800804c <_printf_float+0x2dc>)
 8007e50:	e7d3      	b.n	8007dfa <_printf_float+0x8a>
 8007e52:	6863      	ldr	r3, [r4, #4]
 8007e54:	f009 01df 	and.w	r1, r9, #223	; 0xdf
 8007e58:	1c5a      	adds	r2, r3, #1
 8007e5a:	d142      	bne.n	8007ee2 <_printf_float+0x172>
 8007e5c:	2306      	movs	r3, #6
 8007e5e:	6063      	str	r3, [r4, #4]
 8007e60:	2200      	movs	r2, #0
 8007e62:	9206      	str	r2, [sp, #24]
 8007e64:	aa0e      	add	r2, sp, #56	; 0x38
 8007e66:	e9cd 9204 	strd	r9, r2, [sp, #16]
 8007e6a:	aa0d      	add	r2, sp, #52	; 0x34
 8007e6c:	f44b 6380 	orr.w	r3, fp, #1024	; 0x400
 8007e70:	9203      	str	r2, [sp, #12]
 8007e72:	f10d 0233 	add.w	r2, sp, #51	; 0x33
 8007e76:	e9cd 3201 	strd	r3, r2, [sp, #4]
 8007e7a:	6023      	str	r3, [r4, #0]
 8007e7c:	6863      	ldr	r3, [r4, #4]
 8007e7e:	4642      	mov	r2, r8
 8007e80:	9300      	str	r3, [sp, #0]
 8007e82:	4628      	mov	r0, r5
 8007e84:	4653      	mov	r3, sl
 8007e86:	910b      	str	r1, [sp, #44]	; 0x2c
 8007e88:	f7ff fed4 	bl	8007c34 <__cvt>
 8007e8c:	990b      	ldr	r1, [sp, #44]	; 0x2c
 8007e8e:	4680      	mov	r8, r0
 8007e90:	2947      	cmp	r1, #71	; 0x47
 8007e92:	990d      	ldr	r1, [sp, #52]	; 0x34
 8007e94:	d108      	bne.n	8007ea8 <_printf_float+0x138>
 8007e96:	1cc8      	adds	r0, r1, #3
 8007e98:	db02      	blt.n	8007ea0 <_printf_float+0x130>
 8007e9a:	6863      	ldr	r3, [r4, #4]
 8007e9c:	4299      	cmp	r1, r3
 8007e9e:	dd40      	ble.n	8007f22 <_printf_float+0x1b2>
 8007ea0:	f1a9 0902 	sub.w	r9, r9, #2
 8007ea4:	fa5f f989 	uxtb.w	r9, r9
 8007ea8:	f1b9 0f65 	cmp.w	r9, #101	; 0x65
 8007eac:	d81f      	bhi.n	8007eee <_printf_float+0x17e>
 8007eae:	464a      	mov	r2, r9
 8007eb0:	3901      	subs	r1, #1
 8007eb2:	f104 0050 	add.w	r0, r4, #80	; 0x50
 8007eb6:	910d      	str	r1, [sp, #52]	; 0x34
 8007eb8:	f7ff ff1b 	bl	8007cf2 <__exponent>
 8007ebc:	9a0e      	ldr	r2, [sp, #56]	; 0x38
 8007ebe:	4682      	mov	sl, r0
 8007ec0:	1813      	adds	r3, r2, r0
 8007ec2:	2a01      	cmp	r2, #1
 8007ec4:	6123      	str	r3, [r4, #16]
 8007ec6:	dc02      	bgt.n	8007ece <_printf_float+0x15e>
 8007ec8:	6822      	ldr	r2, [r4, #0]
 8007eca:	07d2      	lsls	r2, r2, #31
 8007ecc:	d501      	bpl.n	8007ed2 <_printf_float+0x162>
 8007ece:	3301      	adds	r3, #1
 8007ed0:	6123      	str	r3, [r4, #16]
 8007ed2:	f89d 3033 	ldrb.w	r3, [sp, #51]	; 0x33
 8007ed6:	2b00      	cmp	r3, #0
 8007ed8:	d09b      	beq.n	8007e12 <_printf_float+0xa2>
 8007eda:	232d      	movs	r3, #45	; 0x2d
 8007edc:	f884 3043 	strb.w	r3, [r4, #67]	; 0x43
 8007ee0:	e797      	b.n	8007e12 <_printf_float+0xa2>
 8007ee2:	2947      	cmp	r1, #71	; 0x47
 8007ee4:	d1bc      	bne.n	8007e60 <_printf_float+0xf0>
 8007ee6:	2b00      	cmp	r3, #0
 8007ee8:	d1ba      	bne.n	8007e60 <_printf_float+0xf0>
 8007eea:	2301      	movs	r3, #1
 8007eec:	e7b7      	b.n	8007e5e <_printf_float+0xee>
 8007eee:	f1b9 0f66 	cmp.w	r9, #102	; 0x66
 8007ef2:	d118      	bne.n	8007f26 <_printf_float+0x1b6>
 8007ef4:	2900      	cmp	r1, #0
 8007ef6:	6863      	ldr	r3, [r4, #4]
 8007ef8:	dd0b      	ble.n	8007f12 <_printf_float+0x1a2>
 8007efa:	6121      	str	r1, [r4, #16]
 8007efc:	b913      	cbnz	r3, 8007f04 <_printf_float+0x194>
 8007efe:	6822      	ldr	r2, [r4, #0]
 8007f00:	07d0      	lsls	r0, r2, #31
 8007f02:	d502      	bpl.n	8007f0a <_printf_float+0x19a>
 8007f04:	3301      	adds	r3, #1
 8007f06:	440b      	add	r3, r1
 8007f08:	6123      	str	r3, [r4, #16]
 8007f0a:	f04f 0a00 	mov.w	sl, #0
 8007f0e:	65a1      	str	r1, [r4, #88]	; 0x58
 8007f10:	e7df      	b.n	8007ed2 <_printf_float+0x162>
 8007f12:	b913      	cbnz	r3, 8007f1a <_printf_float+0x1aa>
 8007f14:	6822      	ldr	r2, [r4, #0]
 8007f16:	07d2      	lsls	r2, r2, #31
 8007f18:	d501      	bpl.n	8007f1e <_printf_float+0x1ae>
 8007f1a:	3302      	adds	r3, #2
 8007f1c:	e7f4      	b.n	8007f08 <_printf_float+0x198>
 8007f1e:	2301      	movs	r3, #1
 8007f20:	e7f2      	b.n	8007f08 <_printf_float+0x198>
 8007f22:	f04f 0967 	mov.w	r9, #103	; 0x67
 8007f26:	9b0e      	ldr	r3, [sp, #56]	; 0x38
 8007f28:	4299      	cmp	r1, r3
 8007f2a:	db05      	blt.n	8007f38 <_printf_float+0x1c8>
 8007f2c:	6823      	ldr	r3, [r4, #0]
 8007f2e:	6121      	str	r1, [r4, #16]
 8007f30:	07d8      	lsls	r0, r3, #31
 8007f32:	d5ea      	bpl.n	8007f0a <_printf_float+0x19a>
 8007f34:	1c4b      	adds	r3, r1, #1
 8007f36:	e7e7      	b.n	8007f08 <_printf_float+0x198>
 8007f38:	2900      	cmp	r1, #0
 8007f3a:	bfcc      	ite	gt
 8007f3c:	2201      	movgt	r2, #1
 8007f3e:	f1c1 0202 	rsble	r2, r1, #2
 8007f42:	4413      	add	r3, r2
 8007f44:	e7e0      	b.n	8007f08 <_printf_float+0x198>
 8007f46:	6823      	ldr	r3, [r4, #0]
 8007f48:	055a      	lsls	r2, r3, #21
 8007f4a:	d407      	bmi.n	8007f5c <_printf_float+0x1ec>
 8007f4c:	6923      	ldr	r3, [r4, #16]
 8007f4e:	4642      	mov	r2, r8
 8007f50:	4631      	mov	r1, r6
 8007f52:	4628      	mov	r0, r5
 8007f54:	47b8      	blx	r7
 8007f56:	3001      	adds	r0, #1
 8007f58:	d12b      	bne.n	8007fb2 <_printf_float+0x242>
 8007f5a:	e764      	b.n	8007e26 <_printf_float+0xb6>
 8007f5c:	f1b9 0f65 	cmp.w	r9, #101	; 0x65
 8007f60:	f240 80dd 	bls.w	800811e <_printf_float+0x3ae>
 8007f64:	e9d4 0112 	ldrd	r0, r1, [r4, #72]	; 0x48
 8007f68:	2200      	movs	r2, #0
 8007f6a:	2300      	movs	r3, #0
 8007f6c:	f7f8 fd88 	bl	8000a80 <__aeabi_dcmpeq>
 8007f70:	2800      	cmp	r0, #0
 8007f72:	d033      	beq.n	8007fdc <_printf_float+0x26c>
 8007f74:	2301      	movs	r3, #1
 8007f76:	4631      	mov	r1, r6
 8007f78:	4628      	mov	r0, r5
 8007f7a:	4a35      	ldr	r2, [pc, #212]	; (8008050 <_printf_float+0x2e0>)
 8007f7c:	47b8      	blx	r7
 8007f7e:	3001      	adds	r0, #1
 8007f80:	f43f af51 	beq.w	8007e26 <_printf_float+0xb6>
 8007f84:	e9dd 230d 	ldrd	r2, r3, [sp, #52]	; 0x34
 8007f88:	429a      	cmp	r2, r3
 8007f8a:	db02      	blt.n	8007f92 <_printf_float+0x222>
 8007f8c:	6823      	ldr	r3, [r4, #0]
 8007f8e:	07d8      	lsls	r0, r3, #31
 8007f90:	d50f      	bpl.n	8007fb2 <_printf_float+0x242>
 8007f92:	e9dd 2309 	ldrd	r2, r3, [sp, #36]	; 0x24
 8007f96:	4631      	mov	r1, r6
 8007f98:	4628      	mov	r0, r5
 8007f9a:	47b8      	blx	r7
 8007f9c:	3001      	adds	r0, #1
 8007f9e:	f43f af42 	beq.w	8007e26 <_printf_float+0xb6>
 8007fa2:	f04f 0800 	mov.w	r8, #0
 8007fa6:	f104 091a 	add.w	r9, r4, #26
 8007faa:	9b0e      	ldr	r3, [sp, #56]	; 0x38
 8007fac:	3b01      	subs	r3, #1
 8007fae:	4543      	cmp	r3, r8
 8007fb0:	dc09      	bgt.n	8007fc6 <_printf_float+0x256>
 8007fb2:	6823      	ldr	r3, [r4, #0]
 8007fb4:	079b      	lsls	r3, r3, #30
 8007fb6:	f100 8102 	bmi.w	80081be <_printf_float+0x44e>
 8007fba:	68e0      	ldr	r0, [r4, #12]
 8007fbc:	9b0f      	ldr	r3, [sp, #60]	; 0x3c
 8007fbe:	4298      	cmp	r0, r3
 8007fc0:	bfb8      	it	lt
 8007fc2:	4618      	movlt	r0, r3
 8007fc4:	e731      	b.n	8007e2a <_printf_float+0xba>
 8007fc6:	2301      	movs	r3, #1
 8007fc8:	464a      	mov	r2, r9
 8007fca:	4631      	mov	r1, r6
 8007fcc:	4628      	mov	r0, r5
 8007fce:	47b8      	blx	r7
 8007fd0:	3001      	adds	r0, #1
 8007fd2:	f43f af28 	beq.w	8007e26 <_printf_float+0xb6>
 8007fd6:	f108 0801 	add.w	r8, r8, #1
 8007fda:	e7e6      	b.n	8007faa <_printf_float+0x23a>
 8007fdc:	9b0d      	ldr	r3, [sp, #52]	; 0x34
 8007fde:	2b00      	cmp	r3, #0
 8007fe0:	dc38      	bgt.n	8008054 <_printf_float+0x2e4>
 8007fe2:	2301      	movs	r3, #1
 8007fe4:	4631      	mov	r1, r6
 8007fe6:	4628      	mov	r0, r5
 8007fe8:	4a19      	ldr	r2, [pc, #100]	; (8008050 <_printf_float+0x2e0>)
 8007fea:	47b8      	blx	r7
 8007fec:	3001      	adds	r0, #1
 8007fee:	f43f af1a 	beq.w	8007e26 <_printf_float+0xb6>
 8007ff2:	e9dd 230d 	ldrd	r2, r3, [sp, #52]	; 0x34
 8007ff6:	4313      	orrs	r3, r2
 8007ff8:	d102      	bne.n	8008000 <_printf_float+0x290>
 8007ffa:	6823      	ldr	r3, [r4, #0]
 8007ffc:	07d9      	lsls	r1, r3, #31
 8007ffe:	d5d8      	bpl.n	8007fb2 <_printf_float+0x242>
 8008000:	e9dd 2309 	ldrd	r2, r3, [sp, #36]	; 0x24
 8008004:	4631      	mov	r1, r6
 8008006:	4628      	mov	r0, r5
 8008008:	47b8      	blx	r7
 800800a:	3001      	adds	r0, #1
 800800c:	f43f af0b 	beq.w	8007e26 <_printf_float+0xb6>
 8008010:	f04f 0900 	mov.w	r9, #0
 8008014:	f104 0a1a 	add.w	sl, r4, #26
 8008018:	9b0d      	ldr	r3, [sp, #52]	; 0x34
 800801a:	425b      	negs	r3, r3
 800801c:	454b      	cmp	r3, r9
 800801e:	dc01      	bgt.n	8008024 <_printf_float+0x2b4>
 8008020:	9b0e      	ldr	r3, [sp, #56]	; 0x38
 8008022:	e794      	b.n	8007f4e <_printf_float+0x1de>
 8008024:	2301      	movs	r3, #1
 8008026:	4652      	mov	r2, sl
 8008028:	4631      	mov	r1, r6
 800802a:	4628      	mov	r0, r5
 800802c:	47b8      	blx	r7
 800802e:	3001      	adds	r0, #1
 8008030:	f43f aef9 	beq.w	8007e26 <_printf_float+0xb6>
 8008034:	f109 0901 	add.w	r9, r9, #1
 8008038:	e7ee      	b.n	8008018 <_printf_float+0x2a8>
 800803a:	bf00      	nop
 800803c:	7fefffff 	.word	0x7fefffff
 8008040:	0800dd50 	.word	0x0800dd50
 8008044:	0800dd54 	.word	0x0800dd54
 8008048:	0800dd5c 	.word	0x0800dd5c
 800804c:	0800dd58 	.word	0x0800dd58
 8008050:	0800dd60 	.word	0x0800dd60
 8008054:	9a0e      	ldr	r2, [sp, #56]	; 0x38
 8008056:	6da3      	ldr	r3, [r4, #88]	; 0x58
 8008058:	429a      	cmp	r2, r3
 800805a:	bfa8      	it	ge
 800805c:	461a      	movge	r2, r3
 800805e:	2a00      	cmp	r2, #0
 8008060:	4691      	mov	r9, r2
 8008062:	dc37      	bgt.n	80080d4 <_printf_float+0x364>
 8008064:	f04f 0b00 	mov.w	fp, #0
 8008068:	ea29 79e9 	bic.w	r9, r9, r9, asr #31
 800806c:	f104 021a 	add.w	r2, r4, #26
 8008070:	f8d4 a058 	ldr.w	sl, [r4, #88]	; 0x58
 8008074:	ebaa 0309 	sub.w	r3, sl, r9
 8008078:	455b      	cmp	r3, fp
 800807a:	dc33      	bgt.n	80080e4 <_printf_float+0x374>
 800807c:	e9dd 230d 	ldrd	r2, r3, [sp, #52]	; 0x34
 8008080:	429a      	cmp	r2, r3
 8008082:	db3b      	blt.n	80080fc <_printf_float+0x38c>
 8008084:	6823      	ldr	r3, [r4, #0]
 8008086:	07da      	lsls	r2, r3, #31
 8008088:	d438      	bmi.n	80080fc <_printf_float+0x38c>
 800808a:	9b0e      	ldr	r3, [sp, #56]	; 0x38
 800808c:	990d      	ldr	r1, [sp, #52]	; 0x34
 800808e:	eba3 020a 	sub.w	r2, r3, sl
 8008092:	eba3 0901 	sub.w	r9, r3, r1
 8008096:	4591      	cmp	r9, r2
 8008098:	bfa8      	it	ge
 800809a:	4691      	movge	r9, r2
 800809c:	f1b9 0f00 	cmp.w	r9, #0
 80080a0:	dc34      	bgt.n	800810c <_printf_float+0x39c>
 80080a2:	f04f 0800 	mov.w	r8, #0
 80080a6:	ea29 79e9 	bic.w	r9, r9, r9, asr #31
 80080aa:	f104 0a1a 	add.w	sl, r4, #26
 80080ae:	e9dd 230d 	ldrd	r2, r3, [sp, #52]	; 0x34
 80080b2:	1a9b      	subs	r3, r3, r2
 80080b4:	eba3 0309 	sub.w	r3, r3, r9
 80080b8:	4543      	cmp	r3, r8
 80080ba:	f77f af7a 	ble.w	8007fb2 <_printf_float+0x242>
 80080be:	2301      	movs	r3, #1
 80080c0:	4652      	mov	r2, sl
 80080c2:	4631      	mov	r1, r6
 80080c4:	4628      	mov	r0, r5
 80080c6:	47b8      	blx	r7
 80080c8:	3001      	adds	r0, #1
 80080ca:	f43f aeac 	beq.w	8007e26 <_printf_float+0xb6>
 80080ce:	f108 0801 	add.w	r8, r8, #1
 80080d2:	e7ec      	b.n	80080ae <_printf_float+0x33e>
 80080d4:	4613      	mov	r3, r2
 80080d6:	4631      	mov	r1, r6
 80080d8:	4642      	mov	r2, r8
 80080da:	4628      	mov	r0, r5
 80080dc:	47b8      	blx	r7
 80080de:	3001      	adds	r0, #1
 80080e0:	d1c0      	bne.n	8008064 <_printf_float+0x2f4>
 80080e2:	e6a0      	b.n	8007e26 <_printf_float+0xb6>
 80080e4:	2301      	movs	r3, #1
 80080e6:	4631      	mov	r1, r6
 80080e8:	4628      	mov	r0, r5
 80080ea:	920b      	str	r2, [sp, #44]	; 0x2c
 80080ec:	47b8      	blx	r7
 80080ee:	3001      	adds	r0, #1
 80080f0:	f43f ae99 	beq.w	8007e26 <_printf_float+0xb6>
 80080f4:	9a0b      	ldr	r2, [sp, #44]	; 0x2c
 80080f6:	f10b 0b01 	add.w	fp, fp, #1
 80080fa:	e7b9      	b.n	8008070 <_printf_float+0x300>
 80080fc:	4631      	mov	r1, r6
 80080fe:	e9dd 2309 	ldrd	r2, r3, [sp, #36]	; 0x24
 8008102:	4628      	mov	r0, r5
 8008104:	47b8      	blx	r7
 8008106:	3001      	adds	r0, #1
 8008108:	d1bf      	bne.n	800808a <_printf_float+0x31a>
 800810a:	e68c      	b.n	8007e26 <_printf_float+0xb6>
 800810c:	464b      	mov	r3, r9
 800810e:	4631      	mov	r1, r6
 8008110:	4628      	mov	r0, r5
 8008112:	eb08 020a 	add.w	r2, r8, sl
 8008116:	47b8      	blx	r7
 8008118:	3001      	adds	r0, #1
 800811a:	d1c2      	bne.n	80080a2 <_printf_float+0x332>
 800811c:	e683      	b.n	8007e26 <_printf_float+0xb6>
 800811e:	9a0e      	ldr	r2, [sp, #56]	; 0x38
 8008120:	2a01      	cmp	r2, #1
 8008122:	dc01      	bgt.n	8008128 <_printf_float+0x3b8>
 8008124:	07db      	lsls	r3, r3, #31
 8008126:	d537      	bpl.n	8008198 <_printf_float+0x428>
 8008128:	2301      	movs	r3, #1
 800812a:	4642      	mov	r2, r8
 800812c:	4631      	mov	r1, r6
 800812e:	4628      	mov	r0, r5
 8008130:	47b8      	blx	r7
 8008132:	3001      	adds	r0, #1
 8008134:	f43f ae77 	beq.w	8007e26 <_printf_float+0xb6>
 8008138:	e9dd 2309 	ldrd	r2, r3, [sp, #36]	; 0x24
 800813c:	4631      	mov	r1, r6
 800813e:	4628      	mov	r0, r5
 8008140:	47b8      	blx	r7
 8008142:	3001      	adds	r0, #1
 8008144:	f43f ae6f 	beq.w	8007e26 <_printf_float+0xb6>
 8008148:	e9d4 0112 	ldrd	r0, r1, [r4, #72]	; 0x48
 800814c:	2200      	movs	r2, #0
 800814e:	2300      	movs	r3, #0
 8008150:	f7f8 fc96 	bl	8000a80 <__aeabi_dcmpeq>
 8008154:	b9d8      	cbnz	r0, 800818e <_printf_float+0x41e>
 8008156:	9b0e      	ldr	r3, [sp, #56]	; 0x38
 8008158:	f108 0201 	add.w	r2, r8, #1
 800815c:	3b01      	subs	r3, #1
 800815e:	4631      	mov	r1, r6
 8008160:	4628      	mov	r0, r5
 8008162:	47b8      	blx	r7
 8008164:	3001      	adds	r0, #1
 8008166:	d10e      	bne.n	8008186 <_printf_float+0x416>
 8008168:	e65d      	b.n	8007e26 <_printf_float+0xb6>
 800816a:	2301      	movs	r3, #1
 800816c:	464a      	mov	r2, r9
 800816e:	4631      	mov	r1, r6
 8008170:	4628      	mov	r0, r5
 8008172:	47b8      	blx	r7
 8008174:	3001      	adds	r0, #1
 8008176:	f43f ae56 	beq.w	8007e26 <_printf_float+0xb6>
 800817a:	f108 0801 	add.w	r8, r8, #1
 800817e:	9b0e      	ldr	r3, [sp, #56]	; 0x38
 8008180:	3b01      	subs	r3, #1
 8008182:	4543      	cmp	r3, r8
 8008184:	dcf1      	bgt.n	800816a <_printf_float+0x3fa>
 8008186:	4653      	mov	r3, sl
 8008188:	f104 0250 	add.w	r2, r4, #80	; 0x50
 800818c:	e6e0      	b.n	8007f50 <_printf_float+0x1e0>
 800818e:	f04f 0800 	mov.w	r8, #0
 8008192:	f104 091a 	add.w	r9, r4, #26
 8008196:	e7f2      	b.n	800817e <_printf_float+0x40e>
 8008198:	2301      	movs	r3, #1
 800819a:	4642      	mov	r2, r8
 800819c:	e7df      	b.n	800815e <_printf_float+0x3ee>
 800819e:	2301      	movs	r3, #1
 80081a0:	464a      	mov	r2, r9
 80081a2:	4631      	mov	r1, r6
 80081a4:	4628      	mov	r0, r5
 80081a6:	47b8      	blx	r7
 80081a8:	3001      	adds	r0, #1
 80081aa:	f43f ae3c 	beq.w	8007e26 <_printf_float+0xb6>
 80081ae:	f108 0801 	add.w	r8, r8, #1
 80081b2:	68e3      	ldr	r3, [r4, #12]
 80081b4:	990f      	ldr	r1, [sp, #60]	; 0x3c
 80081b6:	1a5b      	subs	r3, r3, r1
 80081b8:	4543      	cmp	r3, r8
 80081ba:	dcf0      	bgt.n	800819e <_printf_float+0x42e>
 80081bc:	e6fd      	b.n	8007fba <_printf_float+0x24a>
 80081be:	f04f 0800 	mov.w	r8, #0
 80081c2:	f104 0919 	add.w	r9, r4, #25
 80081c6:	e7f4      	b.n	80081b2 <_printf_float+0x442>

080081c8 <_printf_common>:
 80081c8:	e92d 47f0 	stmdb	sp!, {r4, r5, r6, r7, r8, r9, sl, lr}
 80081cc:	4616      	mov	r6, r2
 80081ce:	4699      	mov	r9, r3
 80081d0:	688a      	ldr	r2, [r1, #8]
 80081d2:	690b      	ldr	r3, [r1, #16]
 80081d4:	4607      	mov	r7, r0
 80081d6:	4293      	cmp	r3, r2
 80081d8:	bfb8      	it	lt
 80081da:	4613      	movlt	r3, r2
 80081dc:	6033      	str	r3, [r6, #0]
 80081de:	f891 2043 	ldrb.w	r2, [r1, #67]	; 0x43
 80081e2:	460c      	mov	r4, r1
 80081e4:	f8dd 8020 	ldr.w	r8, [sp, #32]
 80081e8:	b10a      	cbz	r2, 80081ee <_printf_common+0x26>
 80081ea:	3301      	adds	r3, #1
 80081ec:	6033      	str	r3, [r6, #0]
 80081ee:	6823      	ldr	r3, [r4, #0]
 80081f0:	0699      	lsls	r1, r3, #26
 80081f2:	bf42      	ittt	mi
 80081f4:	6833      	ldrmi	r3, [r6, #0]
 80081f6:	3302      	addmi	r3, #2
 80081f8:	6033      	strmi	r3, [r6, #0]
 80081fa:	6825      	ldr	r5, [r4, #0]
 80081fc:	f015 0506 	ands.w	r5, r5, #6
 8008200:	d106      	bne.n	8008210 <_printf_common+0x48>
 8008202:	f104 0a19 	add.w	sl, r4, #25
 8008206:	68e3      	ldr	r3, [r4, #12]
 8008208:	6832      	ldr	r2, [r6, #0]
 800820a:	1a9b      	subs	r3, r3, r2
 800820c:	42ab      	cmp	r3, r5
 800820e:	dc28      	bgt.n	8008262 <_printf_common+0x9a>
 8008210:	f894 2043 	ldrb.w	r2, [r4, #67]	; 0x43
 8008214:	1e13      	subs	r3, r2, #0
 8008216:	6822      	ldr	r2, [r4, #0]
 8008218:	bf18      	it	ne
 800821a:	2301      	movne	r3, #1
 800821c:	0692      	lsls	r2, r2, #26
 800821e:	d42d      	bmi.n	800827c <_printf_common+0xb4>
 8008220:	4649      	mov	r1, r9
 8008222:	4638      	mov	r0, r7
 8008224:	f104 0243 	add.w	r2, r4, #67	; 0x43
 8008228:	47c0      	blx	r8
 800822a:	3001      	adds	r0, #1
 800822c:	d020      	beq.n	8008270 <_printf_common+0xa8>
 800822e:	6823      	ldr	r3, [r4, #0]
 8008230:	68e5      	ldr	r5, [r4, #12]
 8008232:	f003 0306 	and.w	r3, r3, #6
 8008236:	2b04      	cmp	r3, #4
 8008238:	bf18      	it	ne
 800823a:	2500      	movne	r5, #0
 800823c:	6832      	ldr	r2, [r6, #0]
 800823e:	f04f 0600 	mov.w	r6, #0
 8008242:	68a3      	ldr	r3, [r4, #8]
 8008244:	bf08      	it	eq
 8008246:	1aad      	subeq	r5, r5, r2
 8008248:	6922      	ldr	r2, [r4, #16]
 800824a:	bf08      	it	eq
 800824c:	ea25 75e5 	biceq.w	r5, r5, r5, asr #31
 8008250:	4293      	cmp	r3, r2
 8008252:	bfc4      	itt	gt
 8008254:	1a9b      	subgt	r3, r3, r2
 8008256:	18ed      	addgt	r5, r5, r3
 8008258:	341a      	adds	r4, #26
 800825a:	42b5      	cmp	r5, r6
 800825c:	d11a      	bne.n	8008294 <_printf_common+0xcc>
 800825e:	2000      	movs	r0, #0
 8008260:	e008      	b.n	8008274 <_printf_common+0xac>
 8008262:	2301      	movs	r3, #1
 8008264:	4652      	mov	r2, sl
 8008266:	4649      	mov	r1, r9
 8008268:	4638      	mov	r0, r7
 800826a:	47c0      	blx	r8
 800826c:	3001      	adds	r0, #1
 800826e:	d103      	bne.n	8008278 <_printf_common+0xb0>
 8008270:	f04f 30ff 	mov.w	r0, #4294967295
 8008274:	e8bd 87f0 	ldmia.w	sp!, {r4, r5, r6, r7, r8, r9, sl, pc}
 8008278:	3501      	adds	r5, #1
 800827a:	e7c4      	b.n	8008206 <_printf_common+0x3e>
 800827c:	2030      	movs	r0, #48	; 0x30
 800827e:	18e1      	adds	r1, r4, r3
 8008280:	f881 0043 	strb.w	r0, [r1, #67]	; 0x43
 8008284:	1c5a      	adds	r2, r3, #1
 8008286:	f894 1045 	ldrb.w	r1, [r4, #69]	; 0x45
 800828a:	4422      	add	r2, r4
 800828c:	3302      	adds	r3, #2
 800828e:	f882 1043 	strb.w	r1, [r2, #67]	; 0x43
 8008292:	e7c5      	b.n	8008220 <_printf_common+0x58>
 8008294:	2301      	movs	r3, #1
 8008296:	4622      	mov	r2, r4
 8008298:	4649      	mov	r1, r9
 800829a:	4638      	mov	r0, r7
 800829c:	47c0      	blx	r8
 800829e:	3001      	adds	r0, #1
 80082a0:	d0e6      	beq.n	8008270 <_printf_common+0xa8>
 80082a2:	3601      	adds	r6, #1
 80082a4:	e7d9      	b.n	800825a <_printf_common+0x92>
	...

080082a8 <_printf_i>:
 80082a8:	e92d 47ff 	stmdb	sp!, {r0, r1, r2, r3, r4, r5, r6, r7, r8, r9, sl, lr}
 80082ac:	7e0f      	ldrb	r7, [r1, #24]
 80082ae:	4691      	mov	r9, r2
 80082b0:	2f78      	cmp	r7, #120	; 0x78
 80082b2:	4680      	mov	r8, r0
 80082b4:	460c      	mov	r4, r1
 80082b6:	469a      	mov	sl, r3
 80082b8:	9d0c      	ldr	r5, [sp, #48]	; 0x30
 80082ba:	f101 0243 	add.w	r2, r1, #67	; 0x43
 80082be:	d807      	bhi.n	80082d0 <_printf_i+0x28>
 80082c0:	2f62      	cmp	r7, #98	; 0x62
 80082c2:	d80a      	bhi.n	80082da <_printf_i+0x32>
 80082c4:	2f00      	cmp	r7, #0
 80082c6:	f000 80d9 	beq.w	800847c <_printf_i+0x1d4>
 80082ca:	2f58      	cmp	r7, #88	; 0x58
 80082cc:	f000 80a4 	beq.w	8008418 <_printf_i+0x170>
 80082d0:	f104 0542 	add.w	r5, r4, #66	; 0x42
 80082d4:	f884 7042 	strb.w	r7, [r4, #66]	; 0x42
 80082d8:	e03a      	b.n	8008350 <_printf_i+0xa8>
 80082da:	f1a7 0363 	sub.w	r3, r7, #99	; 0x63
 80082de:	2b15      	cmp	r3, #21
 80082e0:	d8f6      	bhi.n	80082d0 <_printf_i+0x28>
 80082e2:	a101      	add	r1, pc, #4	; (adr r1, 80082e8 <_printf_i+0x40>)
 80082e4:	f851 f023 	ldr.w	pc, [r1, r3, lsl #2]
 80082e8:	08008341 	.word	0x08008341
 80082ec:	08008355 	.word	0x08008355
 80082f0:	080082d1 	.word	0x080082d1
 80082f4:	080082d1 	.word	0x080082d1
 80082f8:	080082d1 	.word	0x080082d1
 80082fc:	080082d1 	.word	0x080082d1
 8008300:	08008355 	.word	0x08008355
 8008304:	080082d1 	.word	0x080082d1
 8008308:	080082d1 	.word	0x080082d1
 800830c:	080082d1 	.word	0x080082d1
 8008310:	080082d1 	.word	0x080082d1
 8008314:	08008463 	.word	0x08008463
 8008318:	08008385 	.word	0x08008385
 800831c:	08008445 	.word	0x08008445
 8008320:	080082d1 	.word	0x080082d1
 8008324:	080082d1 	.word	0x080082d1
 8008328:	08008485 	.word	0x08008485
 800832c:	080082d1 	.word	0x080082d1
 8008330:	08008385 	.word	0x08008385
 8008334:	080082d1 	.word	0x080082d1
 8008338:	080082d1 	.word	0x080082d1
 800833c:	0800844d 	.word	0x0800844d
 8008340:	682b      	ldr	r3, [r5, #0]
 8008342:	1d1a      	adds	r2, r3, #4
 8008344:	681b      	ldr	r3, [r3, #0]
 8008346:	602a      	str	r2, [r5, #0]
 8008348:	f104 0542 	add.w	r5, r4, #66	; 0x42
 800834c:	f884 3042 	strb.w	r3, [r4, #66]	; 0x42
 8008350:	2301      	movs	r3, #1
 8008352:	e0a4      	b.n	800849e <_printf_i+0x1f6>
 8008354:	6820      	ldr	r0, [r4, #0]
 8008356:	6829      	ldr	r1, [r5, #0]
 8008358:	0606      	lsls	r6, r0, #24
 800835a:	f101 0304 	add.w	r3, r1, #4
 800835e:	d50a      	bpl.n	8008376 <_printf_i+0xce>
 8008360:	680e      	ldr	r6, [r1, #0]
 8008362:	602b      	str	r3, [r5, #0]
 8008364:	2e00      	cmp	r6, #0
 8008366:	da03      	bge.n	8008370 <_printf_i+0xc8>
 8008368:	232d      	movs	r3, #45	; 0x2d
 800836a:	4276      	negs	r6, r6
 800836c:	f884 3043 	strb.w	r3, [r4, #67]	; 0x43
 8008370:	230a      	movs	r3, #10
 8008372:	485e      	ldr	r0, [pc, #376]	; (80084ec <_printf_i+0x244>)
 8008374:	e019      	b.n	80083aa <_printf_i+0x102>
 8008376:	680e      	ldr	r6, [r1, #0]
 8008378:	f010 0f40 	tst.w	r0, #64	; 0x40
 800837c:	602b      	str	r3, [r5, #0]
 800837e:	bf18      	it	ne
 8008380:	b236      	sxthne	r6, r6
 8008382:	e7ef      	b.n	8008364 <_printf_i+0xbc>
 8008384:	682b      	ldr	r3, [r5, #0]
 8008386:	6820      	ldr	r0, [r4, #0]
 8008388:	1d19      	adds	r1, r3, #4
 800838a:	6029      	str	r1, [r5, #0]
 800838c:	0601      	lsls	r1, r0, #24
 800838e:	d501      	bpl.n	8008394 <_printf_i+0xec>
 8008390:	681e      	ldr	r6, [r3, #0]
 8008392:	e002      	b.n	800839a <_printf_i+0xf2>
 8008394:	0646      	lsls	r6, r0, #25
 8008396:	d5fb      	bpl.n	8008390 <_printf_i+0xe8>
 8008398:	881e      	ldrh	r6, [r3, #0]
 800839a:	2f6f      	cmp	r7, #111	; 0x6f
 800839c:	bf0c      	ite	eq
 800839e:	2308      	moveq	r3, #8
 80083a0:	230a      	movne	r3, #10
 80083a2:	4852      	ldr	r0, [pc, #328]	; (80084ec <_printf_i+0x244>)
 80083a4:	2100      	movs	r1, #0
 80083a6:	f884 1043 	strb.w	r1, [r4, #67]	; 0x43
 80083aa:	6865      	ldr	r5, [r4, #4]
 80083ac:	2d00      	cmp	r5, #0
 80083ae:	bfa8      	it	ge
 80083b0:	6821      	ldrge	r1, [r4, #0]
 80083b2:	60a5      	str	r5, [r4, #8]
 80083b4:	bfa4      	itt	ge
 80083b6:	f021 0104 	bicge.w	r1, r1, #4
 80083ba:	6021      	strge	r1, [r4, #0]
 80083bc:	b90e      	cbnz	r6, 80083c2 <_printf_i+0x11a>
 80083be:	2d00      	cmp	r5, #0
 80083c0:	d04d      	beq.n	800845e <_printf_i+0x1b6>
 80083c2:	4615      	mov	r5, r2
 80083c4:	fbb6 f1f3 	udiv	r1, r6, r3
 80083c8:	fb03 6711 	mls	r7, r3, r1, r6
 80083cc:	5dc7      	ldrb	r7, [r0, r7]
 80083ce:	f805 7d01 	strb.w	r7, [r5, #-1]!
 80083d2:	4637      	mov	r7, r6
 80083d4:	42bb      	cmp	r3, r7
 80083d6:	460e      	mov	r6, r1
 80083d8:	d9f4      	bls.n	80083c4 <_printf_i+0x11c>
 80083da:	2b08      	cmp	r3, #8
 80083dc:	d10b      	bne.n	80083f6 <_printf_i+0x14e>
 80083de:	6823      	ldr	r3, [r4, #0]
 80083e0:	07de      	lsls	r6, r3, #31
 80083e2:	d508      	bpl.n	80083f6 <_printf_i+0x14e>
 80083e4:	6923      	ldr	r3, [r4, #16]
 80083e6:	6861      	ldr	r1, [r4, #4]
 80083e8:	4299      	cmp	r1, r3
 80083ea:	bfde      	ittt	le
 80083ec:	2330      	movle	r3, #48	; 0x30
 80083ee:	f805 3c01 	strble.w	r3, [r5, #-1]
 80083f2:	f105 35ff 	addle.w	r5, r5, #4294967295
 80083f6:	1b52      	subs	r2, r2, r5
 80083f8:	6122      	str	r2, [r4, #16]
 80083fa:	464b      	mov	r3, r9
 80083fc:	4621      	mov	r1, r4
 80083fe:	4640      	mov	r0, r8
 8008400:	f8cd a000 	str.w	sl, [sp]
 8008404:	aa03      	add	r2, sp, #12
 8008406:	f7ff fedf 	bl	80081c8 <_printf_common>
 800840a:	3001      	adds	r0, #1
 800840c:	d14c      	bne.n	80084a8 <_printf_i+0x200>
 800840e:	f04f 30ff 	mov.w	r0, #4294967295
 8008412:	b004      	add	sp, #16
 8008414:	e8bd 87f0 	ldmia.w	sp!, {r4, r5, r6, r7, r8, r9, sl, pc}
 8008418:	4834      	ldr	r0, [pc, #208]	; (80084ec <_printf_i+0x244>)
 800841a:	f881 7045 	strb.w	r7, [r1, #69]	; 0x45
 800841e:	6829      	ldr	r1, [r5, #0]
 8008420:	6823      	ldr	r3, [r4, #0]
 8008422:	f851 6b04 	ldr.w	r6, [r1], #4
 8008426:	6029      	str	r1, [r5, #0]
 8008428:	061d      	lsls	r5, r3, #24
 800842a:	d514      	bpl.n	8008456 <_printf_i+0x1ae>
 800842c:	07df      	lsls	r7, r3, #31
 800842e:	bf44      	itt	mi
 8008430:	f043 0320 	orrmi.w	r3, r3, #32
 8008434:	6023      	strmi	r3, [r4, #0]
 8008436:	b91e      	cbnz	r6, 8008440 <_printf_i+0x198>
 8008438:	6823      	ldr	r3, [r4, #0]
 800843a:	f023 0320 	bic.w	r3, r3, #32
 800843e:	6023      	str	r3, [r4, #0]
 8008440:	2310      	movs	r3, #16
 8008442:	e7af      	b.n	80083a4 <_printf_i+0xfc>
 8008444:	6823      	ldr	r3, [r4, #0]
 8008446:	f043 0320 	orr.w	r3, r3, #32
 800844a:	6023      	str	r3, [r4, #0]
 800844c:	2378      	movs	r3, #120	; 0x78
 800844e:	4828      	ldr	r0, [pc, #160]	; (80084f0 <_printf_i+0x248>)
 8008450:	f884 3045 	strb.w	r3, [r4, #69]	; 0x45
 8008454:	e7e3      	b.n	800841e <_printf_i+0x176>
 8008456:	0659      	lsls	r1, r3, #25
 8008458:	bf48      	it	mi
 800845a:	b2b6      	uxthmi	r6, r6
 800845c:	e7e6      	b.n	800842c <_printf_i+0x184>
 800845e:	4615      	mov	r5, r2
 8008460:	e7bb      	b.n	80083da <_printf_i+0x132>
 8008462:	682b      	ldr	r3, [r5, #0]
 8008464:	6826      	ldr	r6, [r4, #0]
 8008466:	1d18      	adds	r0, r3, #4
 8008468:	6961      	ldr	r1, [r4, #20]
 800846a:	6028      	str	r0, [r5, #0]
 800846c:	0635      	lsls	r5, r6, #24
 800846e:	681b      	ldr	r3, [r3, #0]
 8008470:	d501      	bpl.n	8008476 <_printf_i+0x1ce>
 8008472:	6019      	str	r1, [r3, #0]
 8008474:	e002      	b.n	800847c <_printf_i+0x1d4>
 8008476:	0670      	lsls	r0, r6, #25
 8008478:	d5fb      	bpl.n	8008472 <_printf_i+0x1ca>
 800847a:	8019      	strh	r1, [r3, #0]
 800847c:	2300      	movs	r3, #0
 800847e:	4615      	mov	r5, r2
 8008480:	6123      	str	r3, [r4, #16]
 8008482:	e7ba      	b.n	80083fa <_printf_i+0x152>
 8008484:	682b      	ldr	r3, [r5, #0]
 8008486:	2100      	movs	r1, #0
 8008488:	1d1a      	adds	r2, r3, #4
 800848a:	602a      	str	r2, [r5, #0]
 800848c:	681d      	ldr	r5, [r3, #0]
 800848e:	6862      	ldr	r2, [r4, #4]
 8008490:	4628      	mov	r0, r5
 8008492:	f002 faef 	bl	800aa74 <memchr>
 8008496:	b108      	cbz	r0, 800849c <_printf_i+0x1f4>
 8008498:	1b40      	subs	r0, r0, r5
 800849a:	6060      	str	r0, [r4, #4]
 800849c:	6863      	ldr	r3, [r4, #4]
 800849e:	6123      	str	r3, [r4, #16]
 80084a0:	2300      	movs	r3, #0
 80084a2:	f884 3043 	strb.w	r3, [r4, #67]	; 0x43
 80084a6:	e7a8      	b.n	80083fa <_printf_i+0x152>
 80084a8:	462a      	mov	r2, r5
 80084aa:	4649      	mov	r1, r9
 80084ac:	4640      	mov	r0, r8
 80084ae:	6923      	ldr	r3, [r4, #16]
 80084b0:	47d0      	blx	sl
 80084b2:	3001      	adds	r0, #1
 80084b4:	d0ab      	beq.n	800840e <_printf_i+0x166>
 80084b6:	6823      	ldr	r3, [r4, #0]
 80084b8:	079b      	lsls	r3, r3, #30
 80084ba:	d413      	bmi.n	80084e4 <_printf_i+0x23c>
 80084bc:	68e0      	ldr	r0, [r4, #12]
 80084be:	9b03      	ldr	r3, [sp, #12]
 80084c0:	4298      	cmp	r0, r3
 80084c2:	bfb8      	it	lt
 80084c4:	4618      	movlt	r0, r3
 80084c6:	e7a4      	b.n	8008412 <_printf_i+0x16a>
 80084c8:	2301      	movs	r3, #1
 80084ca:	4632      	mov	r2, r6
 80084cc:	4649      	mov	r1, r9
 80084ce:	4640      	mov	r0, r8
 80084d0:	47d0      	blx	sl
 80084d2:	3001      	adds	r0, #1
 80084d4:	d09b      	beq.n	800840e <_printf_i+0x166>
 80084d6:	3501      	adds	r5, #1
 80084d8:	68e3      	ldr	r3, [r4, #12]
 80084da:	9903      	ldr	r1, [sp, #12]
 80084dc:	1a5b      	subs	r3, r3, r1
 80084de:	42ab      	cmp	r3, r5
 80084e0:	dcf2      	bgt.n	80084c8 <_printf_i+0x220>
 80084e2:	e7eb      	b.n	80084bc <_printf_i+0x214>
 80084e4:	2500      	movs	r5, #0
 80084e6:	f104 0619 	add.w	r6, r4, #25
 80084ea:	e7f5      	b.n	80084d8 <_printf_i+0x230>
 80084ec:	0800dd62 	.word	0x0800dd62
 80084f0:	0800dd73 	.word	0x0800dd73

080084f4 <_scanf_float>:
 80084f4:	e92d 4ff0 	stmdb	sp!, {r4, r5, r6, r7, r8, r9, sl, fp, lr}
 80084f8:	b087      	sub	sp, #28
 80084fa:	9303      	str	r3, [sp, #12]
 80084fc:	688b      	ldr	r3, [r1, #8]
 80084fe:	4617      	mov	r7, r2
 8008500:	1e5a      	subs	r2, r3, #1
 8008502:	f5b2 7fae 	cmp.w	r2, #348	; 0x15c
 8008506:	bf85      	ittet	hi
 8008508:	f46f 75ae 	mvnhi.w	r5, #348	; 0x15c
 800850c:	195b      	addhi	r3, r3, r5
 800850e:	2300      	movls	r3, #0
 8008510:	9302      	strhi	r3, [sp, #8]
 8008512:	bf88      	it	hi
 8008514:	f240 135d 	movwhi	r3, #349	; 0x15d
 8008518:	468b      	mov	fp, r1
 800851a:	f04f 0500 	mov.w	r5, #0
 800851e:	bf8c      	ite	hi
 8008520:	608b      	strhi	r3, [r1, #8]
 8008522:	9302      	strls	r3, [sp, #8]
 8008524:	680b      	ldr	r3, [r1, #0]
 8008526:	4680      	mov	r8, r0
 8008528:	f443 63f0 	orr.w	r3, r3, #1920	; 0x780
 800852c:	f84b 3b1c 	str.w	r3, [fp], #28
 8008530:	460c      	mov	r4, r1
 8008532:	465e      	mov	r6, fp
 8008534:	46aa      	mov	sl, r5
 8008536:	46a9      	mov	r9, r5
 8008538:	e9cd 5504 	strd	r5, r5, [sp, #16]
 800853c:	9501      	str	r5, [sp, #4]
 800853e:	68a2      	ldr	r2, [r4, #8]
 8008540:	b152      	cbz	r2, 8008558 <_scanf_float+0x64>
 8008542:	683b      	ldr	r3, [r7, #0]
 8008544:	781b      	ldrb	r3, [r3, #0]
 8008546:	2b4e      	cmp	r3, #78	; 0x4e
 8008548:	d864      	bhi.n	8008614 <_scanf_float+0x120>
 800854a:	2b40      	cmp	r3, #64	; 0x40
 800854c:	d83c      	bhi.n	80085c8 <_scanf_float+0xd4>
 800854e:	f1a3 012b 	sub.w	r1, r3, #43	; 0x2b
 8008552:	b2c8      	uxtb	r0, r1
 8008554:	280e      	cmp	r0, #14
 8008556:	d93a      	bls.n	80085ce <_scanf_float+0xda>
 8008558:	f1b9 0f00 	cmp.w	r9, #0
 800855c:	d003      	beq.n	8008566 <_scanf_float+0x72>
 800855e:	6823      	ldr	r3, [r4, #0]
 8008560:	f423 7380 	bic.w	r3, r3, #256	; 0x100
 8008564:	6023      	str	r3, [r4, #0]
 8008566:	f10a 3aff 	add.w	sl, sl, #4294967295
 800856a:	f1ba 0f01 	cmp.w	sl, #1
 800856e:	f200 8113 	bhi.w	8008798 <_scanf_float+0x2a4>
 8008572:	455e      	cmp	r6, fp
 8008574:	f200 8105 	bhi.w	8008782 <_scanf_float+0x28e>
 8008578:	2501      	movs	r5, #1
 800857a:	4628      	mov	r0, r5
 800857c:	b007      	add	sp, #28
 800857e:	e8bd 8ff0 	ldmia.w	sp!, {r4, r5, r6, r7, r8, r9, sl, fp, pc}
 8008582:	f1a3 0261 	sub.w	r2, r3, #97	; 0x61
 8008586:	2a0d      	cmp	r2, #13
 8008588:	d8e6      	bhi.n	8008558 <_scanf_float+0x64>
 800858a:	a101      	add	r1, pc, #4	; (adr r1, 8008590 <_scanf_float+0x9c>)
 800858c:	f851 f022 	ldr.w	pc, [r1, r2, lsl #2]
 8008590:	080086cf 	.word	0x080086cf
 8008594:	08008559 	.word	0x08008559
 8008598:	08008559 	.word	0x08008559
 800859c:	08008559 	.word	0x08008559
 80085a0:	0800872f 	.word	0x0800872f
 80085a4:	08008707 	.word	0x08008707
 80085a8:	08008559 	.word	0x08008559
 80085ac:	08008559 	.word	0x08008559
 80085b0:	080086dd 	.word	0x080086dd
 80085b4:	08008559 	.word	0x08008559
 80085b8:	08008559 	.word	0x08008559
 80085bc:	08008559 	.word	0x08008559
 80085c0:	08008559 	.word	0x08008559
 80085c4:	08008695 	.word	0x08008695
 80085c8:	f1a3 0241 	sub.w	r2, r3, #65	; 0x41
 80085cc:	e7db      	b.n	8008586 <_scanf_float+0x92>
 80085ce:	290e      	cmp	r1, #14
 80085d0:	d8c2      	bhi.n	8008558 <_scanf_float+0x64>
 80085d2:	a001      	add	r0, pc, #4	; (adr r0, 80085d8 <_scanf_float+0xe4>)
 80085d4:	f850 f021 	ldr.w	pc, [r0, r1, lsl #2]
 80085d8:	08008687 	.word	0x08008687
 80085dc:	08008559 	.word	0x08008559
 80085e0:	08008687 	.word	0x08008687
 80085e4:	0800871b 	.word	0x0800871b
 80085e8:	08008559 	.word	0x08008559
 80085ec:	08008635 	.word	0x08008635
 80085f0:	08008671 	.word	0x08008671
 80085f4:	08008671 	.word	0x08008671
 80085f8:	08008671 	.word	0x08008671
 80085fc:	08008671 	.word	0x08008671
 8008600:	08008671 	.word	0x08008671
 8008604:	08008671 	.word	0x08008671
 8008608:	08008671 	.word	0x08008671
 800860c:	08008671 	.word	0x08008671
 8008610:	08008671 	.word	0x08008671
 8008614:	2b6e      	cmp	r3, #110	; 0x6e
 8008616:	d809      	bhi.n	800862c <_scanf_float+0x138>
 8008618:	2b60      	cmp	r3, #96	; 0x60
 800861a:	d8b2      	bhi.n	8008582 <_scanf_float+0x8e>
 800861c:	2b54      	cmp	r3, #84	; 0x54
 800861e:	d077      	beq.n	8008710 <_scanf_float+0x21c>
 8008620:	2b59      	cmp	r3, #89	; 0x59
 8008622:	d199      	bne.n	8008558 <_scanf_float+0x64>
 8008624:	2d07      	cmp	r5, #7
 8008626:	d197      	bne.n	8008558 <_scanf_float+0x64>
 8008628:	2508      	movs	r5, #8
 800862a:	e029      	b.n	8008680 <_scanf_float+0x18c>
 800862c:	2b74      	cmp	r3, #116	; 0x74
 800862e:	d06f      	beq.n	8008710 <_scanf_float+0x21c>
 8008630:	2b79      	cmp	r3, #121	; 0x79
 8008632:	e7f6      	b.n	8008622 <_scanf_float+0x12e>
 8008634:	6821      	ldr	r1, [r4, #0]
 8008636:	05c8      	lsls	r0, r1, #23
 8008638:	d51a      	bpl.n	8008670 <_scanf_float+0x17c>
 800863a:	9b02      	ldr	r3, [sp, #8]
 800863c:	f021 0180 	bic.w	r1, r1, #128	; 0x80
 8008640:	6021      	str	r1, [r4, #0]
 8008642:	f109 0901 	add.w	r9, r9, #1
 8008646:	b11b      	cbz	r3, 8008650 <_scanf_float+0x15c>
 8008648:	3b01      	subs	r3, #1
 800864a:	3201      	adds	r2, #1
 800864c:	9302      	str	r3, [sp, #8]
 800864e:	60a2      	str	r2, [r4, #8]
 8008650:	68a3      	ldr	r3, [r4, #8]
 8008652:	3b01      	subs	r3, #1
 8008654:	60a3      	str	r3, [r4, #8]
 8008656:	6923      	ldr	r3, [r4, #16]
 8008658:	3301      	adds	r3, #1
 800865a:	6123      	str	r3, [r4, #16]
 800865c:	687b      	ldr	r3, [r7, #4]
 800865e:	3b01      	subs	r3, #1
 8008660:	2b00      	cmp	r3, #0
 8008662:	607b      	str	r3, [r7, #4]
 8008664:	f340 8084 	ble.w	8008770 <_scanf_float+0x27c>
 8008668:	683b      	ldr	r3, [r7, #0]
 800866a:	3301      	adds	r3, #1
 800866c:	603b      	str	r3, [r7, #0]
 800866e:	e766      	b.n	800853e <_scanf_float+0x4a>
 8008670:	eb1a 0f05 	cmn.w	sl, r5
 8008674:	f47f af70 	bne.w	8008558 <_scanf_float+0x64>
 8008678:	6822      	ldr	r2, [r4, #0]
 800867a:	f422 72c0 	bic.w	r2, r2, #384	; 0x180
 800867e:	6022      	str	r2, [r4, #0]
 8008680:	f806 3b01 	strb.w	r3, [r6], #1
 8008684:	e7e4      	b.n	8008650 <_scanf_float+0x15c>
 8008686:	6822      	ldr	r2, [r4, #0]
 8008688:	0610      	lsls	r0, r2, #24
 800868a:	f57f af65 	bpl.w	8008558 <_scanf_float+0x64>
 800868e:	f022 0280 	bic.w	r2, r2, #128	; 0x80
 8008692:	e7f4      	b.n	800867e <_scanf_float+0x18a>
 8008694:	f1ba 0f00 	cmp.w	sl, #0
 8008698:	d10e      	bne.n	80086b8 <_scanf_float+0x1c4>
 800869a:	f1b9 0f00 	cmp.w	r9, #0
 800869e:	d10e      	bne.n	80086be <_scanf_float+0x1ca>
 80086a0:	6822      	ldr	r2, [r4, #0]
 80086a2:	f402 61e0 	and.w	r1, r2, #1792	; 0x700
 80086a6:	f5b1 6fe0 	cmp.w	r1, #1792	; 0x700
 80086aa:	d108      	bne.n	80086be <_scanf_float+0x1ca>
 80086ac:	f422 62f0 	bic.w	r2, r2, #1920	; 0x780
 80086b0:	f04f 0a01 	mov.w	sl, #1
 80086b4:	6022      	str	r2, [r4, #0]
 80086b6:	e7e3      	b.n	8008680 <_scanf_float+0x18c>
 80086b8:	f1ba 0f02 	cmp.w	sl, #2
 80086bc:	d055      	beq.n	800876a <_scanf_float+0x276>
 80086be:	2d01      	cmp	r5, #1
 80086c0:	d002      	beq.n	80086c8 <_scanf_float+0x1d4>
 80086c2:	2d04      	cmp	r5, #4
 80086c4:	f47f af48 	bne.w	8008558 <_scanf_float+0x64>
 80086c8:	3501      	adds	r5, #1
 80086ca:	b2ed      	uxtb	r5, r5
 80086cc:	e7d8      	b.n	8008680 <_scanf_float+0x18c>
 80086ce:	f1ba 0f01 	cmp.w	sl, #1
 80086d2:	f47f af41 	bne.w	8008558 <_scanf_float+0x64>
 80086d6:	f04f 0a02 	mov.w	sl, #2
 80086da:	e7d1      	b.n	8008680 <_scanf_float+0x18c>
 80086dc:	b97d      	cbnz	r5, 80086fe <_scanf_float+0x20a>
 80086de:	f1b9 0f00 	cmp.w	r9, #0
 80086e2:	f47f af3c 	bne.w	800855e <_scanf_float+0x6a>
 80086e6:	6822      	ldr	r2, [r4, #0]
 80086e8:	f402 61e0 	and.w	r1, r2, #1792	; 0x700
 80086ec:	f5b1 6fe0 	cmp.w	r1, #1792	; 0x700
 80086f0:	f47f af39 	bne.w	8008566 <_scanf_float+0x72>
 80086f4:	f422 62f0 	bic.w	r2, r2, #1920	; 0x780
 80086f8:	2501      	movs	r5, #1
 80086fa:	6022      	str	r2, [r4, #0]
 80086fc:	e7c0      	b.n	8008680 <_scanf_float+0x18c>
 80086fe:	2d03      	cmp	r5, #3
 8008700:	d0e2      	beq.n	80086c8 <_scanf_float+0x1d4>
 8008702:	2d05      	cmp	r5, #5
 8008704:	e7de      	b.n	80086c4 <_scanf_float+0x1d0>
 8008706:	2d02      	cmp	r5, #2
 8008708:	f47f af26 	bne.w	8008558 <_scanf_float+0x64>
 800870c:	2503      	movs	r5, #3
 800870e:	e7b7      	b.n	8008680 <_scanf_float+0x18c>
 8008710:	2d06      	cmp	r5, #6
 8008712:	f47f af21 	bne.w	8008558 <_scanf_float+0x64>
 8008716:	2507      	movs	r5, #7
 8008718:	e7b2      	b.n	8008680 <_scanf_float+0x18c>
 800871a:	6822      	ldr	r2, [r4, #0]
 800871c:	0591      	lsls	r1, r2, #22
 800871e:	f57f af1b 	bpl.w	8008558 <_scanf_float+0x64>
 8008722:	f422 7220 	bic.w	r2, r2, #640	; 0x280
 8008726:	6022      	str	r2, [r4, #0]
 8008728:	f8cd 9004 	str.w	r9, [sp, #4]
 800872c:	e7a8      	b.n	8008680 <_scanf_float+0x18c>
 800872e:	6822      	ldr	r2, [r4, #0]
 8008730:	f402 61a0 	and.w	r1, r2, #1280	; 0x500
 8008734:	f5b1 6f80 	cmp.w	r1, #1024	; 0x400
 8008738:	d006      	beq.n	8008748 <_scanf_float+0x254>
 800873a:	0550      	lsls	r0, r2, #21
 800873c:	f57f af0c 	bpl.w	8008558 <_scanf_float+0x64>
 8008740:	f1b9 0f00 	cmp.w	r9, #0
 8008744:	f43f af0f 	beq.w	8008566 <_scanf_float+0x72>
 8008748:	0591      	lsls	r1, r2, #22
 800874a:	bf58      	it	pl
 800874c:	9901      	ldrpl	r1, [sp, #4]
 800874e:	f422 62f0 	bic.w	r2, r2, #1920	; 0x780
 8008752:	bf58      	it	pl
 8008754:	eba9 0101 	subpl.w	r1, r9, r1
 8008758:	f442 72c0 	orr.w	r2, r2, #384	; 0x180
 800875c:	f04f 0900 	mov.w	r9, #0
 8008760:	bf58      	it	pl
 8008762:	e9cd 1604 	strdpl	r1, r6, [sp, #16]
 8008766:	6022      	str	r2, [r4, #0]
 8008768:	e78a      	b.n	8008680 <_scanf_float+0x18c>
 800876a:	f04f 0a03 	mov.w	sl, #3
 800876e:	e787      	b.n	8008680 <_scanf_float+0x18c>
 8008770:	4639      	mov	r1, r7
 8008772:	4640      	mov	r0, r8
 8008774:	f8d4 3180 	ldr.w	r3, [r4, #384]	; 0x180
 8008778:	4798      	blx	r3
 800877a:	2800      	cmp	r0, #0
 800877c:	f43f aedf 	beq.w	800853e <_scanf_float+0x4a>
 8008780:	e6ea      	b.n	8008558 <_scanf_float+0x64>
 8008782:	f8d4 317c 	ldr.w	r3, [r4, #380]	; 0x17c
 8008786:	463a      	mov	r2, r7
 8008788:	4640      	mov	r0, r8
 800878a:	f816 1d01 	ldrb.w	r1, [r6, #-1]!
 800878e:	4798      	blx	r3
 8008790:	6923      	ldr	r3, [r4, #16]
 8008792:	3b01      	subs	r3, #1
 8008794:	6123      	str	r3, [r4, #16]
 8008796:	e6ec      	b.n	8008572 <_scanf_float+0x7e>
 8008798:	1e6b      	subs	r3, r5, #1
 800879a:	2b06      	cmp	r3, #6
 800879c:	d825      	bhi.n	80087ea <_scanf_float+0x2f6>
 800879e:	2d02      	cmp	r5, #2
 80087a0:	d836      	bhi.n	8008810 <_scanf_float+0x31c>
 80087a2:	455e      	cmp	r6, fp
 80087a4:	f67f aee8 	bls.w	8008578 <_scanf_float+0x84>
 80087a8:	f8d4 317c 	ldr.w	r3, [r4, #380]	; 0x17c
 80087ac:	463a      	mov	r2, r7
 80087ae:	4640      	mov	r0, r8
 80087b0:	f816 1d01 	ldrb.w	r1, [r6, #-1]!
 80087b4:	4798      	blx	r3
 80087b6:	6923      	ldr	r3, [r4, #16]
 80087b8:	3b01      	subs	r3, #1
 80087ba:	6123      	str	r3, [r4, #16]
 80087bc:	e7f1      	b.n	80087a2 <_scanf_float+0x2ae>
 80087be:	9802      	ldr	r0, [sp, #8]
 80087c0:	f8d4 317c 	ldr.w	r3, [r4, #380]	; 0x17c
 80087c4:	f810 1d01 	ldrb.w	r1, [r0, #-1]!
 80087c8:	463a      	mov	r2, r7
 80087ca:	9002      	str	r0, [sp, #8]
 80087cc:	4640      	mov	r0, r8
 80087ce:	4798      	blx	r3
 80087d0:	6923      	ldr	r3, [r4, #16]
 80087d2:	3b01      	subs	r3, #1
 80087d4:	6123      	str	r3, [r4, #16]
 80087d6:	f10a 3aff 	add.w	sl, sl, #4294967295
 80087da:	fa5f fa8a 	uxtb.w	sl, sl
 80087de:	f1ba 0f02 	cmp.w	sl, #2
 80087e2:	d1ec      	bne.n	80087be <_scanf_float+0x2ca>
 80087e4:	3d03      	subs	r5, #3
 80087e6:	b2ed      	uxtb	r5, r5
 80087e8:	1b76      	subs	r6, r6, r5
 80087ea:	6823      	ldr	r3, [r4, #0]
 80087ec:	05da      	lsls	r2, r3, #23
 80087ee:	d52f      	bpl.n	8008850 <_scanf_float+0x35c>
 80087f0:	055b      	lsls	r3, r3, #21
 80087f2:	d510      	bpl.n	8008816 <_scanf_float+0x322>
 80087f4:	455e      	cmp	r6, fp
 80087f6:	f67f aebf 	bls.w	8008578 <_scanf_float+0x84>
 80087fa:	f8d4 317c 	ldr.w	r3, [r4, #380]	; 0x17c
 80087fe:	463a      	mov	r2, r7
 8008800:	4640      	mov	r0, r8
 8008802:	f816 1d01 	ldrb.w	r1, [r6, #-1]!
 8008806:	4798      	blx	r3
 8008808:	6923      	ldr	r3, [r4, #16]
 800880a:	3b01      	subs	r3, #1
 800880c:	6123      	str	r3, [r4, #16]
 800880e:	e7f1      	b.n	80087f4 <_scanf_float+0x300>
 8008810:	46aa      	mov	sl, r5
 8008812:	9602      	str	r6, [sp, #8]
 8008814:	e7df      	b.n	80087d6 <_scanf_float+0x2e2>
 8008816:	f816 1c01 	ldrb.w	r1, [r6, #-1]
 800881a:	6923      	ldr	r3, [r4, #16]
 800881c:	2965      	cmp	r1, #101	; 0x65
 800881e:	f103 33ff 	add.w	r3, r3, #4294967295
 8008822:	f106 35ff 	add.w	r5, r6, #4294967295
 8008826:	6123      	str	r3, [r4, #16]
 8008828:	d00c      	beq.n	8008844 <_scanf_float+0x350>
 800882a:	2945      	cmp	r1, #69	; 0x45
 800882c:	d00a      	beq.n	8008844 <_scanf_float+0x350>
 800882e:	f8d4 317c 	ldr.w	r3, [r4, #380]	; 0x17c
 8008832:	463a      	mov	r2, r7
 8008834:	4640      	mov	r0, r8
 8008836:	4798      	blx	r3
 8008838:	6923      	ldr	r3, [r4, #16]
 800883a:	f816 1c02 	ldrb.w	r1, [r6, #-2]
 800883e:	3b01      	subs	r3, #1
 8008840:	1eb5      	subs	r5, r6, #2
 8008842:	6123      	str	r3, [r4, #16]
 8008844:	463a      	mov	r2, r7
 8008846:	4640      	mov	r0, r8
 8008848:	f8d4 317c 	ldr.w	r3, [r4, #380]	; 0x17c
 800884c:	4798      	blx	r3
 800884e:	462e      	mov	r6, r5
 8008850:	6825      	ldr	r5, [r4, #0]
 8008852:	f015 0510 	ands.w	r5, r5, #16
 8008856:	d155      	bne.n	8008904 <_scanf_float+0x410>
 8008858:	7035      	strb	r5, [r6, #0]
 800885a:	6823      	ldr	r3, [r4, #0]
 800885c:	f403 63c0 	and.w	r3, r3, #1536	; 0x600
 8008860:	f5b3 6f80 	cmp.w	r3, #1024	; 0x400
 8008864:	d11b      	bne.n	800889e <_scanf_float+0x3aa>
 8008866:	9b01      	ldr	r3, [sp, #4]
 8008868:	454b      	cmp	r3, r9
 800886a:	eba3 0209 	sub.w	r2, r3, r9
 800886e:	d123      	bne.n	80088b8 <_scanf_float+0x3c4>
 8008870:	2200      	movs	r2, #0
 8008872:	4659      	mov	r1, fp
 8008874:	4640      	mov	r0, r8
 8008876:	f000 fe7b 	bl	8009570 <_strtod_r>
 800887a:	6822      	ldr	r2, [r4, #0]
 800887c:	9b03      	ldr	r3, [sp, #12]
 800887e:	f012 0f02 	tst.w	r2, #2
 8008882:	4606      	mov	r6, r0
 8008884:	460f      	mov	r7, r1
 8008886:	681b      	ldr	r3, [r3, #0]
 8008888:	d021      	beq.n	80088ce <_scanf_float+0x3da>
 800888a:	1d1a      	adds	r2, r3, #4
 800888c:	9903      	ldr	r1, [sp, #12]
 800888e:	600a      	str	r2, [r1, #0]
 8008890:	681b      	ldr	r3, [r3, #0]
 8008892:	e9c3 6700 	strd	r6, r7, [r3]
 8008896:	68e3      	ldr	r3, [r4, #12]
 8008898:	3301      	adds	r3, #1
 800889a:	60e3      	str	r3, [r4, #12]
 800889c:	e66d      	b.n	800857a <_scanf_float+0x86>
 800889e:	9b04      	ldr	r3, [sp, #16]
 80088a0:	2b00      	cmp	r3, #0
 80088a2:	d0e5      	beq.n	8008870 <_scanf_float+0x37c>
 80088a4:	9905      	ldr	r1, [sp, #20]
 80088a6:	230a      	movs	r3, #10
 80088a8:	462a      	mov	r2, r5
 80088aa:	4640      	mov	r0, r8
 80088ac:	3101      	adds	r1, #1
 80088ae:	f000 fee1 	bl	8009674 <_strtol_r>
 80088b2:	9b04      	ldr	r3, [sp, #16]
 80088b4:	9e05      	ldr	r6, [sp, #20]
 80088b6:	1ac2      	subs	r2, r0, r3
 80088b8:	f204 136f 	addw	r3, r4, #367	; 0x16f
 80088bc:	429e      	cmp	r6, r3
 80088be:	bf28      	it	cs
 80088c0:	f504 76b7 	addcs.w	r6, r4, #366	; 0x16e
 80088c4:	4630      	mov	r0, r6
 80088c6:	4910      	ldr	r1, [pc, #64]	; (8008908 <_scanf_float+0x414>)
 80088c8:	f000 f826 	bl	8008918 <siprintf>
 80088cc:	e7d0      	b.n	8008870 <_scanf_float+0x37c>
 80088ce:	f012 0f04 	tst.w	r2, #4
 80088d2:	f103 0204 	add.w	r2, r3, #4
 80088d6:	d1d9      	bne.n	800888c <_scanf_float+0x398>
 80088d8:	f8dd c00c 	ldr.w	ip, [sp, #12]
 80088dc:	f8cc 2000 	str.w	r2, [ip]
 80088e0:	f8d3 8000 	ldr.w	r8, [r3]
 80088e4:	4602      	mov	r2, r0
 80088e6:	460b      	mov	r3, r1
 80088e8:	f7f8 f8fc 	bl	8000ae4 <__aeabi_dcmpun>
 80088ec:	b128      	cbz	r0, 80088fa <_scanf_float+0x406>
 80088ee:	4807      	ldr	r0, [pc, #28]	; (800890c <_scanf_float+0x418>)
 80088f0:	f000 f80e 	bl	8008910 <nanf>
 80088f4:	f8c8 0000 	str.w	r0, [r8]
 80088f8:	e7cd      	b.n	8008896 <_scanf_float+0x3a2>
 80088fa:	4630      	mov	r0, r6
 80088fc:	4639      	mov	r1, r7
 80088fe:	f7f8 f94f 	bl	8000ba0 <__aeabi_d2f>
 8008902:	e7f7      	b.n	80088f4 <_scanf_float+0x400>
 8008904:	2500      	movs	r5, #0
 8008906:	e638      	b.n	800857a <_scanf_float+0x86>
 8008908:	0800dd84 	.word	0x0800dd84
 800890c:	0800e190 	.word	0x0800e190

08008910 <nanf>:
 8008910:	4800      	ldr	r0, [pc, #0]	; (8008914 <nanf+0x4>)
 8008912:	4770      	bx	lr
 8008914:	7fc00000 	.word	0x7fc00000

08008918 <siprintf>:
 8008918:	b40e      	push	{r1, r2, r3}
 800891a:	f06f 4100 	mvn.w	r1, #2147483648	; 0x80000000
 800891e:	b500      	push	{lr}
 8008920:	b09c      	sub	sp, #112	; 0x70
 8008922:	ab1d      	add	r3, sp, #116	; 0x74
 8008924:	9002      	str	r0, [sp, #8]
 8008926:	9006      	str	r0, [sp, #24]
 8008928:	9107      	str	r1, [sp, #28]
 800892a:	9104      	str	r1, [sp, #16]
 800892c:	4808      	ldr	r0, [pc, #32]	; (8008950 <siprintf+0x38>)
 800892e:	4909      	ldr	r1, [pc, #36]	; (8008954 <siprintf+0x3c>)
 8008930:	f853 2b04 	ldr.w	r2, [r3], #4
 8008934:	9105      	str	r1, [sp, #20]
 8008936:	6800      	ldr	r0, [r0, #0]
 8008938:	a902      	add	r1, sp, #8
 800893a:	9301      	str	r3, [sp, #4]
 800893c:	f002 feba 	bl	800b6b4 <_svfiprintf_r>
 8008940:	2200      	movs	r2, #0
 8008942:	9b02      	ldr	r3, [sp, #8]
 8008944:	701a      	strb	r2, [r3, #0]
 8008946:	b01c      	add	sp, #112	; 0x70
 8008948:	f85d eb04 	ldr.w	lr, [sp], #4
 800894c:	b003      	add	sp, #12
 800894e:	4770      	bx	lr
 8008950:	20000014 	.word	0x20000014
 8008954:	ffff0208 	.word	0xffff0208

08008958 <sulp>:
 8008958:	e92d 41f0 	stmdb	sp!, {r4, r5, r6, r7, r8, lr}
 800895c:	460f      	mov	r7, r1
 800895e:	4690      	mov	r8, r2
 8008960:	f002 fc14 	bl	800b18c <__ulp>
 8008964:	4604      	mov	r4, r0
 8008966:	460d      	mov	r5, r1
 8008968:	f1b8 0f00 	cmp.w	r8, #0
 800896c:	d011      	beq.n	8008992 <sulp+0x3a>
 800896e:	f3c7 530a 	ubfx	r3, r7, #20, #11
 8008972:	f1c3 036b 	rsb	r3, r3, #107	; 0x6b
 8008976:	2b00      	cmp	r3, #0
 8008978:	dd0b      	ble.n	8008992 <sulp+0x3a>
 800897a:	2400      	movs	r4, #0
 800897c:	051b      	lsls	r3, r3, #20
 800897e:	f103 557f 	add.w	r5, r3, #1069547520	; 0x3fc00000
 8008982:	f505 1540 	add.w	r5, r5, #3145728	; 0x300000
 8008986:	4622      	mov	r2, r4
 8008988:	462b      	mov	r3, r5
 800898a:	f7f7 fe11 	bl	80005b0 <__aeabi_dmul>
 800898e:	4604      	mov	r4, r0
 8008990:	460d      	mov	r5, r1
 8008992:	4620      	mov	r0, r4
 8008994:	4629      	mov	r1, r5
 8008996:	e8bd 81f0 	ldmia.w	sp!, {r4, r5, r6, r7, r8, pc}
 800899a:	0000      	movs	r0, r0
 800899c:	0000      	movs	r0, r0
	...

080089a0 <_strtod_l>:
 80089a0:	e92d 4ff0 	stmdb	sp!, {r4, r5, r6, r7, r8, r9, sl, fp, lr}
 80089a4:	469b      	mov	fp, r3
 80089a6:	2300      	movs	r3, #0
 80089a8:	b09f      	sub	sp, #124	; 0x7c
 80089aa:	931a      	str	r3, [sp, #104]	; 0x68
 80089ac:	4b9e      	ldr	r3, [pc, #632]	; (8008c28 <_strtod_l+0x288>)
 80089ae:	4682      	mov	sl, r0
 80089b0:	681f      	ldr	r7, [r3, #0]
 80089b2:	460e      	mov	r6, r1
 80089b4:	4638      	mov	r0, r7
 80089b6:	9215      	str	r2, [sp, #84]	; 0x54
 80089b8:	f7f7 fc36 	bl	8000228 <strlen>
 80089bc:	f04f 0800 	mov.w	r8, #0
 80089c0:	4604      	mov	r4, r0
 80089c2:	f04f 0900 	mov.w	r9, #0
 80089c6:	9619      	str	r6, [sp, #100]	; 0x64
 80089c8:	9b19      	ldr	r3, [sp, #100]	; 0x64
 80089ca:	781a      	ldrb	r2, [r3, #0]
 80089cc:	2a2b      	cmp	r2, #43	; 0x2b
 80089ce:	d04c      	beq.n	8008a6a <_strtod_l+0xca>
 80089d0:	d83a      	bhi.n	8008a48 <_strtod_l+0xa8>
 80089d2:	2a0d      	cmp	r2, #13
 80089d4:	d833      	bhi.n	8008a3e <_strtod_l+0x9e>
 80089d6:	2a08      	cmp	r2, #8
 80089d8:	d833      	bhi.n	8008a42 <_strtod_l+0xa2>
 80089da:	2a00      	cmp	r2, #0
 80089dc:	d03d      	beq.n	8008a5a <_strtod_l+0xba>
 80089de:	2300      	movs	r3, #0
 80089e0:	930a      	str	r3, [sp, #40]	; 0x28
 80089e2:	9d19      	ldr	r5, [sp, #100]	; 0x64
 80089e4:	782b      	ldrb	r3, [r5, #0]
 80089e6:	2b30      	cmp	r3, #48	; 0x30
 80089e8:	f040 80aa 	bne.w	8008b40 <_strtod_l+0x1a0>
 80089ec:	786b      	ldrb	r3, [r5, #1]
 80089ee:	f003 03df 	and.w	r3, r3, #223	; 0xdf
 80089f2:	2b58      	cmp	r3, #88	; 0x58
 80089f4:	d166      	bne.n	8008ac4 <_strtod_l+0x124>
 80089f6:	9b0a      	ldr	r3, [sp, #40]	; 0x28
 80089f8:	4650      	mov	r0, sl
 80089fa:	9301      	str	r3, [sp, #4]
 80089fc:	ab1a      	add	r3, sp, #104	; 0x68
 80089fe:	9300      	str	r3, [sp, #0]
 8008a00:	4a8a      	ldr	r2, [pc, #552]	; (8008c2c <_strtod_l+0x28c>)
 8008a02:	f8cd b008 	str.w	fp, [sp, #8]
 8008a06:	ab1b      	add	r3, sp, #108	; 0x6c
 8008a08:	a919      	add	r1, sp, #100	; 0x64
 8008a0a:	f001 fd17 	bl	800a43c <__gethex>
 8008a0e:	f010 0607 	ands.w	r6, r0, #7
 8008a12:	4604      	mov	r4, r0
 8008a14:	d005      	beq.n	8008a22 <_strtod_l+0x82>
 8008a16:	2e06      	cmp	r6, #6
 8008a18:	d129      	bne.n	8008a6e <_strtod_l+0xce>
 8008a1a:	2300      	movs	r3, #0
 8008a1c:	3501      	adds	r5, #1
 8008a1e:	9519      	str	r5, [sp, #100]	; 0x64
 8008a20:	930a      	str	r3, [sp, #40]	; 0x28
 8008a22:	9b15      	ldr	r3, [sp, #84]	; 0x54
 8008a24:	2b00      	cmp	r3, #0
 8008a26:	f040 858a 	bne.w	800953e <_strtod_l+0xb9e>
 8008a2a:	9b0a      	ldr	r3, [sp, #40]	; 0x28
 8008a2c:	b1d3      	cbz	r3, 8008a64 <_strtod_l+0xc4>
 8008a2e:	4642      	mov	r2, r8
 8008a30:	f109 4300 	add.w	r3, r9, #2147483648	; 0x80000000
 8008a34:	4610      	mov	r0, r2
 8008a36:	4619      	mov	r1, r3
 8008a38:	b01f      	add	sp, #124	; 0x7c
 8008a3a:	e8bd 8ff0 	ldmia.w	sp!, {r4, r5, r6, r7, r8, r9, sl, fp, pc}
 8008a3e:	2a20      	cmp	r2, #32
 8008a40:	d1cd      	bne.n	80089de <_strtod_l+0x3e>
 8008a42:	3301      	adds	r3, #1
 8008a44:	9319      	str	r3, [sp, #100]	; 0x64
 8008a46:	e7bf      	b.n	80089c8 <_strtod_l+0x28>
 8008a48:	2a2d      	cmp	r2, #45	; 0x2d
 8008a4a:	d1c8      	bne.n	80089de <_strtod_l+0x3e>
 8008a4c:	2201      	movs	r2, #1
 8008a4e:	920a      	str	r2, [sp, #40]	; 0x28
 8008a50:	1c5a      	adds	r2, r3, #1
 8008a52:	9219      	str	r2, [sp, #100]	; 0x64
 8008a54:	785b      	ldrb	r3, [r3, #1]
 8008a56:	2b00      	cmp	r3, #0
 8008a58:	d1c3      	bne.n	80089e2 <_strtod_l+0x42>
 8008a5a:	9b15      	ldr	r3, [sp, #84]	; 0x54
 8008a5c:	9619      	str	r6, [sp, #100]	; 0x64
 8008a5e:	2b00      	cmp	r3, #0
 8008a60:	f040 856b 	bne.w	800953a <_strtod_l+0xb9a>
 8008a64:	4642      	mov	r2, r8
 8008a66:	464b      	mov	r3, r9
 8008a68:	e7e4      	b.n	8008a34 <_strtod_l+0x94>
 8008a6a:	2200      	movs	r2, #0
 8008a6c:	e7ef      	b.n	8008a4e <_strtod_l+0xae>
 8008a6e:	9a1a      	ldr	r2, [sp, #104]	; 0x68
 8008a70:	b13a      	cbz	r2, 8008a82 <_strtod_l+0xe2>
 8008a72:	2135      	movs	r1, #53	; 0x35
 8008a74:	a81c      	add	r0, sp, #112	; 0x70
 8008a76:	f002 fc8d 	bl	800b394 <__copybits>
 8008a7a:	4650      	mov	r0, sl
 8008a7c:	991a      	ldr	r1, [sp, #104]	; 0x68
 8008a7e:	f002 f855 	bl	800ab2c <_Bfree>
 8008a82:	3e01      	subs	r6, #1
 8008a84:	2e04      	cmp	r6, #4
 8008a86:	d806      	bhi.n	8008a96 <_strtod_l+0xf6>
 8008a88:	e8df f006 	tbb	[pc, r6]
 8008a8c:	1714030a 	.word	0x1714030a
 8008a90:	0a          	.byte	0x0a
 8008a91:	00          	.byte	0x00
 8008a92:	e9dd 891c 	ldrd	r8, r9, [sp, #112]	; 0x70
 8008a96:	0721      	lsls	r1, r4, #28
 8008a98:	d5c3      	bpl.n	8008a22 <_strtod_l+0x82>
 8008a9a:	f049 4900 	orr.w	r9, r9, #2147483648	; 0x80000000
 8008a9e:	e7c0      	b.n	8008a22 <_strtod_l+0x82>
 8008aa0:	9a1b      	ldr	r2, [sp, #108]	; 0x6c
 8008aa2:	e9dd 831c 	ldrd	r8, r3, [sp, #112]	; 0x70
 8008aa6:	f202 4233 	addw	r2, r2, #1075	; 0x433
 8008aaa:	f423 1380 	bic.w	r3, r3, #1048576	; 0x100000
 8008aae:	ea43 5902 	orr.w	r9, r3, r2, lsl #20
 8008ab2:	e7f0      	b.n	8008a96 <_strtod_l+0xf6>
 8008ab4:	f8df 9178 	ldr.w	r9, [pc, #376]	; 8008c30 <_strtod_l+0x290>
 8008ab8:	e7ed      	b.n	8008a96 <_strtod_l+0xf6>
 8008aba:	f06f 4900 	mvn.w	r9, #2147483648	; 0x80000000
 8008abe:	f04f 38ff 	mov.w	r8, #4294967295
 8008ac2:	e7e8      	b.n	8008a96 <_strtod_l+0xf6>
 8008ac4:	9b19      	ldr	r3, [sp, #100]	; 0x64
 8008ac6:	1c5a      	adds	r2, r3, #1
 8008ac8:	9219      	str	r2, [sp, #100]	; 0x64
 8008aca:	785b      	ldrb	r3, [r3, #1]
 8008acc:	2b30      	cmp	r3, #48	; 0x30
 8008ace:	d0f9      	beq.n	8008ac4 <_strtod_l+0x124>
 8008ad0:	2b00      	cmp	r3, #0
 8008ad2:	d0a6      	beq.n	8008a22 <_strtod_l+0x82>
 8008ad4:	2301      	movs	r3, #1
 8008ad6:	9307      	str	r3, [sp, #28]
 8008ad8:	9b19      	ldr	r3, [sp, #100]	; 0x64
 8008ada:	220a      	movs	r2, #10
 8008adc:	9308      	str	r3, [sp, #32]
 8008ade:	2300      	movs	r3, #0
 8008ae0:	469b      	mov	fp, r3
 8008ae2:	e9cd 3305 	strd	r3, r3, [sp, #20]
 8008ae6:	9819      	ldr	r0, [sp, #100]	; 0x64
 8008ae8:	7805      	ldrb	r5, [r0, #0]
 8008aea:	f1a5 0330 	sub.w	r3, r5, #48	; 0x30
 8008aee:	b2d9      	uxtb	r1, r3
 8008af0:	2909      	cmp	r1, #9
 8008af2:	d927      	bls.n	8008b44 <_strtod_l+0x1a4>
 8008af4:	4622      	mov	r2, r4
 8008af6:	4639      	mov	r1, r7
 8008af8:	f002 fef2 	bl	800b8e0 <strncmp>
 8008afc:	2800      	cmp	r0, #0
 8008afe:	d033      	beq.n	8008b68 <_strtod_l+0x1c8>
 8008b00:	2000      	movs	r0, #0
 8008b02:	462a      	mov	r2, r5
 8008b04:	465c      	mov	r4, fp
 8008b06:	4603      	mov	r3, r0
 8008b08:	9004      	str	r0, [sp, #16]
 8008b0a:	2a65      	cmp	r2, #101	; 0x65
 8008b0c:	d001      	beq.n	8008b12 <_strtod_l+0x172>
 8008b0e:	2a45      	cmp	r2, #69	; 0x45
 8008b10:	d114      	bne.n	8008b3c <_strtod_l+0x19c>
 8008b12:	b91c      	cbnz	r4, 8008b1c <_strtod_l+0x17c>
 8008b14:	9a07      	ldr	r2, [sp, #28]
 8008b16:	4302      	orrs	r2, r0
 8008b18:	d09f      	beq.n	8008a5a <_strtod_l+0xba>
 8008b1a:	2400      	movs	r4, #0
 8008b1c:	9e19      	ldr	r6, [sp, #100]	; 0x64
 8008b1e:	1c72      	adds	r2, r6, #1
 8008b20:	9219      	str	r2, [sp, #100]	; 0x64
 8008b22:	7872      	ldrb	r2, [r6, #1]
 8008b24:	2a2b      	cmp	r2, #43	; 0x2b
 8008b26:	d079      	beq.n	8008c1c <_strtod_l+0x27c>
 8008b28:	2a2d      	cmp	r2, #45	; 0x2d
 8008b2a:	f000 8083 	beq.w	8008c34 <_strtod_l+0x294>
 8008b2e:	2700      	movs	r7, #0
 8008b30:	f1a2 0130 	sub.w	r1, r2, #48	; 0x30
 8008b34:	2909      	cmp	r1, #9
 8008b36:	f240 8083 	bls.w	8008c40 <_strtod_l+0x2a0>
 8008b3a:	9619      	str	r6, [sp, #100]	; 0x64
 8008b3c:	2500      	movs	r5, #0
 8008b3e:	e09f      	b.n	8008c80 <_strtod_l+0x2e0>
 8008b40:	2300      	movs	r3, #0
 8008b42:	e7c8      	b.n	8008ad6 <_strtod_l+0x136>
 8008b44:	f1bb 0f08 	cmp.w	fp, #8
 8008b48:	bfd5      	itete	le
 8008b4a:	9906      	ldrle	r1, [sp, #24]
 8008b4c:	9905      	ldrgt	r1, [sp, #20]
 8008b4e:	fb02 3301 	mlale	r3, r2, r1, r3
 8008b52:	fb02 3301 	mlagt	r3, r2, r1, r3
 8008b56:	f100 0001 	add.w	r0, r0, #1
 8008b5a:	bfd4      	ite	le
 8008b5c:	9306      	strle	r3, [sp, #24]
 8008b5e:	9305      	strgt	r3, [sp, #20]
 8008b60:	f10b 0b01 	add.w	fp, fp, #1
 8008b64:	9019      	str	r0, [sp, #100]	; 0x64
 8008b66:	e7be      	b.n	8008ae6 <_strtod_l+0x146>
 8008b68:	9b19      	ldr	r3, [sp, #100]	; 0x64
 8008b6a:	191a      	adds	r2, r3, r4
 8008b6c:	9219      	str	r2, [sp, #100]	; 0x64
 8008b6e:	5d1a      	ldrb	r2, [r3, r4]
 8008b70:	f1bb 0f00 	cmp.w	fp, #0
 8008b74:	d036      	beq.n	8008be4 <_strtod_l+0x244>
 8008b76:	465c      	mov	r4, fp
 8008b78:	9004      	str	r0, [sp, #16]
 8008b7a:	f1a2 0330 	sub.w	r3, r2, #48	; 0x30
 8008b7e:	2b09      	cmp	r3, #9
 8008b80:	d912      	bls.n	8008ba8 <_strtod_l+0x208>
 8008b82:	2301      	movs	r3, #1
 8008b84:	e7c1      	b.n	8008b0a <_strtod_l+0x16a>
 8008b86:	9b19      	ldr	r3, [sp, #100]	; 0x64
 8008b88:	3001      	adds	r0, #1
 8008b8a:	1c5a      	adds	r2, r3, #1
 8008b8c:	9219      	str	r2, [sp, #100]	; 0x64
 8008b8e:	785a      	ldrb	r2, [r3, #1]
 8008b90:	2a30      	cmp	r2, #48	; 0x30
 8008b92:	d0f8      	beq.n	8008b86 <_strtod_l+0x1e6>
 8008b94:	f1a2 0331 	sub.w	r3, r2, #49	; 0x31
 8008b98:	2b08      	cmp	r3, #8
 8008b9a:	f200 84d5 	bhi.w	8009548 <_strtod_l+0xba8>
 8008b9e:	9004      	str	r0, [sp, #16]
 8008ba0:	2000      	movs	r0, #0
 8008ba2:	4604      	mov	r4, r0
 8008ba4:	9b19      	ldr	r3, [sp, #100]	; 0x64
 8008ba6:	9308      	str	r3, [sp, #32]
 8008ba8:	3a30      	subs	r2, #48	; 0x30
 8008baa:	f100 0301 	add.w	r3, r0, #1
 8008bae:	d013      	beq.n	8008bd8 <_strtod_l+0x238>
 8008bb0:	9904      	ldr	r1, [sp, #16]
 8008bb2:	1905      	adds	r5, r0, r4
 8008bb4:	4419      	add	r1, r3
 8008bb6:	9104      	str	r1, [sp, #16]
 8008bb8:	4623      	mov	r3, r4
 8008bba:	210a      	movs	r1, #10
 8008bbc:	42ab      	cmp	r3, r5
 8008bbe:	d113      	bne.n	8008be8 <_strtod_l+0x248>
 8008bc0:	1823      	adds	r3, r4, r0
 8008bc2:	2b08      	cmp	r3, #8
 8008bc4:	f104 0401 	add.w	r4, r4, #1
 8008bc8:	4404      	add	r4, r0
 8008bca:	dc1b      	bgt.n	8008c04 <_strtod_l+0x264>
 8008bcc:	230a      	movs	r3, #10
 8008bce:	9906      	ldr	r1, [sp, #24]
 8008bd0:	fb03 2301 	mla	r3, r3, r1, r2
 8008bd4:	9306      	str	r3, [sp, #24]
 8008bd6:	2300      	movs	r3, #0
 8008bd8:	9a19      	ldr	r2, [sp, #100]	; 0x64
 8008bda:	4618      	mov	r0, r3
 8008bdc:	1c51      	adds	r1, r2, #1
 8008bde:	9119      	str	r1, [sp, #100]	; 0x64
 8008be0:	7852      	ldrb	r2, [r2, #1]
 8008be2:	e7ca      	b.n	8008b7a <_strtod_l+0x1da>
 8008be4:	4658      	mov	r0, fp
 8008be6:	e7d3      	b.n	8008b90 <_strtod_l+0x1f0>
 8008be8:	2b08      	cmp	r3, #8
 8008bea:	dc04      	bgt.n	8008bf6 <_strtod_l+0x256>
 8008bec:	9f06      	ldr	r7, [sp, #24]
 8008bee:	434f      	muls	r7, r1
 8008bf0:	9706      	str	r7, [sp, #24]
 8008bf2:	3301      	adds	r3, #1
 8008bf4:	e7e2      	b.n	8008bbc <_strtod_l+0x21c>
 8008bf6:	1c5f      	adds	r7, r3, #1
 8008bf8:	2f10      	cmp	r7, #16
 8008bfa:	bfde      	ittt	le
 8008bfc:	9f05      	ldrle	r7, [sp, #20]
 8008bfe:	434f      	mulle	r7, r1
 8008c00:	9705      	strle	r7, [sp, #20]
 8008c02:	e7f6      	b.n	8008bf2 <_strtod_l+0x252>
 8008c04:	2c10      	cmp	r4, #16
 8008c06:	bfdf      	itttt	le
 8008c08:	230a      	movle	r3, #10
 8008c0a:	9905      	ldrle	r1, [sp, #20]
 8008c0c:	fb03 2301 	mlale	r3, r3, r1, r2
 8008c10:	9305      	strle	r3, [sp, #20]
 8008c12:	e7e0      	b.n	8008bd6 <_strtod_l+0x236>
 8008c14:	2300      	movs	r3, #0
 8008c16:	9304      	str	r3, [sp, #16]
 8008c18:	2301      	movs	r3, #1
 8008c1a:	e77b      	b.n	8008b14 <_strtod_l+0x174>
 8008c1c:	2700      	movs	r7, #0
 8008c1e:	1cb2      	adds	r2, r6, #2
 8008c20:	9219      	str	r2, [sp, #100]	; 0x64
 8008c22:	78b2      	ldrb	r2, [r6, #2]
 8008c24:	e784      	b.n	8008b30 <_strtod_l+0x190>
 8008c26:	bf00      	nop
 8008c28:	0800dfd8 	.word	0x0800dfd8
 8008c2c:	0800dd8c 	.word	0x0800dd8c
 8008c30:	7ff00000 	.word	0x7ff00000
 8008c34:	2701      	movs	r7, #1
 8008c36:	e7f2      	b.n	8008c1e <_strtod_l+0x27e>
 8008c38:	9a19      	ldr	r2, [sp, #100]	; 0x64
 8008c3a:	1c51      	adds	r1, r2, #1
 8008c3c:	9119      	str	r1, [sp, #100]	; 0x64
 8008c3e:	7852      	ldrb	r2, [r2, #1]
 8008c40:	2a30      	cmp	r2, #48	; 0x30
 8008c42:	d0f9      	beq.n	8008c38 <_strtod_l+0x298>
 8008c44:	f1a2 0131 	sub.w	r1, r2, #49	; 0x31
 8008c48:	2908      	cmp	r1, #8
 8008c4a:	f63f af77 	bhi.w	8008b3c <_strtod_l+0x19c>
 8008c4e:	f04f 0e0a 	mov.w	lr, #10
 8008c52:	f1a2 0c30 	sub.w	ip, r2, #48	; 0x30
 8008c56:	9a19      	ldr	r2, [sp, #100]	; 0x64
 8008c58:	9209      	str	r2, [sp, #36]	; 0x24
 8008c5a:	9a19      	ldr	r2, [sp, #100]	; 0x64
 8008c5c:	1c51      	adds	r1, r2, #1
 8008c5e:	9119      	str	r1, [sp, #100]	; 0x64
 8008c60:	7852      	ldrb	r2, [r2, #1]
 8008c62:	f1a2 0530 	sub.w	r5, r2, #48	; 0x30
 8008c66:	2d09      	cmp	r5, #9
 8008c68:	d935      	bls.n	8008cd6 <_strtod_l+0x336>
 8008c6a:	9d09      	ldr	r5, [sp, #36]	; 0x24
 8008c6c:	1b49      	subs	r1, r1, r5
 8008c6e:	2908      	cmp	r1, #8
 8008c70:	f644 651f 	movw	r5, #19999	; 0x4e1f
 8008c74:	dc02      	bgt.n	8008c7c <_strtod_l+0x2dc>
 8008c76:	4565      	cmp	r5, ip
 8008c78:	bfa8      	it	ge
 8008c7a:	4665      	movge	r5, ip
 8008c7c:	b107      	cbz	r7, 8008c80 <_strtod_l+0x2e0>
 8008c7e:	426d      	negs	r5, r5
 8008c80:	2c00      	cmp	r4, #0
 8008c82:	d14c      	bne.n	8008d1e <_strtod_l+0x37e>
 8008c84:	9907      	ldr	r1, [sp, #28]
 8008c86:	4301      	orrs	r1, r0
 8008c88:	f47f aecb 	bne.w	8008a22 <_strtod_l+0x82>
 8008c8c:	2b00      	cmp	r3, #0
 8008c8e:	f47f aee4 	bne.w	8008a5a <_strtod_l+0xba>
 8008c92:	2a69      	cmp	r2, #105	; 0x69
 8008c94:	d026      	beq.n	8008ce4 <_strtod_l+0x344>
 8008c96:	dc23      	bgt.n	8008ce0 <_strtod_l+0x340>
 8008c98:	2a49      	cmp	r2, #73	; 0x49
 8008c9a:	d023      	beq.n	8008ce4 <_strtod_l+0x344>
 8008c9c:	2a4e      	cmp	r2, #78	; 0x4e
 8008c9e:	f47f aedc 	bne.w	8008a5a <_strtod_l+0xba>
 8008ca2:	499d      	ldr	r1, [pc, #628]	; (8008f18 <_strtod_l+0x578>)
 8008ca4:	a819      	add	r0, sp, #100	; 0x64
 8008ca6:	f001 fe17 	bl	800a8d8 <__match>
 8008caa:	2800      	cmp	r0, #0
 8008cac:	f43f aed5 	beq.w	8008a5a <_strtod_l+0xba>
 8008cb0:	9b19      	ldr	r3, [sp, #100]	; 0x64
 8008cb2:	781b      	ldrb	r3, [r3, #0]
 8008cb4:	2b28      	cmp	r3, #40	; 0x28
 8008cb6:	d12c      	bne.n	8008d12 <_strtod_l+0x372>
 8008cb8:	4998      	ldr	r1, [pc, #608]	; (8008f1c <_strtod_l+0x57c>)
 8008cba:	aa1c      	add	r2, sp, #112	; 0x70
 8008cbc:	a819      	add	r0, sp, #100	; 0x64
 8008cbe:	f001 fe1f 	bl	800a900 <__hexnan>
 8008cc2:	2805      	cmp	r0, #5
 8008cc4:	d125      	bne.n	8008d12 <_strtod_l+0x372>
 8008cc6:	9b1d      	ldr	r3, [sp, #116]	; 0x74
 8008cc8:	f8dd 8070 	ldr.w	r8, [sp, #112]	; 0x70
 8008ccc:	f043 49ff 	orr.w	r9, r3, #2139095040	; 0x7f800000
 8008cd0:	f449 09e0 	orr.w	r9, r9, #7340032	; 0x700000
 8008cd4:	e6a5      	b.n	8008a22 <_strtod_l+0x82>
 8008cd6:	fb0e 2c0c 	mla	ip, lr, ip, r2
 8008cda:	f1ac 0c30 	sub.w	ip, ip, #48	; 0x30
 8008cde:	e7bc      	b.n	8008c5a <_strtod_l+0x2ba>
 8008ce0:	2a6e      	cmp	r2, #110	; 0x6e
 8008ce2:	e7dc      	b.n	8008c9e <_strtod_l+0x2fe>
 8008ce4:	498e      	ldr	r1, [pc, #568]	; (8008f20 <_strtod_l+0x580>)
 8008ce6:	a819      	add	r0, sp, #100	; 0x64
 8008ce8:	f001 fdf6 	bl	800a8d8 <__match>
 8008cec:	2800      	cmp	r0, #0
 8008cee:	f43f aeb4 	beq.w	8008a5a <_strtod_l+0xba>
 8008cf2:	9b19      	ldr	r3, [sp, #100]	; 0x64
 8008cf4:	498b      	ldr	r1, [pc, #556]	; (8008f24 <_strtod_l+0x584>)
 8008cf6:	3b01      	subs	r3, #1
 8008cf8:	a819      	add	r0, sp, #100	; 0x64
 8008cfa:	9319      	str	r3, [sp, #100]	; 0x64
 8008cfc:	f001 fdec 	bl	800a8d8 <__match>
 8008d00:	b910      	cbnz	r0, 8008d08 <_strtod_l+0x368>
 8008d02:	9b19      	ldr	r3, [sp, #100]	; 0x64
 8008d04:	3301      	adds	r3, #1
 8008d06:	9319      	str	r3, [sp, #100]	; 0x64
 8008d08:	f04f 0800 	mov.w	r8, #0
 8008d0c:	f8df 9218 	ldr.w	r9, [pc, #536]	; 8008f28 <_strtod_l+0x588>
 8008d10:	e687      	b.n	8008a22 <_strtod_l+0x82>
 8008d12:	4886      	ldr	r0, [pc, #536]	; (8008f2c <_strtod_l+0x58c>)
 8008d14:	f002 fdce 	bl	800b8b4 <nan>
 8008d18:	4680      	mov	r8, r0
 8008d1a:	4689      	mov	r9, r1
 8008d1c:	e681      	b.n	8008a22 <_strtod_l+0x82>
 8008d1e:	9b04      	ldr	r3, [sp, #16]
 8008d20:	f1bb 0f00 	cmp.w	fp, #0
 8008d24:	bf08      	it	eq
 8008d26:	46a3      	moveq	fp, r4
 8008d28:	1aeb      	subs	r3, r5, r3
 8008d2a:	2c10      	cmp	r4, #16
 8008d2c:	9806      	ldr	r0, [sp, #24]
 8008d2e:	4626      	mov	r6, r4
 8008d30:	9307      	str	r3, [sp, #28]
 8008d32:	bfa8      	it	ge
 8008d34:	2610      	movge	r6, #16
 8008d36:	f7f7 fbc1 	bl	80004bc <__aeabi_ui2d>
 8008d3a:	2c09      	cmp	r4, #9
 8008d3c:	4680      	mov	r8, r0
 8008d3e:	4689      	mov	r9, r1
 8008d40:	dd13      	ble.n	8008d6a <_strtod_l+0x3ca>
 8008d42:	4b7b      	ldr	r3, [pc, #492]	; (8008f30 <_strtod_l+0x590>)
 8008d44:	eb03 03c6 	add.w	r3, r3, r6, lsl #3
 8008d48:	e953 2312 	ldrd	r2, r3, [r3, #-72]	; 0x48
 8008d4c:	f7f7 fc30 	bl	80005b0 <__aeabi_dmul>
 8008d50:	4680      	mov	r8, r0
 8008d52:	9805      	ldr	r0, [sp, #20]
 8008d54:	4689      	mov	r9, r1
 8008d56:	f7f7 fbb1 	bl	80004bc <__aeabi_ui2d>
 8008d5a:	4602      	mov	r2, r0
 8008d5c:	460b      	mov	r3, r1
 8008d5e:	4640      	mov	r0, r8
 8008d60:	4649      	mov	r1, r9
 8008d62:	f7f7 fa6f 	bl	8000244 <__adddf3>
 8008d66:	4680      	mov	r8, r0
 8008d68:	4689      	mov	r9, r1
 8008d6a:	2c0f      	cmp	r4, #15
 8008d6c:	dc36      	bgt.n	8008ddc <_strtod_l+0x43c>
 8008d6e:	9b07      	ldr	r3, [sp, #28]
 8008d70:	2b00      	cmp	r3, #0
 8008d72:	f43f ae56 	beq.w	8008a22 <_strtod_l+0x82>
 8008d76:	dd22      	ble.n	8008dbe <_strtod_l+0x41e>
 8008d78:	2b16      	cmp	r3, #22
 8008d7a:	dc09      	bgt.n	8008d90 <_strtod_l+0x3f0>
 8008d7c:	496c      	ldr	r1, [pc, #432]	; (8008f30 <_strtod_l+0x590>)
 8008d7e:	4642      	mov	r2, r8
 8008d80:	eb01 01c3 	add.w	r1, r1, r3, lsl #3
 8008d84:	464b      	mov	r3, r9
 8008d86:	e9d1 0100 	ldrd	r0, r1, [r1]
 8008d8a:	f7f7 fc11 	bl	80005b0 <__aeabi_dmul>
 8008d8e:	e7c3      	b.n	8008d18 <_strtod_l+0x378>
 8008d90:	9a07      	ldr	r2, [sp, #28]
 8008d92:	f1c4 0325 	rsb	r3, r4, #37	; 0x25
 8008d96:	4293      	cmp	r3, r2
 8008d98:	db20      	blt.n	8008ddc <_strtod_l+0x43c>
 8008d9a:	4d65      	ldr	r5, [pc, #404]	; (8008f30 <_strtod_l+0x590>)
 8008d9c:	f1c4 040f 	rsb	r4, r4, #15
 8008da0:	eb05 01c4 	add.w	r1, r5, r4, lsl #3
 8008da4:	4642      	mov	r2, r8
 8008da6:	e9d1 0100 	ldrd	r0, r1, [r1]
 8008daa:	464b      	mov	r3, r9
 8008dac:	f7f7 fc00 	bl	80005b0 <__aeabi_dmul>
 8008db0:	9b07      	ldr	r3, [sp, #28]
 8008db2:	1b1c      	subs	r4, r3, r4
 8008db4:	eb05 05c4 	add.w	r5, r5, r4, lsl #3
 8008db8:	e9d5 2300 	ldrd	r2, r3, [r5]
 8008dbc:	e7e5      	b.n	8008d8a <_strtod_l+0x3ea>
 8008dbe:	9b07      	ldr	r3, [sp, #28]
 8008dc0:	3316      	adds	r3, #22
 8008dc2:	db0b      	blt.n	8008ddc <_strtod_l+0x43c>
 8008dc4:	9b04      	ldr	r3, [sp, #16]
 8008dc6:	4640      	mov	r0, r8
 8008dc8:	1b5d      	subs	r5, r3, r5
 8008dca:	4b59      	ldr	r3, [pc, #356]	; (8008f30 <_strtod_l+0x590>)
 8008dcc:	4649      	mov	r1, r9
 8008dce:	eb03 05c5 	add.w	r5, r3, r5, lsl #3
 8008dd2:	e9d5 2300 	ldrd	r2, r3, [r5]
 8008dd6:	f7f7 fd15 	bl	8000804 <__aeabi_ddiv>
 8008dda:	e79d      	b.n	8008d18 <_strtod_l+0x378>
 8008ddc:	9b07      	ldr	r3, [sp, #28]
 8008dde:	1ba6      	subs	r6, r4, r6
 8008de0:	441e      	add	r6, r3
 8008de2:	2e00      	cmp	r6, #0
 8008de4:	dd74      	ble.n	8008ed0 <_strtod_l+0x530>
 8008de6:	f016 030f 	ands.w	r3, r6, #15
 8008dea:	d00a      	beq.n	8008e02 <_strtod_l+0x462>
 8008dec:	4950      	ldr	r1, [pc, #320]	; (8008f30 <_strtod_l+0x590>)
 8008dee:	4642      	mov	r2, r8
 8008df0:	eb01 01c3 	add.w	r1, r1, r3, lsl #3
 8008df4:	e9d1 0100 	ldrd	r0, r1, [r1]
 8008df8:	464b      	mov	r3, r9
 8008dfa:	f7f7 fbd9 	bl	80005b0 <__aeabi_dmul>
 8008dfe:	4680      	mov	r8, r0
 8008e00:	4689      	mov	r9, r1
 8008e02:	f036 060f 	bics.w	r6, r6, #15
 8008e06:	d052      	beq.n	8008eae <_strtod_l+0x50e>
 8008e08:	f5b6 7f9a 	cmp.w	r6, #308	; 0x134
 8008e0c:	dd27      	ble.n	8008e5e <_strtod_l+0x4be>
 8008e0e:	f04f 0b00 	mov.w	fp, #0
 8008e12:	f8cd b010 	str.w	fp, [sp, #16]
 8008e16:	f8cd b020 	str.w	fp, [sp, #32]
 8008e1a:	f8cd b018 	str.w	fp, [sp, #24]
 8008e1e:	2322      	movs	r3, #34	; 0x22
 8008e20:	f04f 0800 	mov.w	r8, #0
 8008e24:	f8df 9100 	ldr.w	r9, [pc, #256]	; 8008f28 <_strtod_l+0x588>
 8008e28:	f8ca 3000 	str.w	r3, [sl]
 8008e2c:	9b08      	ldr	r3, [sp, #32]
 8008e2e:	2b00      	cmp	r3, #0
 8008e30:	f43f adf7 	beq.w	8008a22 <_strtod_l+0x82>
 8008e34:	4650      	mov	r0, sl
 8008e36:	991a      	ldr	r1, [sp, #104]	; 0x68
 8008e38:	f001 fe78 	bl	800ab2c <_Bfree>
 8008e3c:	4650      	mov	r0, sl
 8008e3e:	9906      	ldr	r1, [sp, #24]
 8008e40:	f001 fe74 	bl	800ab2c <_Bfree>
 8008e44:	4650      	mov	r0, sl
 8008e46:	9904      	ldr	r1, [sp, #16]
 8008e48:	f001 fe70 	bl	800ab2c <_Bfree>
 8008e4c:	4650      	mov	r0, sl
 8008e4e:	9908      	ldr	r1, [sp, #32]
 8008e50:	f001 fe6c 	bl	800ab2c <_Bfree>
 8008e54:	4659      	mov	r1, fp
 8008e56:	4650      	mov	r0, sl
 8008e58:	f001 fe68 	bl	800ab2c <_Bfree>
 8008e5c:	e5e1      	b.n	8008a22 <_strtod_l+0x82>
 8008e5e:	4b35      	ldr	r3, [pc, #212]	; (8008f34 <_strtod_l+0x594>)
 8008e60:	4640      	mov	r0, r8
 8008e62:	9305      	str	r3, [sp, #20]
 8008e64:	2300      	movs	r3, #0
 8008e66:	4649      	mov	r1, r9
 8008e68:	461f      	mov	r7, r3
 8008e6a:	1136      	asrs	r6, r6, #4
 8008e6c:	2e01      	cmp	r6, #1
 8008e6e:	dc21      	bgt.n	8008eb4 <_strtod_l+0x514>
 8008e70:	b10b      	cbz	r3, 8008e76 <_strtod_l+0x4d6>
 8008e72:	4680      	mov	r8, r0
 8008e74:	4689      	mov	r9, r1
 8008e76:	4b2f      	ldr	r3, [pc, #188]	; (8008f34 <_strtod_l+0x594>)
 8008e78:	f1a9 7954 	sub.w	r9, r9, #55574528	; 0x3500000
 8008e7c:	eb03 07c7 	add.w	r7, r3, r7, lsl #3
 8008e80:	4642      	mov	r2, r8
 8008e82:	e9d7 0100 	ldrd	r0, r1, [r7]
 8008e86:	464b      	mov	r3, r9
 8008e88:	f7f7 fb92 	bl	80005b0 <__aeabi_dmul>
 8008e8c:	4b26      	ldr	r3, [pc, #152]	; (8008f28 <_strtod_l+0x588>)
 8008e8e:	460a      	mov	r2, r1
 8008e90:	400b      	ands	r3, r1
 8008e92:	4929      	ldr	r1, [pc, #164]	; (8008f38 <_strtod_l+0x598>)
 8008e94:	4680      	mov	r8, r0
 8008e96:	428b      	cmp	r3, r1
 8008e98:	d8b9      	bhi.n	8008e0e <_strtod_l+0x46e>
 8008e9a:	f5a1 1180 	sub.w	r1, r1, #1048576	; 0x100000
 8008e9e:	428b      	cmp	r3, r1
 8008ea0:	bf86      	itte	hi
 8008ea2:	f04f 38ff 	movhi.w	r8, #4294967295
 8008ea6:	f8df 9094 	ldrhi.w	r9, [pc, #148]	; 8008f3c <_strtod_l+0x59c>
 8008eaa:	f102 7954 	addls.w	r9, r2, #55574528	; 0x3500000
 8008eae:	2300      	movs	r3, #0
 8008eb0:	9305      	str	r3, [sp, #20]
 8008eb2:	e07f      	b.n	8008fb4 <_strtod_l+0x614>
 8008eb4:	07f2      	lsls	r2, r6, #31
 8008eb6:	d505      	bpl.n	8008ec4 <_strtod_l+0x524>
 8008eb8:	9b05      	ldr	r3, [sp, #20]
 8008eba:	e9d3 2300 	ldrd	r2, r3, [r3]
 8008ebe:	f7f7 fb77 	bl	80005b0 <__aeabi_dmul>
 8008ec2:	2301      	movs	r3, #1
 8008ec4:	9a05      	ldr	r2, [sp, #20]
 8008ec6:	3701      	adds	r7, #1
 8008ec8:	3208      	adds	r2, #8
 8008eca:	1076      	asrs	r6, r6, #1
 8008ecc:	9205      	str	r2, [sp, #20]
 8008ece:	e7cd      	b.n	8008e6c <_strtod_l+0x4cc>
 8008ed0:	d0ed      	beq.n	8008eae <_strtod_l+0x50e>
 8008ed2:	4276      	negs	r6, r6
 8008ed4:	f016 020f 	ands.w	r2, r6, #15
 8008ed8:	d00a      	beq.n	8008ef0 <_strtod_l+0x550>
 8008eda:	4b15      	ldr	r3, [pc, #84]	; (8008f30 <_strtod_l+0x590>)
 8008edc:	4640      	mov	r0, r8
 8008ede:	eb03 03c2 	add.w	r3, r3, r2, lsl #3
 8008ee2:	4649      	mov	r1, r9
 8008ee4:	e9d3 2300 	ldrd	r2, r3, [r3]
 8008ee8:	f7f7 fc8c 	bl	8000804 <__aeabi_ddiv>
 8008eec:	4680      	mov	r8, r0
 8008eee:	4689      	mov	r9, r1
 8008ef0:	1136      	asrs	r6, r6, #4
 8008ef2:	d0dc      	beq.n	8008eae <_strtod_l+0x50e>
 8008ef4:	2e1f      	cmp	r6, #31
 8008ef6:	dd23      	ble.n	8008f40 <_strtod_l+0x5a0>
 8008ef8:	f04f 0b00 	mov.w	fp, #0
 8008efc:	f8cd b010 	str.w	fp, [sp, #16]
 8008f00:	f8cd b020 	str.w	fp, [sp, #32]
 8008f04:	f8cd b018 	str.w	fp, [sp, #24]
 8008f08:	2322      	movs	r3, #34	; 0x22
 8008f0a:	f04f 0800 	mov.w	r8, #0
 8008f0e:	f04f 0900 	mov.w	r9, #0
 8008f12:	f8ca 3000 	str.w	r3, [sl]
 8008f16:	e789      	b.n	8008e2c <_strtod_l+0x48c>
 8008f18:	0800dd5d 	.word	0x0800dd5d
 8008f1c:	0800dda0 	.word	0x0800dda0
 8008f20:	0800dd55 	.word	0x0800dd55
 8008f24:	0800dee4 	.word	0x0800dee4
 8008f28:	7ff00000 	.word	0x7ff00000
 8008f2c:	0800e190 	.word	0x0800e190
 8008f30:	0800e070 	.word	0x0800e070
 8008f34:	0800e048 	.word	0x0800e048
 8008f38:	7ca00000 	.word	0x7ca00000
 8008f3c:	7fefffff 	.word	0x7fefffff
 8008f40:	f016 0310 	ands.w	r3, r6, #16
 8008f44:	bf18      	it	ne
 8008f46:	236a      	movne	r3, #106	; 0x6a
 8008f48:	4640      	mov	r0, r8
 8008f4a:	9305      	str	r3, [sp, #20]
 8008f4c:	4649      	mov	r1, r9
 8008f4e:	2300      	movs	r3, #0
 8008f50:	4fb0      	ldr	r7, [pc, #704]	; (8009214 <_strtod_l+0x874>)
 8008f52:	07f2      	lsls	r2, r6, #31
 8008f54:	d504      	bpl.n	8008f60 <_strtod_l+0x5c0>
 8008f56:	e9d7 2300 	ldrd	r2, r3, [r7]
 8008f5a:	f7f7 fb29 	bl	80005b0 <__aeabi_dmul>
 8008f5e:	2301      	movs	r3, #1
 8008f60:	1076      	asrs	r6, r6, #1
 8008f62:	f107 0708 	add.w	r7, r7, #8
 8008f66:	d1f4      	bne.n	8008f52 <_strtod_l+0x5b2>
 8008f68:	b10b      	cbz	r3, 8008f6e <_strtod_l+0x5ce>
 8008f6a:	4680      	mov	r8, r0
 8008f6c:	4689      	mov	r9, r1
 8008f6e:	9b05      	ldr	r3, [sp, #20]
 8008f70:	b1c3      	cbz	r3, 8008fa4 <_strtod_l+0x604>
 8008f72:	f3c9 520a 	ubfx	r2, r9, #20, #11
 8008f76:	f1c2 036b 	rsb	r3, r2, #107	; 0x6b
 8008f7a:	2b00      	cmp	r3, #0
 8008f7c:	4649      	mov	r1, r9
 8008f7e:	dd11      	ble.n	8008fa4 <_strtod_l+0x604>
 8008f80:	2b1f      	cmp	r3, #31
 8008f82:	f340 8127 	ble.w	80091d4 <_strtod_l+0x834>
 8008f86:	2b34      	cmp	r3, #52	; 0x34
 8008f88:	bfd8      	it	le
 8008f8a:	f04f 33ff 	movle.w	r3, #4294967295
 8008f8e:	f04f 0800 	mov.w	r8, #0
 8008f92:	bfcf      	iteee	gt
 8008f94:	f04f 795c 	movgt.w	r9, #57671680	; 0x3700000
 8008f98:	f1c2 024b 	rsble	r2, r2, #75	; 0x4b
 8008f9c:	fa03 f202 	lslle.w	r2, r3, r2
 8008fa0:	ea02 0901 	andle.w	r9, r2, r1
 8008fa4:	2200      	movs	r2, #0
 8008fa6:	2300      	movs	r3, #0
 8008fa8:	4640      	mov	r0, r8
 8008faa:	4649      	mov	r1, r9
 8008fac:	f7f7 fd68 	bl	8000a80 <__aeabi_dcmpeq>
 8008fb0:	2800      	cmp	r0, #0
 8008fb2:	d1a1      	bne.n	8008ef8 <_strtod_l+0x558>
 8008fb4:	9b06      	ldr	r3, [sp, #24]
 8008fb6:	465a      	mov	r2, fp
 8008fb8:	9300      	str	r3, [sp, #0]
 8008fba:	4650      	mov	r0, sl
 8008fbc:	4623      	mov	r3, r4
 8008fbe:	9908      	ldr	r1, [sp, #32]
 8008fc0:	f001 fe1c 	bl	800abfc <__s2b>
 8008fc4:	9008      	str	r0, [sp, #32]
 8008fc6:	2800      	cmp	r0, #0
 8008fc8:	f43f af21 	beq.w	8008e0e <_strtod_l+0x46e>
 8008fcc:	9b04      	ldr	r3, [sp, #16]
 8008fce:	f04f 0b00 	mov.w	fp, #0
 8008fd2:	1b5d      	subs	r5, r3, r5
 8008fd4:	9b07      	ldr	r3, [sp, #28]
 8008fd6:	f8cd b010 	str.w	fp, [sp, #16]
 8008fda:	2b00      	cmp	r3, #0
 8008fdc:	bfb4      	ite	lt
 8008fde:	462b      	movlt	r3, r5
 8008fe0:	2300      	movge	r3, #0
 8008fe2:	930e      	str	r3, [sp, #56]	; 0x38
 8008fe4:	9b07      	ldr	r3, [sp, #28]
 8008fe6:	ea23 73e3 	bic.w	r3, r3, r3, asr #31
 8008fea:	9314      	str	r3, [sp, #80]	; 0x50
 8008fec:	9b08      	ldr	r3, [sp, #32]
 8008fee:	4650      	mov	r0, sl
 8008ff0:	6859      	ldr	r1, [r3, #4]
 8008ff2:	f001 fd5b 	bl	800aaac <_Balloc>
 8008ff6:	9006      	str	r0, [sp, #24]
 8008ff8:	2800      	cmp	r0, #0
 8008ffa:	f43f af10 	beq.w	8008e1e <_strtod_l+0x47e>
 8008ffe:	9b08      	ldr	r3, [sp, #32]
 8009000:	300c      	adds	r0, #12
 8009002:	691a      	ldr	r2, [r3, #16]
 8009004:	f103 010c 	add.w	r1, r3, #12
 8009008:	3202      	adds	r2, #2
 800900a:	0092      	lsls	r2, r2, #2
 800900c:	f001 fd40 	bl	800aa90 <memcpy>
 8009010:	ab1c      	add	r3, sp, #112	; 0x70
 8009012:	9301      	str	r3, [sp, #4]
 8009014:	ab1b      	add	r3, sp, #108	; 0x6c
 8009016:	9300      	str	r3, [sp, #0]
 8009018:	4642      	mov	r2, r8
 800901a:	464b      	mov	r3, r9
 800901c:	4650      	mov	r0, sl
 800901e:	e9cd 890c 	strd	r8, r9, [sp, #48]	; 0x30
 8009022:	f002 f92d 	bl	800b280 <__d2b>
 8009026:	901a      	str	r0, [sp, #104]	; 0x68
 8009028:	2800      	cmp	r0, #0
 800902a:	f43f aef8 	beq.w	8008e1e <_strtod_l+0x47e>
 800902e:	2101      	movs	r1, #1
 8009030:	4650      	mov	r0, sl
 8009032:	f001 fe7b 	bl	800ad2c <__i2b>
 8009036:	4603      	mov	r3, r0
 8009038:	9004      	str	r0, [sp, #16]
 800903a:	2800      	cmp	r0, #0
 800903c:	f43f aeef 	beq.w	8008e1e <_strtod_l+0x47e>
 8009040:	9d1b      	ldr	r5, [sp, #108]	; 0x6c
 8009042:	9a1c      	ldr	r2, [sp, #112]	; 0x70
 8009044:	2d00      	cmp	r5, #0
 8009046:	bfab      	itete	ge
 8009048:	9b0e      	ldrge	r3, [sp, #56]	; 0x38
 800904a:	9b14      	ldrlt	r3, [sp, #80]	; 0x50
 800904c:	18ee      	addge	r6, r5, r3
 800904e:	1b5c      	sublt	r4, r3, r5
 8009050:	9b05      	ldr	r3, [sp, #20]
 8009052:	bfa8      	it	ge
 8009054:	9c14      	ldrge	r4, [sp, #80]	; 0x50
 8009056:	eba5 0503 	sub.w	r5, r5, r3
 800905a:	4415      	add	r5, r2
 800905c:	4b6e      	ldr	r3, [pc, #440]	; (8009218 <_strtod_l+0x878>)
 800905e:	f105 35ff 	add.w	r5, r5, #4294967295
 8009062:	bfb8      	it	lt
 8009064:	9e0e      	ldrlt	r6, [sp, #56]	; 0x38
 8009066:	429d      	cmp	r5, r3
 8009068:	f1c2 0236 	rsb	r2, r2, #54	; 0x36
 800906c:	f280 80c4 	bge.w	80091f8 <_strtod_l+0x858>
 8009070:	1b5b      	subs	r3, r3, r5
 8009072:	2b1f      	cmp	r3, #31
 8009074:	f04f 0701 	mov.w	r7, #1
 8009078:	eba2 0203 	sub.w	r2, r2, r3
 800907c:	f300 80b1 	bgt.w	80091e2 <_strtod_l+0x842>
 8009080:	2500      	movs	r5, #0
 8009082:	fa07 f303 	lsl.w	r3, r7, r3
 8009086:	930f      	str	r3, [sp, #60]	; 0x3c
 8009088:	18b7      	adds	r7, r6, r2
 800908a:	9b05      	ldr	r3, [sp, #20]
 800908c:	42be      	cmp	r6, r7
 800908e:	4414      	add	r4, r2
 8009090:	441c      	add	r4, r3
 8009092:	4633      	mov	r3, r6
 8009094:	bfa8      	it	ge
 8009096:	463b      	movge	r3, r7
 8009098:	42a3      	cmp	r3, r4
 800909a:	bfa8      	it	ge
 800909c:	4623      	movge	r3, r4
 800909e:	2b00      	cmp	r3, #0
 80090a0:	bfc2      	ittt	gt
 80090a2:	1aff      	subgt	r7, r7, r3
 80090a4:	1ae4      	subgt	r4, r4, r3
 80090a6:	1af6      	subgt	r6, r6, r3
 80090a8:	9b0e      	ldr	r3, [sp, #56]	; 0x38
 80090aa:	2b00      	cmp	r3, #0
 80090ac:	dd17      	ble.n	80090de <_strtod_l+0x73e>
 80090ae:	461a      	mov	r2, r3
 80090b0:	4650      	mov	r0, sl
 80090b2:	9904      	ldr	r1, [sp, #16]
 80090b4:	f001 fef8 	bl	800aea8 <__pow5mult>
 80090b8:	9004      	str	r0, [sp, #16]
 80090ba:	2800      	cmp	r0, #0
 80090bc:	f43f aeaf 	beq.w	8008e1e <_strtod_l+0x47e>
 80090c0:	4601      	mov	r1, r0
 80090c2:	9a1a      	ldr	r2, [sp, #104]	; 0x68
 80090c4:	4650      	mov	r0, sl
 80090c6:	f001 fe47 	bl	800ad58 <__multiply>
 80090ca:	9009      	str	r0, [sp, #36]	; 0x24
 80090cc:	2800      	cmp	r0, #0
 80090ce:	f43f aea6 	beq.w	8008e1e <_strtod_l+0x47e>
 80090d2:	4650      	mov	r0, sl
 80090d4:	991a      	ldr	r1, [sp, #104]	; 0x68
 80090d6:	f001 fd29 	bl	800ab2c <_Bfree>
 80090da:	9b09      	ldr	r3, [sp, #36]	; 0x24
 80090dc:	931a      	str	r3, [sp, #104]	; 0x68
 80090de:	2f00      	cmp	r7, #0
 80090e0:	f300 808e 	bgt.w	8009200 <_strtod_l+0x860>
 80090e4:	9b07      	ldr	r3, [sp, #28]
 80090e6:	2b00      	cmp	r3, #0
 80090e8:	dd08      	ble.n	80090fc <_strtod_l+0x75c>
 80090ea:	4650      	mov	r0, sl
 80090ec:	9a14      	ldr	r2, [sp, #80]	; 0x50
 80090ee:	9906      	ldr	r1, [sp, #24]
 80090f0:	f001 feda 	bl	800aea8 <__pow5mult>
 80090f4:	9006      	str	r0, [sp, #24]
 80090f6:	2800      	cmp	r0, #0
 80090f8:	f43f ae91 	beq.w	8008e1e <_strtod_l+0x47e>
 80090fc:	2c00      	cmp	r4, #0
 80090fe:	dd08      	ble.n	8009112 <_strtod_l+0x772>
 8009100:	4622      	mov	r2, r4
 8009102:	4650      	mov	r0, sl
 8009104:	9906      	ldr	r1, [sp, #24]
 8009106:	f001 ff29 	bl	800af5c <__lshift>
 800910a:	9006      	str	r0, [sp, #24]
 800910c:	2800      	cmp	r0, #0
 800910e:	f43f ae86 	beq.w	8008e1e <_strtod_l+0x47e>
 8009112:	2e00      	cmp	r6, #0
 8009114:	dd08      	ble.n	8009128 <_strtod_l+0x788>
 8009116:	4632      	mov	r2, r6
 8009118:	4650      	mov	r0, sl
 800911a:	9904      	ldr	r1, [sp, #16]
 800911c:	f001 ff1e 	bl	800af5c <__lshift>
 8009120:	9004      	str	r0, [sp, #16]
 8009122:	2800      	cmp	r0, #0
 8009124:	f43f ae7b 	beq.w	8008e1e <_strtod_l+0x47e>
 8009128:	4650      	mov	r0, sl
 800912a:	9a06      	ldr	r2, [sp, #24]
 800912c:	991a      	ldr	r1, [sp, #104]	; 0x68
 800912e:	f001 ffa1 	bl	800b074 <__mdiff>
 8009132:	4683      	mov	fp, r0
 8009134:	2800      	cmp	r0, #0
 8009136:	f43f ae72 	beq.w	8008e1e <_strtod_l+0x47e>
 800913a:	2400      	movs	r4, #0
 800913c:	68c3      	ldr	r3, [r0, #12]
 800913e:	9904      	ldr	r1, [sp, #16]
 8009140:	60c4      	str	r4, [r0, #12]
 8009142:	930b      	str	r3, [sp, #44]	; 0x2c
 8009144:	f001 ff7a 	bl	800b03c <__mcmp>
 8009148:	42a0      	cmp	r0, r4
 800914a:	da6b      	bge.n	8009224 <_strtod_l+0x884>
 800914c:	9b0b      	ldr	r3, [sp, #44]	; 0x2c
 800914e:	ea53 0308 	orrs.w	r3, r3, r8
 8009152:	f040 8091 	bne.w	8009278 <_strtod_l+0x8d8>
 8009156:	f3c9 0313 	ubfx	r3, r9, #0, #20
 800915a:	2b00      	cmp	r3, #0
 800915c:	f040 808c 	bne.w	8009278 <_strtod_l+0x8d8>
 8009160:	f029 4300 	bic.w	r3, r9, #2147483648	; 0x80000000
 8009164:	0d1b      	lsrs	r3, r3, #20
 8009166:	051b      	lsls	r3, r3, #20
 8009168:	f1b3 6fd6 	cmp.w	r3, #112197632	; 0x6b00000
 800916c:	f240 8084 	bls.w	8009278 <_strtod_l+0x8d8>
 8009170:	f8db 3014 	ldr.w	r3, [fp, #20]
 8009174:	b91b      	cbnz	r3, 800917e <_strtod_l+0x7de>
 8009176:	f8db 3010 	ldr.w	r3, [fp, #16]
 800917a:	2b01      	cmp	r3, #1
 800917c:	dd7c      	ble.n	8009278 <_strtod_l+0x8d8>
 800917e:	4659      	mov	r1, fp
 8009180:	2201      	movs	r2, #1
 8009182:	4650      	mov	r0, sl
 8009184:	f001 feea 	bl	800af5c <__lshift>
 8009188:	9904      	ldr	r1, [sp, #16]
 800918a:	4683      	mov	fp, r0
 800918c:	f001 ff56 	bl	800b03c <__mcmp>
 8009190:	2800      	cmp	r0, #0
 8009192:	dd71      	ble.n	8009278 <_strtod_l+0x8d8>
 8009194:	9905      	ldr	r1, [sp, #20]
 8009196:	464b      	mov	r3, r9
 8009198:	4a20      	ldr	r2, [pc, #128]	; (800921c <_strtod_l+0x87c>)
 800919a:	2900      	cmp	r1, #0
 800919c:	f000 808c 	beq.w	80092b8 <_strtod_l+0x918>
 80091a0:	ea02 0109 	and.w	r1, r2, r9
 80091a4:	f1b1 6fd6 	cmp.w	r1, #112197632	; 0x6b00000
 80091a8:	f300 8086 	bgt.w	80092b8 <_strtod_l+0x918>
 80091ac:	f1b1 7f5c 	cmp.w	r1, #57671680	; 0x3700000
 80091b0:	f77f aeaa 	ble.w	8008f08 <_strtod_l+0x568>
 80091b4:	4640      	mov	r0, r8
 80091b6:	4649      	mov	r1, r9
 80091b8:	4b19      	ldr	r3, [pc, #100]	; (8009220 <_strtod_l+0x880>)
 80091ba:	2200      	movs	r2, #0
 80091bc:	f7f7 f9f8 	bl	80005b0 <__aeabi_dmul>
 80091c0:	460b      	mov	r3, r1
 80091c2:	4303      	orrs	r3, r0
 80091c4:	bf08      	it	eq
 80091c6:	2322      	moveq	r3, #34	; 0x22
 80091c8:	4680      	mov	r8, r0
 80091ca:	4689      	mov	r9, r1
 80091cc:	bf08      	it	eq
 80091ce:	f8ca 3000 	streq.w	r3, [sl]
 80091d2:	e62f      	b.n	8008e34 <_strtod_l+0x494>
 80091d4:	f04f 32ff 	mov.w	r2, #4294967295
 80091d8:	fa02 f303 	lsl.w	r3, r2, r3
 80091dc:	ea03 0808 	and.w	r8, r3, r8
 80091e0:	e6e0      	b.n	8008fa4 <_strtod_l+0x604>
 80091e2:	f1c5 457f 	rsb	r5, r5, #4278190080	; 0xff000000
 80091e6:	f505 057f 	add.w	r5, r5, #16711680	; 0xff0000
 80091ea:	f505 457b 	add.w	r5, r5, #64256	; 0xfb00
 80091ee:	35e2      	adds	r5, #226	; 0xe2
 80091f0:	fa07 f505 	lsl.w	r5, r7, r5
 80091f4:	970f      	str	r7, [sp, #60]	; 0x3c
 80091f6:	e747      	b.n	8009088 <_strtod_l+0x6e8>
 80091f8:	2301      	movs	r3, #1
 80091fa:	2500      	movs	r5, #0
 80091fc:	930f      	str	r3, [sp, #60]	; 0x3c
 80091fe:	e743      	b.n	8009088 <_strtod_l+0x6e8>
 8009200:	463a      	mov	r2, r7
 8009202:	4650      	mov	r0, sl
 8009204:	991a      	ldr	r1, [sp, #104]	; 0x68
 8009206:	f001 fea9 	bl	800af5c <__lshift>
 800920a:	901a      	str	r0, [sp, #104]	; 0x68
 800920c:	2800      	cmp	r0, #0
 800920e:	f47f af69 	bne.w	80090e4 <_strtod_l+0x744>
 8009212:	e604      	b.n	8008e1e <_strtod_l+0x47e>
 8009214:	0800ddb8 	.word	0x0800ddb8
 8009218:	fffffc02 	.word	0xfffffc02
 800921c:	7ff00000 	.word	0x7ff00000
 8009220:	39500000 	.word	0x39500000
 8009224:	f8cd 9024 	str.w	r9, [sp, #36]	; 0x24
 8009228:	d165      	bne.n	80092f6 <_strtod_l+0x956>
 800922a:	9a0b      	ldr	r2, [sp, #44]	; 0x2c
 800922c:	f3c9 0313 	ubfx	r3, r9, #0, #20
 8009230:	b35a      	cbz	r2, 800928a <_strtod_l+0x8ea>
 8009232:	4a99      	ldr	r2, [pc, #612]	; (8009498 <_strtod_l+0xaf8>)
 8009234:	4293      	cmp	r3, r2
 8009236:	d12b      	bne.n	8009290 <_strtod_l+0x8f0>
 8009238:	9b05      	ldr	r3, [sp, #20]
 800923a:	4641      	mov	r1, r8
 800923c:	b303      	cbz	r3, 8009280 <_strtod_l+0x8e0>
 800923e:	464a      	mov	r2, r9
 8009240:	4b96      	ldr	r3, [pc, #600]	; (800949c <_strtod_l+0xafc>)
 8009242:	4013      	ands	r3, r2
 8009244:	f1b3 6fd4 	cmp.w	r3, #111149056	; 0x6a00000
 8009248:	f04f 32ff 	mov.w	r2, #4294967295
 800924c:	d81b      	bhi.n	8009286 <_strtod_l+0x8e6>
 800924e:	0d1b      	lsrs	r3, r3, #20
 8009250:	f1c3 036b 	rsb	r3, r3, #107	; 0x6b
 8009254:	fa02 f303 	lsl.w	r3, r2, r3
 8009258:	4299      	cmp	r1, r3
 800925a:	d119      	bne.n	8009290 <_strtod_l+0x8f0>
 800925c:	4b90      	ldr	r3, [pc, #576]	; (80094a0 <_strtod_l+0xb00>)
 800925e:	9a09      	ldr	r2, [sp, #36]	; 0x24
 8009260:	429a      	cmp	r2, r3
 8009262:	d102      	bne.n	800926a <_strtod_l+0x8ca>
 8009264:	3101      	adds	r1, #1
 8009266:	f43f adda 	beq.w	8008e1e <_strtod_l+0x47e>
 800926a:	f04f 0800 	mov.w	r8, #0
 800926e:	4b8b      	ldr	r3, [pc, #556]	; (800949c <_strtod_l+0xafc>)
 8009270:	9a09      	ldr	r2, [sp, #36]	; 0x24
 8009272:	401a      	ands	r2, r3
 8009274:	f502 1980 	add.w	r9, r2, #1048576	; 0x100000
 8009278:	9b05      	ldr	r3, [sp, #20]
 800927a:	2b00      	cmp	r3, #0
 800927c:	d19a      	bne.n	80091b4 <_strtod_l+0x814>
 800927e:	e5d9      	b.n	8008e34 <_strtod_l+0x494>
 8009280:	f04f 33ff 	mov.w	r3, #4294967295
 8009284:	e7e8      	b.n	8009258 <_strtod_l+0x8b8>
 8009286:	4613      	mov	r3, r2
 8009288:	e7e6      	b.n	8009258 <_strtod_l+0x8b8>
 800928a:	ea53 0308 	orrs.w	r3, r3, r8
 800928e:	d081      	beq.n	8009194 <_strtod_l+0x7f4>
 8009290:	b1e5      	cbz	r5, 80092cc <_strtod_l+0x92c>
 8009292:	9b09      	ldr	r3, [sp, #36]	; 0x24
 8009294:	421d      	tst	r5, r3
 8009296:	d0ef      	beq.n	8009278 <_strtod_l+0x8d8>
 8009298:	9b0b      	ldr	r3, [sp, #44]	; 0x2c
 800929a:	4640      	mov	r0, r8
 800929c:	4649      	mov	r1, r9
 800929e:	9a05      	ldr	r2, [sp, #20]
 80092a0:	b1c3      	cbz	r3, 80092d4 <_strtod_l+0x934>
 80092a2:	f7ff fb59 	bl	8008958 <sulp>
 80092a6:	4602      	mov	r2, r0
 80092a8:	460b      	mov	r3, r1
 80092aa:	e9dd 010c 	ldrd	r0, r1, [sp, #48]	; 0x30
 80092ae:	f7f6 ffc9 	bl	8000244 <__adddf3>
 80092b2:	4680      	mov	r8, r0
 80092b4:	4689      	mov	r9, r1
 80092b6:	e7df      	b.n	8009278 <_strtod_l+0x8d8>
 80092b8:	4013      	ands	r3, r2
 80092ba:	f5a3 1380 	sub.w	r3, r3, #1048576	; 0x100000
 80092be:	ea6f 5913 	mvn.w	r9, r3, lsr #20
 80092c2:	f04f 38ff 	mov.w	r8, #4294967295
 80092c6:	ea6f 5909 	mvn.w	r9, r9, lsl #20
 80092ca:	e7d5      	b.n	8009278 <_strtod_l+0x8d8>
 80092cc:	9b0f      	ldr	r3, [sp, #60]	; 0x3c
 80092ce:	ea13 0f08 	tst.w	r3, r8
 80092d2:	e7e0      	b.n	8009296 <_strtod_l+0x8f6>
 80092d4:	f7ff fb40 	bl	8008958 <sulp>
 80092d8:	4602      	mov	r2, r0
 80092da:	460b      	mov	r3, r1
 80092dc:	e9dd 010c 	ldrd	r0, r1, [sp, #48]	; 0x30
 80092e0:	f7f6 ffae 	bl	8000240 <__aeabi_dsub>
 80092e4:	2200      	movs	r2, #0
 80092e6:	2300      	movs	r3, #0
 80092e8:	4680      	mov	r8, r0
 80092ea:	4689      	mov	r9, r1
 80092ec:	f7f7 fbc8 	bl	8000a80 <__aeabi_dcmpeq>
 80092f0:	2800      	cmp	r0, #0
 80092f2:	d0c1      	beq.n	8009278 <_strtod_l+0x8d8>
 80092f4:	e608      	b.n	8008f08 <_strtod_l+0x568>
 80092f6:	4658      	mov	r0, fp
 80092f8:	9904      	ldr	r1, [sp, #16]
 80092fa:	f002 f81d 	bl	800b338 <__ratio>
 80092fe:	2200      	movs	r2, #0
 8009300:	f04f 4380 	mov.w	r3, #1073741824	; 0x40000000
 8009304:	4606      	mov	r6, r0
 8009306:	460f      	mov	r7, r1
 8009308:	f7f7 fbce 	bl	8000aa8 <__aeabi_dcmple>
 800930c:	2800      	cmp	r0, #0
 800930e:	d070      	beq.n	80093f2 <_strtod_l+0xa52>
 8009310:	9b0b      	ldr	r3, [sp, #44]	; 0x2c
 8009312:	2b00      	cmp	r3, #0
 8009314:	d042      	beq.n	800939c <_strtod_l+0x9fc>
 8009316:	2600      	movs	r6, #0
 8009318:	4f62      	ldr	r7, [pc, #392]	; (80094a4 <_strtod_l+0xb04>)
 800931a:	4d62      	ldr	r5, [pc, #392]	; (80094a4 <_strtod_l+0xb04>)
 800931c:	9b09      	ldr	r3, [sp, #36]	; 0x24
 800931e:	f023 4300 	bic.w	r3, r3, #2147483648	; 0x80000000
 8009322:	0d1b      	lsrs	r3, r3, #20
 8009324:	051b      	lsls	r3, r3, #20
 8009326:	930f      	str	r3, [sp, #60]	; 0x3c
 8009328:	9a0f      	ldr	r2, [sp, #60]	; 0x3c
 800932a:	4b5f      	ldr	r3, [pc, #380]	; (80094a8 <_strtod_l+0xb08>)
 800932c:	429a      	cmp	r2, r3
 800932e:	f040 80c3 	bne.w	80094b8 <_strtod_l+0xb18>
 8009332:	9b09      	ldr	r3, [sp, #36]	; 0x24
 8009334:	4640      	mov	r0, r8
 8009336:	f1a3 7954 	sub.w	r9, r3, #55574528	; 0x3500000
 800933a:	4649      	mov	r1, r9
 800933c:	f001 ff26 	bl	800b18c <__ulp>
 8009340:	4602      	mov	r2, r0
 8009342:	460b      	mov	r3, r1
 8009344:	4630      	mov	r0, r6
 8009346:	4639      	mov	r1, r7
 8009348:	f7f7 f932 	bl	80005b0 <__aeabi_dmul>
 800934c:	4642      	mov	r2, r8
 800934e:	464b      	mov	r3, r9
 8009350:	f7f6 ff78 	bl	8000244 <__adddf3>
 8009354:	460b      	mov	r3, r1
 8009356:	4951      	ldr	r1, [pc, #324]	; (800949c <_strtod_l+0xafc>)
 8009358:	4a54      	ldr	r2, [pc, #336]	; (80094ac <_strtod_l+0xb0c>)
 800935a:	4019      	ands	r1, r3
 800935c:	4291      	cmp	r1, r2
 800935e:	4680      	mov	r8, r0
 8009360:	d95d      	bls.n	800941e <_strtod_l+0xa7e>
 8009362:	9a0d      	ldr	r2, [sp, #52]	; 0x34
 8009364:	4b4e      	ldr	r3, [pc, #312]	; (80094a0 <_strtod_l+0xb00>)
 8009366:	429a      	cmp	r2, r3
 8009368:	d103      	bne.n	8009372 <_strtod_l+0x9d2>
 800936a:	9b0c      	ldr	r3, [sp, #48]	; 0x30
 800936c:	3301      	adds	r3, #1
 800936e:	f43f ad56 	beq.w	8008e1e <_strtod_l+0x47e>
 8009372:	f04f 38ff 	mov.w	r8, #4294967295
 8009376:	f8df 9128 	ldr.w	r9, [pc, #296]	; 80094a0 <_strtod_l+0xb00>
 800937a:	4650      	mov	r0, sl
 800937c:	991a      	ldr	r1, [sp, #104]	; 0x68
 800937e:	f001 fbd5 	bl	800ab2c <_Bfree>
 8009382:	4650      	mov	r0, sl
 8009384:	9906      	ldr	r1, [sp, #24]
 8009386:	f001 fbd1 	bl	800ab2c <_Bfree>
 800938a:	4650      	mov	r0, sl
 800938c:	9904      	ldr	r1, [sp, #16]
 800938e:	f001 fbcd 	bl	800ab2c <_Bfree>
 8009392:	4659      	mov	r1, fp
 8009394:	4650      	mov	r0, sl
 8009396:	f001 fbc9 	bl	800ab2c <_Bfree>
 800939a:	e627      	b.n	8008fec <_strtod_l+0x64c>
 800939c:	f1b8 0f00 	cmp.w	r8, #0
 80093a0:	d119      	bne.n	80093d6 <_strtod_l+0xa36>
 80093a2:	9b09      	ldr	r3, [sp, #36]	; 0x24
 80093a4:	f3c3 0313 	ubfx	r3, r3, #0, #20
 80093a8:	b9e3      	cbnz	r3, 80093e4 <_strtod_l+0xa44>
 80093aa:	2200      	movs	r2, #0
 80093ac:	4630      	mov	r0, r6
 80093ae:	4639      	mov	r1, r7
 80093b0:	4b3c      	ldr	r3, [pc, #240]	; (80094a4 <_strtod_l+0xb04>)
 80093b2:	f7f7 fb6f 	bl	8000a94 <__aeabi_dcmplt>
 80093b6:	b9c8      	cbnz	r0, 80093ec <_strtod_l+0xa4c>
 80093b8:	2200      	movs	r2, #0
 80093ba:	4630      	mov	r0, r6
 80093bc:	4639      	mov	r1, r7
 80093be:	4b3c      	ldr	r3, [pc, #240]	; (80094b0 <_strtod_l+0xb10>)
 80093c0:	f7f7 f8f6 	bl	80005b0 <__aeabi_dmul>
 80093c4:	4604      	mov	r4, r0
 80093c6:	460d      	mov	r5, r1
 80093c8:	f105 4300 	add.w	r3, r5, #2147483648	; 0x80000000
 80093cc:	9416      	str	r4, [sp, #88]	; 0x58
 80093ce:	9317      	str	r3, [sp, #92]	; 0x5c
 80093d0:	e9dd 6716 	ldrd	r6, r7, [sp, #88]	; 0x58
 80093d4:	e7a2      	b.n	800931c <_strtod_l+0x97c>
 80093d6:	f1b8 0f01 	cmp.w	r8, #1
 80093da:	d103      	bne.n	80093e4 <_strtod_l+0xa44>
 80093dc:	9b09      	ldr	r3, [sp, #36]	; 0x24
 80093de:	2b00      	cmp	r3, #0
 80093e0:	f43f ad92 	beq.w	8008f08 <_strtod_l+0x568>
 80093e4:	2600      	movs	r6, #0
 80093e6:	2400      	movs	r4, #0
 80093e8:	4f32      	ldr	r7, [pc, #200]	; (80094b4 <_strtod_l+0xb14>)
 80093ea:	e796      	b.n	800931a <_strtod_l+0x97a>
 80093ec:	9c0b      	ldr	r4, [sp, #44]	; 0x2c
 80093ee:	4d30      	ldr	r5, [pc, #192]	; (80094b0 <_strtod_l+0xb10>)
 80093f0:	e7ea      	b.n	80093c8 <_strtod_l+0xa28>
 80093f2:	4b2f      	ldr	r3, [pc, #188]	; (80094b0 <_strtod_l+0xb10>)
 80093f4:	2200      	movs	r2, #0
 80093f6:	4630      	mov	r0, r6
 80093f8:	4639      	mov	r1, r7
 80093fa:	f7f7 f8d9 	bl	80005b0 <__aeabi_dmul>
 80093fe:	9b0b      	ldr	r3, [sp, #44]	; 0x2c
 8009400:	4604      	mov	r4, r0
 8009402:	460d      	mov	r5, r1
 8009404:	b933      	cbnz	r3, 8009414 <_strtod_l+0xa74>
 8009406:	f101 4300 	add.w	r3, r1, #2147483648	; 0x80000000
 800940a:	9010      	str	r0, [sp, #64]	; 0x40
 800940c:	9311      	str	r3, [sp, #68]	; 0x44
 800940e:	e9dd 6710 	ldrd	r6, r7, [sp, #64]	; 0x40
 8009412:	e783      	b.n	800931c <_strtod_l+0x97c>
 8009414:	4602      	mov	r2, r0
 8009416:	460b      	mov	r3, r1
 8009418:	e9cd 2310 	strd	r2, r3, [sp, #64]	; 0x40
 800941c:	e7f7      	b.n	800940e <_strtod_l+0xa6e>
 800941e:	f103 7954 	add.w	r9, r3, #55574528	; 0x3500000
 8009422:	9b05      	ldr	r3, [sp, #20]
 8009424:	2b00      	cmp	r3, #0
 8009426:	d1a8      	bne.n	800937a <_strtod_l+0x9da>
 8009428:	f029 4300 	bic.w	r3, r9, #2147483648	; 0x80000000
 800942c:	9a0f      	ldr	r2, [sp, #60]	; 0x3c
 800942e:	0d1b      	lsrs	r3, r3, #20
 8009430:	051b      	lsls	r3, r3, #20
 8009432:	429a      	cmp	r2, r3
 8009434:	d1a1      	bne.n	800937a <_strtod_l+0x9da>
 8009436:	4620      	mov	r0, r4
 8009438:	4629      	mov	r1, r5
 800943a:	f7f7 fc01 	bl	8000c40 <__aeabi_d2lz>
 800943e:	f7f7 f889 	bl	8000554 <__aeabi_l2d>
 8009442:	4602      	mov	r2, r0
 8009444:	460b      	mov	r3, r1
 8009446:	4620      	mov	r0, r4
 8009448:	4629      	mov	r1, r5
 800944a:	f7f6 fef9 	bl	8000240 <__aeabi_dsub>
 800944e:	9a0b      	ldr	r2, [sp, #44]	; 0x2c
 8009450:	f3c9 0313 	ubfx	r3, r9, #0, #20
 8009454:	ea43 0308 	orr.w	r3, r3, r8
 8009458:	4313      	orrs	r3, r2
 800945a:	4604      	mov	r4, r0
 800945c:	460d      	mov	r5, r1
 800945e:	d066      	beq.n	800952e <_strtod_l+0xb8e>
 8009460:	a309      	add	r3, pc, #36	; (adr r3, 8009488 <_strtod_l+0xae8>)
 8009462:	e9d3 2300 	ldrd	r2, r3, [r3]
 8009466:	f7f7 fb15 	bl	8000a94 <__aeabi_dcmplt>
 800946a:	2800      	cmp	r0, #0
 800946c:	f47f ace2 	bne.w	8008e34 <_strtod_l+0x494>
 8009470:	a307      	add	r3, pc, #28	; (adr r3, 8009490 <_strtod_l+0xaf0>)
 8009472:	e9d3 2300 	ldrd	r2, r3, [r3]
 8009476:	4620      	mov	r0, r4
 8009478:	4629      	mov	r1, r5
 800947a:	f7f7 fb29 	bl	8000ad0 <__aeabi_dcmpgt>
 800947e:	2800      	cmp	r0, #0
 8009480:	f43f af7b 	beq.w	800937a <_strtod_l+0x9da>
 8009484:	e4d6      	b.n	8008e34 <_strtod_l+0x494>
 8009486:	bf00      	nop
 8009488:	94a03595 	.word	0x94a03595
 800948c:	3fdfffff 	.word	0x3fdfffff
 8009490:	35afe535 	.word	0x35afe535
 8009494:	3fe00000 	.word	0x3fe00000
 8009498:	000fffff 	.word	0x000fffff
 800949c:	7ff00000 	.word	0x7ff00000
 80094a0:	7fefffff 	.word	0x7fefffff
 80094a4:	3ff00000 	.word	0x3ff00000
 80094a8:	7fe00000 	.word	0x7fe00000
 80094ac:	7c9fffff 	.word	0x7c9fffff
 80094b0:	3fe00000 	.word	0x3fe00000
 80094b4:	bff00000 	.word	0xbff00000
 80094b8:	9b05      	ldr	r3, [sp, #20]
 80094ba:	b313      	cbz	r3, 8009502 <_strtod_l+0xb62>
 80094bc:	9b0f      	ldr	r3, [sp, #60]	; 0x3c
 80094be:	f1b3 6fd4 	cmp.w	r3, #111149056	; 0x6a00000
 80094c2:	d81e      	bhi.n	8009502 <_strtod_l+0xb62>
 80094c4:	a326      	add	r3, pc, #152	; (adr r3, 8009560 <_strtod_l+0xbc0>)
 80094c6:	e9d3 2300 	ldrd	r2, r3, [r3]
 80094ca:	4620      	mov	r0, r4
 80094cc:	4629      	mov	r1, r5
 80094ce:	f7f7 faeb 	bl	8000aa8 <__aeabi_dcmple>
 80094d2:	b190      	cbz	r0, 80094fa <_strtod_l+0xb5a>
 80094d4:	4629      	mov	r1, r5
 80094d6:	4620      	mov	r0, r4
 80094d8:	f7f7 fb42 	bl	8000b60 <__aeabi_d2uiz>
 80094dc:	2801      	cmp	r0, #1
 80094de:	bf38      	it	cc
 80094e0:	2001      	movcc	r0, #1
 80094e2:	f7f6 ffeb 	bl	80004bc <__aeabi_ui2d>
 80094e6:	9b0b      	ldr	r3, [sp, #44]	; 0x2c
 80094e8:	4604      	mov	r4, r0
 80094ea:	460d      	mov	r5, r1
 80094ec:	b9d3      	cbnz	r3, 8009524 <_strtod_l+0xb84>
 80094ee:	f101 4300 	add.w	r3, r1, #2147483648	; 0x80000000
 80094f2:	9012      	str	r0, [sp, #72]	; 0x48
 80094f4:	9313      	str	r3, [sp, #76]	; 0x4c
 80094f6:	e9dd 6712 	ldrd	r6, r7, [sp, #72]	; 0x48
 80094fa:	9a0f      	ldr	r2, [sp, #60]	; 0x3c
 80094fc:	f107 63d6 	add.w	r3, r7, #112197632	; 0x6b00000
 8009500:	1a9f      	subs	r7, r3, r2
 8009502:	e9dd 010c 	ldrd	r0, r1, [sp, #48]	; 0x30
 8009506:	f001 fe41 	bl	800b18c <__ulp>
 800950a:	4602      	mov	r2, r0
 800950c:	460b      	mov	r3, r1
 800950e:	4630      	mov	r0, r6
 8009510:	4639      	mov	r1, r7
 8009512:	f7f7 f84d 	bl	80005b0 <__aeabi_dmul>
 8009516:	e9dd 230c 	ldrd	r2, r3, [sp, #48]	; 0x30
 800951a:	f7f6 fe93 	bl	8000244 <__adddf3>
 800951e:	4680      	mov	r8, r0
 8009520:	4689      	mov	r9, r1
 8009522:	e77e      	b.n	8009422 <_strtod_l+0xa82>
 8009524:	4602      	mov	r2, r0
 8009526:	460b      	mov	r3, r1
 8009528:	e9cd 2312 	strd	r2, r3, [sp, #72]	; 0x48
 800952c:	e7e3      	b.n	80094f6 <_strtod_l+0xb56>
 800952e:	a30e      	add	r3, pc, #56	; (adr r3, 8009568 <_strtod_l+0xbc8>)
 8009530:	e9d3 2300 	ldrd	r2, r3, [r3]
 8009534:	f7f7 faae 	bl	8000a94 <__aeabi_dcmplt>
 8009538:	e7a1      	b.n	800947e <_strtod_l+0xade>
 800953a:	2300      	movs	r3, #0
 800953c:	930a      	str	r3, [sp, #40]	; 0x28
 800953e:	9b19      	ldr	r3, [sp, #100]	; 0x64
 8009540:	9a15      	ldr	r2, [sp, #84]	; 0x54
 8009542:	6013      	str	r3, [r2, #0]
 8009544:	f7ff ba71 	b.w	8008a2a <_strtod_l+0x8a>
 8009548:	2a65      	cmp	r2, #101	; 0x65
 800954a:	f43f ab63 	beq.w	8008c14 <_strtod_l+0x274>
 800954e:	2a45      	cmp	r2, #69	; 0x45
 8009550:	f43f ab60 	beq.w	8008c14 <_strtod_l+0x274>
 8009554:	2301      	movs	r3, #1
 8009556:	f7ff bb95 	b.w	8008c84 <_strtod_l+0x2e4>
 800955a:	bf00      	nop
 800955c:	f3af 8000 	nop.w
 8009560:	ffc00000 	.word	0xffc00000
 8009564:	41dfffff 	.word	0x41dfffff
 8009568:	94a03595 	.word	0x94a03595
 800956c:	3fcfffff 	.word	0x3fcfffff

08009570 <_strtod_r>:
 8009570:	4b01      	ldr	r3, [pc, #4]	; (8009578 <_strtod_r+0x8>)
 8009572:	f7ff ba15 	b.w	80089a0 <_strtod_l>
 8009576:	bf00      	nop
 8009578:	2000007c 	.word	0x2000007c

0800957c <_strtol_l.constprop.0>:
 800957c:	2b01      	cmp	r3, #1
 800957e:	e92d 47f0 	stmdb	sp!, {r4, r5, r6, r7, r8, r9, sl, lr}
 8009582:	4680      	mov	r8, r0
 8009584:	d001      	beq.n	800958a <_strtol_l.constprop.0+0xe>
 8009586:	2b24      	cmp	r3, #36	; 0x24
 8009588:	d906      	bls.n	8009598 <_strtol_l.constprop.0+0x1c>
 800958a:	f7fe fb21 	bl	8007bd0 <__errno>
 800958e:	2316      	movs	r3, #22
 8009590:	6003      	str	r3, [r0, #0]
 8009592:	2000      	movs	r0, #0
 8009594:	e8bd 87f0 	ldmia.w	sp!, {r4, r5, r6, r7, r8, r9, sl, pc}
 8009598:	460d      	mov	r5, r1
 800959a:	4f35      	ldr	r7, [pc, #212]	; (8009670 <_strtol_l.constprop.0+0xf4>)
 800959c:	4628      	mov	r0, r5
 800959e:	f815 4b01 	ldrb.w	r4, [r5], #1
 80095a2:	5de6      	ldrb	r6, [r4, r7]
 80095a4:	f016 0608 	ands.w	r6, r6, #8
 80095a8:	d1f8      	bne.n	800959c <_strtol_l.constprop.0+0x20>
 80095aa:	2c2d      	cmp	r4, #45	; 0x2d
 80095ac:	d12f      	bne.n	800960e <_strtol_l.constprop.0+0x92>
 80095ae:	2601      	movs	r6, #1
 80095b0:	782c      	ldrb	r4, [r5, #0]
 80095b2:	1c85      	adds	r5, r0, #2
 80095b4:	2b00      	cmp	r3, #0
 80095b6:	d057      	beq.n	8009668 <_strtol_l.constprop.0+0xec>
 80095b8:	2b10      	cmp	r3, #16
 80095ba:	d109      	bne.n	80095d0 <_strtol_l.constprop.0+0x54>
 80095bc:	2c30      	cmp	r4, #48	; 0x30
 80095be:	d107      	bne.n	80095d0 <_strtol_l.constprop.0+0x54>
 80095c0:	7828      	ldrb	r0, [r5, #0]
 80095c2:	f000 00df 	and.w	r0, r0, #223	; 0xdf
 80095c6:	2858      	cmp	r0, #88	; 0x58
 80095c8:	d149      	bne.n	800965e <_strtol_l.constprop.0+0xe2>
 80095ca:	2310      	movs	r3, #16
 80095cc:	786c      	ldrb	r4, [r5, #1]
 80095ce:	3502      	adds	r5, #2
 80095d0:	2700      	movs	r7, #0
 80095d2:	f106 4e00 	add.w	lr, r6, #2147483648	; 0x80000000
 80095d6:	f10e 3eff 	add.w	lr, lr, #4294967295
 80095da:	fbbe f9f3 	udiv	r9, lr, r3
 80095de:	4638      	mov	r0, r7
 80095e0:	fb03 ea19 	mls	sl, r3, r9, lr
 80095e4:	f1a4 0c30 	sub.w	ip, r4, #48	; 0x30
 80095e8:	f1bc 0f09 	cmp.w	ip, #9
 80095ec:	d814      	bhi.n	8009618 <_strtol_l.constprop.0+0x9c>
 80095ee:	4664      	mov	r4, ip
 80095f0:	42a3      	cmp	r3, r4
 80095f2:	dd22      	ble.n	800963a <_strtol_l.constprop.0+0xbe>
 80095f4:	2f00      	cmp	r7, #0
 80095f6:	db1d      	blt.n	8009634 <_strtol_l.constprop.0+0xb8>
 80095f8:	4581      	cmp	r9, r0
 80095fa:	d31b      	bcc.n	8009634 <_strtol_l.constprop.0+0xb8>
 80095fc:	d101      	bne.n	8009602 <_strtol_l.constprop.0+0x86>
 80095fe:	45a2      	cmp	sl, r4
 8009600:	db18      	blt.n	8009634 <_strtol_l.constprop.0+0xb8>
 8009602:	2701      	movs	r7, #1
 8009604:	fb00 4003 	mla	r0, r0, r3, r4
 8009608:	f815 4b01 	ldrb.w	r4, [r5], #1
 800960c:	e7ea      	b.n	80095e4 <_strtol_l.constprop.0+0x68>
 800960e:	2c2b      	cmp	r4, #43	; 0x2b
 8009610:	bf04      	itt	eq
 8009612:	782c      	ldrbeq	r4, [r5, #0]
 8009614:	1c85      	addeq	r5, r0, #2
 8009616:	e7cd      	b.n	80095b4 <_strtol_l.constprop.0+0x38>
 8009618:	f1a4 0c41 	sub.w	ip, r4, #65	; 0x41
 800961c:	f1bc 0f19 	cmp.w	ip, #25
 8009620:	d801      	bhi.n	8009626 <_strtol_l.constprop.0+0xaa>
 8009622:	3c37      	subs	r4, #55	; 0x37
 8009624:	e7e4      	b.n	80095f0 <_strtol_l.constprop.0+0x74>
 8009626:	f1a4 0c61 	sub.w	ip, r4, #97	; 0x61
 800962a:	f1bc 0f19 	cmp.w	ip, #25
 800962e:	d804      	bhi.n	800963a <_strtol_l.constprop.0+0xbe>
 8009630:	3c57      	subs	r4, #87	; 0x57
 8009632:	e7dd      	b.n	80095f0 <_strtol_l.constprop.0+0x74>
 8009634:	f04f 37ff 	mov.w	r7, #4294967295
 8009638:	e7e6      	b.n	8009608 <_strtol_l.constprop.0+0x8c>
 800963a:	2f00      	cmp	r7, #0
 800963c:	da07      	bge.n	800964e <_strtol_l.constprop.0+0xd2>
 800963e:	2322      	movs	r3, #34	; 0x22
 8009640:	4670      	mov	r0, lr
 8009642:	f8c8 3000 	str.w	r3, [r8]
 8009646:	2a00      	cmp	r2, #0
 8009648:	d0a4      	beq.n	8009594 <_strtol_l.constprop.0+0x18>
 800964a:	1e69      	subs	r1, r5, #1
 800964c:	e005      	b.n	800965a <_strtol_l.constprop.0+0xde>
 800964e:	b106      	cbz	r6, 8009652 <_strtol_l.constprop.0+0xd6>
 8009650:	4240      	negs	r0, r0
 8009652:	2a00      	cmp	r2, #0
 8009654:	d09e      	beq.n	8009594 <_strtol_l.constprop.0+0x18>
 8009656:	2f00      	cmp	r7, #0
 8009658:	d1f7      	bne.n	800964a <_strtol_l.constprop.0+0xce>
 800965a:	6011      	str	r1, [r2, #0]
 800965c:	e79a      	b.n	8009594 <_strtol_l.constprop.0+0x18>
 800965e:	2430      	movs	r4, #48	; 0x30
 8009660:	2b00      	cmp	r3, #0
 8009662:	d1b5      	bne.n	80095d0 <_strtol_l.constprop.0+0x54>
 8009664:	2308      	movs	r3, #8
 8009666:	e7b3      	b.n	80095d0 <_strtol_l.constprop.0+0x54>
 8009668:	2c30      	cmp	r4, #48	; 0x30
 800966a:	d0a9      	beq.n	80095c0 <_strtol_l.constprop.0+0x44>
 800966c:	230a      	movs	r3, #10
 800966e:	e7af      	b.n	80095d0 <_strtol_l.constprop.0+0x54>
 8009670:	0800dde1 	.word	0x0800dde1

08009674 <_strtol_r>:
 8009674:	f7ff bf82 	b.w	800957c <_strtol_l.constprop.0>

08009678 <quorem>:
 8009678:	e92d 4ff7 	stmdb	sp!, {r0, r1, r2, r4, r5, r6, r7, r8, r9, sl, fp, lr}
 800967c:	6903      	ldr	r3, [r0, #16]
 800967e:	690c      	ldr	r4, [r1, #16]
 8009680:	4607      	mov	r7, r0
 8009682:	42a3      	cmp	r3, r4
 8009684:	f2c0 8082 	blt.w	800978c <quorem+0x114>
 8009688:	3c01      	subs	r4, #1
 800968a:	f100 0514 	add.w	r5, r0, #20
 800968e:	f101 0814 	add.w	r8, r1, #20
 8009692:	eb05 0384 	add.w	r3, r5, r4, lsl #2
 8009696:	9301      	str	r3, [sp, #4]
 8009698:	f858 3024 	ldr.w	r3, [r8, r4, lsl #2]
 800969c:	f855 2024 	ldr.w	r2, [r5, r4, lsl #2]
 80096a0:	3301      	adds	r3, #1
 80096a2:	429a      	cmp	r2, r3
 80096a4:	fbb2 f6f3 	udiv	r6, r2, r3
 80096a8:	ea4f 0b84 	mov.w	fp, r4, lsl #2
 80096ac:	eb08 0984 	add.w	r9, r8, r4, lsl #2
 80096b0:	d331      	bcc.n	8009716 <quorem+0x9e>
 80096b2:	f04f 0e00 	mov.w	lr, #0
 80096b6:	4640      	mov	r0, r8
 80096b8:	46ac      	mov	ip, r5
 80096ba:	46f2      	mov	sl, lr
 80096bc:	f850 2b04 	ldr.w	r2, [r0], #4
 80096c0:	b293      	uxth	r3, r2
 80096c2:	fb06 e303 	mla	r3, r6, r3, lr
 80096c6:	0c12      	lsrs	r2, r2, #16
 80096c8:	ea4f 4e13 	mov.w	lr, r3, lsr #16
 80096cc:	b29b      	uxth	r3, r3
 80096ce:	fb06 e202 	mla	r2, r6, r2, lr
 80096d2:	ebaa 0303 	sub.w	r3, sl, r3
 80096d6:	f8dc a000 	ldr.w	sl, [ip]
 80096da:	ea4f 4e12 	mov.w	lr, r2, lsr #16
 80096de:	fa1f fa8a 	uxth.w	sl, sl
 80096e2:	4453      	add	r3, sl
 80096e4:	f8dc a000 	ldr.w	sl, [ip]
 80096e8:	b292      	uxth	r2, r2
 80096ea:	ebc2 421a 	rsb	r2, r2, sl, lsr #16
 80096ee:	eb02 4223 	add.w	r2, r2, r3, asr #16
 80096f2:	b29b      	uxth	r3, r3
 80096f4:	ea43 4302 	orr.w	r3, r3, r2, lsl #16
 80096f8:	4581      	cmp	r9, r0
 80096fa:	ea4f 4a22 	mov.w	sl, r2, asr #16
 80096fe:	f84c 3b04 	str.w	r3, [ip], #4
 8009702:	d2db      	bcs.n	80096bc <quorem+0x44>
 8009704:	f855 300b 	ldr.w	r3, [r5, fp]
 8009708:	b92b      	cbnz	r3, 8009716 <quorem+0x9e>
 800970a:	9b01      	ldr	r3, [sp, #4]
 800970c:	3b04      	subs	r3, #4
 800970e:	429d      	cmp	r5, r3
 8009710:	461a      	mov	r2, r3
 8009712:	d32f      	bcc.n	8009774 <quorem+0xfc>
 8009714:	613c      	str	r4, [r7, #16]
 8009716:	4638      	mov	r0, r7
 8009718:	f001 fc90 	bl	800b03c <__mcmp>
 800971c:	2800      	cmp	r0, #0
 800971e:	db25      	blt.n	800976c <quorem+0xf4>
 8009720:	4628      	mov	r0, r5
 8009722:	f04f 0c00 	mov.w	ip, #0
 8009726:	3601      	adds	r6, #1
 8009728:	f858 1b04 	ldr.w	r1, [r8], #4
 800972c:	f8d0 e000 	ldr.w	lr, [r0]
 8009730:	b28b      	uxth	r3, r1
 8009732:	ebac 0303 	sub.w	r3, ip, r3
 8009736:	fa1f f28e 	uxth.w	r2, lr
 800973a:	4413      	add	r3, r2
 800973c:	0c0a      	lsrs	r2, r1, #16
 800973e:	ebc2 421e 	rsb	r2, r2, lr, lsr #16
 8009742:	eb02 4223 	add.w	r2, r2, r3, asr #16
 8009746:	b29b      	uxth	r3, r3
 8009748:	ea43 4302 	orr.w	r3, r3, r2, lsl #16
 800974c:	45c1      	cmp	r9, r8
 800974e:	ea4f 4c22 	mov.w	ip, r2, asr #16
 8009752:	f840 3b04 	str.w	r3, [r0], #4
 8009756:	d2e7      	bcs.n	8009728 <quorem+0xb0>
 8009758:	f855 2024 	ldr.w	r2, [r5, r4, lsl #2]
 800975c:	eb05 0384 	add.w	r3, r5, r4, lsl #2
 8009760:	b922      	cbnz	r2, 800976c <quorem+0xf4>
 8009762:	3b04      	subs	r3, #4
 8009764:	429d      	cmp	r5, r3
 8009766:	461a      	mov	r2, r3
 8009768:	d30a      	bcc.n	8009780 <quorem+0x108>
 800976a:	613c      	str	r4, [r7, #16]
 800976c:	4630      	mov	r0, r6
 800976e:	b003      	add	sp, #12
 8009770:	e8bd 8ff0 	ldmia.w	sp!, {r4, r5, r6, r7, r8, r9, sl, fp, pc}
 8009774:	6812      	ldr	r2, [r2, #0]
 8009776:	3b04      	subs	r3, #4
 8009778:	2a00      	cmp	r2, #0
 800977a:	d1cb      	bne.n	8009714 <quorem+0x9c>
 800977c:	3c01      	subs	r4, #1
 800977e:	e7c6      	b.n	800970e <quorem+0x96>
 8009780:	6812      	ldr	r2, [r2, #0]
 8009782:	3b04      	subs	r3, #4
 8009784:	2a00      	cmp	r2, #0
 8009786:	d1f0      	bne.n	800976a <quorem+0xf2>
 8009788:	3c01      	subs	r4, #1
 800978a:	e7eb      	b.n	8009764 <quorem+0xec>
 800978c:	2000      	movs	r0, #0
 800978e:	e7ee      	b.n	800976e <quorem+0xf6>

08009790 <_dtoa_r>:
 8009790:	e92d 4ff0 	stmdb	sp!, {r4, r5, r6, r7, r8, r9, sl, fp, lr}
 8009794:	4616      	mov	r6, r2
 8009796:	461f      	mov	r7, r3
 8009798:	6a44      	ldr	r4, [r0, #36]	; 0x24
 800979a:	b099      	sub	sp, #100	; 0x64
 800979c:	4605      	mov	r5, r0
 800979e:	e9cd 6704 	strd	r6, r7, [sp, #16]
 80097a2:	f8dd 8094 	ldr.w	r8, [sp, #148]	; 0x94
 80097a6:	b974      	cbnz	r4, 80097c6 <_dtoa_r+0x36>
 80097a8:	2010      	movs	r0, #16
 80097aa:	f001 f949 	bl	800aa40 <malloc>
 80097ae:	4602      	mov	r2, r0
 80097b0:	6268      	str	r0, [r5, #36]	; 0x24
 80097b2:	b920      	cbnz	r0, 80097be <_dtoa_r+0x2e>
 80097b4:	21ea      	movs	r1, #234	; 0xea
 80097b6:	4ba8      	ldr	r3, [pc, #672]	; (8009a58 <_dtoa_r+0x2c8>)
 80097b8:	48a8      	ldr	r0, [pc, #672]	; (8009a5c <_dtoa_r+0x2cc>)
 80097ba:	f002 f8b3 	bl	800b924 <__assert_func>
 80097be:	e9c0 4401 	strd	r4, r4, [r0, #4]
 80097c2:	6004      	str	r4, [r0, #0]
 80097c4:	60c4      	str	r4, [r0, #12]
 80097c6:	6a6b      	ldr	r3, [r5, #36]	; 0x24
 80097c8:	6819      	ldr	r1, [r3, #0]
 80097ca:	b151      	cbz	r1, 80097e2 <_dtoa_r+0x52>
 80097cc:	685a      	ldr	r2, [r3, #4]
 80097ce:	2301      	movs	r3, #1
 80097d0:	4093      	lsls	r3, r2
 80097d2:	604a      	str	r2, [r1, #4]
 80097d4:	608b      	str	r3, [r1, #8]
 80097d6:	4628      	mov	r0, r5
 80097d8:	f001 f9a8 	bl	800ab2c <_Bfree>
 80097dc:	2200      	movs	r2, #0
 80097de:	6a6b      	ldr	r3, [r5, #36]	; 0x24
 80097e0:	601a      	str	r2, [r3, #0]
 80097e2:	1e3b      	subs	r3, r7, #0
 80097e4:	bfaf      	iteee	ge
 80097e6:	2300      	movge	r3, #0
 80097e8:	2201      	movlt	r2, #1
 80097ea:	f023 4300 	biclt.w	r3, r3, #2147483648	; 0x80000000
 80097ee:	9305      	strlt	r3, [sp, #20]
 80097f0:	bfa8      	it	ge
 80097f2:	f8c8 3000 	strge.w	r3, [r8]
 80097f6:	f8dd 9014 	ldr.w	r9, [sp, #20]
 80097fa:	4b99      	ldr	r3, [pc, #612]	; (8009a60 <_dtoa_r+0x2d0>)
 80097fc:	bfb8      	it	lt
 80097fe:	f8c8 2000 	strlt.w	r2, [r8]
 8009802:	ea33 0309 	bics.w	r3, r3, r9
 8009806:	d119      	bne.n	800983c <_dtoa_r+0xac>
 8009808:	f242 730f 	movw	r3, #9999	; 0x270f
 800980c:	9a24      	ldr	r2, [sp, #144]	; 0x90
 800980e:	6013      	str	r3, [r2, #0]
 8009810:	f3c9 0313 	ubfx	r3, r9, #0, #20
 8009814:	4333      	orrs	r3, r6
 8009816:	f000 857f 	beq.w	800a318 <_dtoa_r+0xb88>
 800981a:	9b26      	ldr	r3, [sp, #152]	; 0x98
 800981c:	b953      	cbnz	r3, 8009834 <_dtoa_r+0xa4>
 800981e:	4b91      	ldr	r3, [pc, #580]	; (8009a64 <_dtoa_r+0x2d4>)
 8009820:	e022      	b.n	8009868 <_dtoa_r+0xd8>
 8009822:	4b91      	ldr	r3, [pc, #580]	; (8009a68 <_dtoa_r+0x2d8>)
 8009824:	9303      	str	r3, [sp, #12]
 8009826:	3308      	adds	r3, #8
 8009828:	9a26      	ldr	r2, [sp, #152]	; 0x98
 800982a:	6013      	str	r3, [r2, #0]
 800982c:	9803      	ldr	r0, [sp, #12]
 800982e:	b019      	add	sp, #100	; 0x64
 8009830:	e8bd 8ff0 	ldmia.w	sp!, {r4, r5, r6, r7, r8, r9, sl, fp, pc}
 8009834:	4b8b      	ldr	r3, [pc, #556]	; (8009a64 <_dtoa_r+0x2d4>)
 8009836:	9303      	str	r3, [sp, #12]
 8009838:	3303      	adds	r3, #3
 800983a:	e7f5      	b.n	8009828 <_dtoa_r+0x98>
 800983c:	e9dd 3404 	ldrd	r3, r4, [sp, #16]
 8009840:	e9cd 340c 	strd	r3, r4, [sp, #48]	; 0x30
 8009844:	e9dd 010c 	ldrd	r0, r1, [sp, #48]	; 0x30
 8009848:	2200      	movs	r2, #0
 800984a:	2300      	movs	r3, #0
 800984c:	f7f7 f918 	bl	8000a80 <__aeabi_dcmpeq>
 8009850:	4680      	mov	r8, r0
 8009852:	b158      	cbz	r0, 800986c <_dtoa_r+0xdc>
 8009854:	2301      	movs	r3, #1
 8009856:	9a24      	ldr	r2, [sp, #144]	; 0x90
 8009858:	6013      	str	r3, [r2, #0]
 800985a:	9b26      	ldr	r3, [sp, #152]	; 0x98
 800985c:	2b00      	cmp	r3, #0
 800985e:	f000 8558 	beq.w	800a312 <_dtoa_r+0xb82>
 8009862:	4882      	ldr	r0, [pc, #520]	; (8009a6c <_dtoa_r+0x2dc>)
 8009864:	6018      	str	r0, [r3, #0]
 8009866:	1e43      	subs	r3, r0, #1
 8009868:	9303      	str	r3, [sp, #12]
 800986a:	e7df      	b.n	800982c <_dtoa_r+0x9c>
 800986c:	ab16      	add	r3, sp, #88	; 0x58
 800986e:	9301      	str	r3, [sp, #4]
 8009870:	ab17      	add	r3, sp, #92	; 0x5c
 8009872:	9300      	str	r3, [sp, #0]
 8009874:	4628      	mov	r0, r5
 8009876:	e9dd 230c 	ldrd	r2, r3, [sp, #48]	; 0x30
 800987a:	f001 fd01 	bl	800b280 <__d2b>
 800987e:	f3c9 540a 	ubfx	r4, r9, #20, #11
 8009882:	4683      	mov	fp, r0
 8009884:	2c00      	cmp	r4, #0
 8009886:	d07f      	beq.n	8009988 <_dtoa_r+0x1f8>
 8009888:	e9dd 010c 	ldrd	r0, r1, [sp, #48]	; 0x30
 800988c:	9b0d      	ldr	r3, [sp, #52]	; 0x34
 800988e:	f2a4 34ff 	subw	r4, r4, #1023	; 0x3ff
 8009892:	f3c3 0313 	ubfx	r3, r3, #0, #20
 8009896:	f043 517f 	orr.w	r1, r3, #1069547520	; 0x3fc00000
 800989a:	f441 1140 	orr.w	r1, r1, #3145728	; 0x300000
 800989e:	f8cd 804c 	str.w	r8, [sp, #76]	; 0x4c
 80098a2:	2200      	movs	r2, #0
 80098a4:	4b72      	ldr	r3, [pc, #456]	; (8009a70 <_dtoa_r+0x2e0>)
 80098a6:	f7f6 fccb 	bl	8000240 <__aeabi_dsub>
 80098aa:	a365      	add	r3, pc, #404	; (adr r3, 8009a40 <_dtoa_r+0x2b0>)
 80098ac:	e9d3 2300 	ldrd	r2, r3, [r3]
 80098b0:	f7f6 fe7e 	bl	80005b0 <__aeabi_dmul>
 80098b4:	a364      	add	r3, pc, #400	; (adr r3, 8009a48 <_dtoa_r+0x2b8>)
 80098b6:	e9d3 2300 	ldrd	r2, r3, [r3]
 80098ba:	f7f6 fcc3 	bl	8000244 <__adddf3>
 80098be:	4606      	mov	r6, r0
 80098c0:	4620      	mov	r0, r4
 80098c2:	460f      	mov	r7, r1
 80098c4:	f7f6 fe0a 	bl	80004dc <__aeabi_i2d>
 80098c8:	a361      	add	r3, pc, #388	; (adr r3, 8009a50 <_dtoa_r+0x2c0>)
 80098ca:	e9d3 2300 	ldrd	r2, r3, [r3]
 80098ce:	f7f6 fe6f 	bl	80005b0 <__aeabi_dmul>
 80098d2:	4602      	mov	r2, r0
 80098d4:	460b      	mov	r3, r1
 80098d6:	4630      	mov	r0, r6
 80098d8:	4639      	mov	r1, r7
 80098da:	f7f6 fcb3 	bl	8000244 <__adddf3>
 80098de:	4606      	mov	r6, r0
 80098e0:	460f      	mov	r7, r1
 80098e2:	f7f7 f915 	bl	8000b10 <__aeabi_d2iz>
 80098e6:	2200      	movs	r2, #0
 80098e8:	4682      	mov	sl, r0
 80098ea:	2300      	movs	r3, #0
 80098ec:	4630      	mov	r0, r6
 80098ee:	4639      	mov	r1, r7
 80098f0:	f7f7 f8d0 	bl	8000a94 <__aeabi_dcmplt>
 80098f4:	b148      	cbz	r0, 800990a <_dtoa_r+0x17a>
 80098f6:	4650      	mov	r0, sl
 80098f8:	f7f6 fdf0 	bl	80004dc <__aeabi_i2d>
 80098fc:	4632      	mov	r2, r6
 80098fe:	463b      	mov	r3, r7
 8009900:	f7f7 f8be 	bl	8000a80 <__aeabi_dcmpeq>
 8009904:	b908      	cbnz	r0, 800990a <_dtoa_r+0x17a>
 8009906:	f10a 3aff 	add.w	sl, sl, #4294967295
 800990a:	f1ba 0f16 	cmp.w	sl, #22
 800990e:	d858      	bhi.n	80099c2 <_dtoa_r+0x232>
 8009910:	e9dd 010c 	ldrd	r0, r1, [sp, #48]	; 0x30
 8009914:	4b57      	ldr	r3, [pc, #348]	; (8009a74 <_dtoa_r+0x2e4>)
 8009916:	eb03 03ca 	add.w	r3, r3, sl, lsl #3
 800991a:	e9d3 2300 	ldrd	r2, r3, [r3]
 800991e:	f7f7 f8b9 	bl	8000a94 <__aeabi_dcmplt>
 8009922:	2800      	cmp	r0, #0
 8009924:	d04f      	beq.n	80099c6 <_dtoa_r+0x236>
 8009926:	2300      	movs	r3, #0
 8009928:	f10a 3aff 	add.w	sl, sl, #4294967295
 800992c:	930f      	str	r3, [sp, #60]	; 0x3c
 800992e:	9b16      	ldr	r3, [sp, #88]	; 0x58
 8009930:	1b1c      	subs	r4, r3, r4
 8009932:	1e63      	subs	r3, r4, #1
 8009934:	9309      	str	r3, [sp, #36]	; 0x24
 8009936:	bf49      	itett	mi
 8009938:	f1c4 0301 	rsbmi	r3, r4, #1
 800993c:	2300      	movpl	r3, #0
 800993e:	9306      	strmi	r3, [sp, #24]
 8009940:	2300      	movmi	r3, #0
 8009942:	bf54      	ite	pl
 8009944:	9306      	strpl	r3, [sp, #24]
 8009946:	9309      	strmi	r3, [sp, #36]	; 0x24
 8009948:	f1ba 0f00 	cmp.w	sl, #0
 800994c:	db3d      	blt.n	80099ca <_dtoa_r+0x23a>
 800994e:	9b09      	ldr	r3, [sp, #36]	; 0x24
 8009950:	f8cd a038 	str.w	sl, [sp, #56]	; 0x38
 8009954:	4453      	add	r3, sl
 8009956:	9309      	str	r3, [sp, #36]	; 0x24
 8009958:	2300      	movs	r3, #0
 800995a:	930a      	str	r3, [sp, #40]	; 0x28
 800995c:	9b22      	ldr	r3, [sp, #136]	; 0x88
 800995e:	2b09      	cmp	r3, #9
 8009960:	f200 808c 	bhi.w	8009a7c <_dtoa_r+0x2ec>
 8009964:	2b05      	cmp	r3, #5
 8009966:	bfc4      	itt	gt
 8009968:	3b04      	subgt	r3, #4
 800996a:	9322      	strgt	r3, [sp, #136]	; 0x88
 800996c:	9b22      	ldr	r3, [sp, #136]	; 0x88
 800996e:	bfc8      	it	gt
 8009970:	2400      	movgt	r4, #0
 8009972:	f1a3 0302 	sub.w	r3, r3, #2
 8009976:	bfd8      	it	le
 8009978:	2401      	movle	r4, #1
 800997a:	2b03      	cmp	r3, #3
 800997c:	f200 808a 	bhi.w	8009a94 <_dtoa_r+0x304>
 8009980:	e8df f003 	tbb	[pc, r3]
 8009984:	5b4d4f2d 	.word	0x5b4d4f2d
 8009988:	e9dd 4316 	ldrd	r4, r3, [sp, #88]	; 0x58
 800998c:	441c      	add	r4, r3
 800998e:	f204 4332 	addw	r3, r4, #1074	; 0x432
 8009992:	2b20      	cmp	r3, #32
 8009994:	bfc3      	ittte	gt
 8009996:	f1c3 0340 	rsbgt	r3, r3, #64	; 0x40
 800999a:	f204 4012 	addwgt	r0, r4, #1042	; 0x412
 800999e:	fa09 f303 	lslgt.w	r3, r9, r3
 80099a2:	f1c3 0320 	rsble	r3, r3, #32
 80099a6:	bfc6      	itte	gt
 80099a8:	fa26 f000 	lsrgt.w	r0, r6, r0
 80099ac:	4318      	orrgt	r0, r3
 80099ae:	fa06 f003 	lslle.w	r0, r6, r3
 80099b2:	f7f6 fd83 	bl	80004bc <__aeabi_ui2d>
 80099b6:	2301      	movs	r3, #1
 80099b8:	f1a1 71f8 	sub.w	r1, r1, #32505856	; 0x1f00000
 80099bc:	3c01      	subs	r4, #1
 80099be:	9313      	str	r3, [sp, #76]	; 0x4c
 80099c0:	e76f      	b.n	80098a2 <_dtoa_r+0x112>
 80099c2:	2301      	movs	r3, #1
 80099c4:	e7b2      	b.n	800992c <_dtoa_r+0x19c>
 80099c6:	900f      	str	r0, [sp, #60]	; 0x3c
 80099c8:	e7b1      	b.n	800992e <_dtoa_r+0x19e>
 80099ca:	9b06      	ldr	r3, [sp, #24]
 80099cc:	eba3 030a 	sub.w	r3, r3, sl
 80099d0:	9306      	str	r3, [sp, #24]
 80099d2:	f1ca 0300 	rsb	r3, sl, #0
 80099d6:	930a      	str	r3, [sp, #40]	; 0x28
 80099d8:	2300      	movs	r3, #0
 80099da:	930e      	str	r3, [sp, #56]	; 0x38
 80099dc:	e7be      	b.n	800995c <_dtoa_r+0x1cc>
 80099de:	2300      	movs	r3, #0
 80099e0:	930b      	str	r3, [sp, #44]	; 0x2c
 80099e2:	9b23      	ldr	r3, [sp, #140]	; 0x8c
 80099e4:	2b00      	cmp	r3, #0
 80099e6:	dc58      	bgt.n	8009a9a <_dtoa_r+0x30a>
 80099e8:	f04f 0901 	mov.w	r9, #1
 80099ec:	464b      	mov	r3, r9
 80099ee:	f8cd 9020 	str.w	r9, [sp, #32]
 80099f2:	f8cd 908c 	str.w	r9, [sp, #140]	; 0x8c
 80099f6:	2200      	movs	r2, #0
 80099f8:	6a68      	ldr	r0, [r5, #36]	; 0x24
 80099fa:	6042      	str	r2, [r0, #4]
 80099fc:	2204      	movs	r2, #4
 80099fe:	f102 0614 	add.w	r6, r2, #20
 8009a02:	429e      	cmp	r6, r3
 8009a04:	6841      	ldr	r1, [r0, #4]
 8009a06:	d94e      	bls.n	8009aa6 <_dtoa_r+0x316>
 8009a08:	4628      	mov	r0, r5
 8009a0a:	f001 f84f 	bl	800aaac <_Balloc>
 8009a0e:	9003      	str	r0, [sp, #12]
 8009a10:	2800      	cmp	r0, #0
 8009a12:	d14c      	bne.n	8009aae <_dtoa_r+0x31e>
 8009a14:	4602      	mov	r2, r0
 8009a16:	f44f 71d5 	mov.w	r1, #426	; 0x1aa
 8009a1a:	4b17      	ldr	r3, [pc, #92]	; (8009a78 <_dtoa_r+0x2e8>)
 8009a1c:	e6cc      	b.n	80097b8 <_dtoa_r+0x28>
 8009a1e:	2301      	movs	r3, #1
 8009a20:	e7de      	b.n	80099e0 <_dtoa_r+0x250>
 8009a22:	2300      	movs	r3, #0
 8009a24:	930b      	str	r3, [sp, #44]	; 0x2c
 8009a26:	9b23      	ldr	r3, [sp, #140]	; 0x8c
 8009a28:	eb0a 0903 	add.w	r9, sl, r3
 8009a2c:	f109 0301 	add.w	r3, r9, #1
 8009a30:	2b01      	cmp	r3, #1
 8009a32:	9308      	str	r3, [sp, #32]
 8009a34:	bfb8      	it	lt
 8009a36:	2301      	movlt	r3, #1
 8009a38:	e7dd      	b.n	80099f6 <_dtoa_r+0x266>
 8009a3a:	2301      	movs	r3, #1
 8009a3c:	e7f2      	b.n	8009a24 <_dtoa_r+0x294>
 8009a3e:	bf00      	nop
 8009a40:	636f4361 	.word	0x636f4361
 8009a44:	3fd287a7 	.word	0x3fd287a7
 8009a48:	8b60c8b3 	.word	0x8b60c8b3
 8009a4c:	3fc68a28 	.word	0x3fc68a28
 8009a50:	509f79fb 	.word	0x509f79fb
 8009a54:	3fd34413 	.word	0x3fd34413
 8009a58:	0800deee 	.word	0x0800deee
 8009a5c:	0800df05 	.word	0x0800df05
 8009a60:	7ff00000 	.word	0x7ff00000
 8009a64:	0800deea 	.word	0x0800deea
 8009a68:	0800dee1 	.word	0x0800dee1
 8009a6c:	0800dd61 	.word	0x0800dd61
 8009a70:	3ff80000 	.word	0x3ff80000
 8009a74:	0800e070 	.word	0x0800e070
 8009a78:	0800df60 	.word	0x0800df60
 8009a7c:	2401      	movs	r4, #1
 8009a7e:	2300      	movs	r3, #0
 8009a80:	940b      	str	r4, [sp, #44]	; 0x2c
 8009a82:	9322      	str	r3, [sp, #136]	; 0x88
 8009a84:	f04f 39ff 	mov.w	r9, #4294967295
 8009a88:	2200      	movs	r2, #0
 8009a8a:	2312      	movs	r3, #18
 8009a8c:	f8cd 9020 	str.w	r9, [sp, #32]
 8009a90:	9223      	str	r2, [sp, #140]	; 0x8c
 8009a92:	e7b0      	b.n	80099f6 <_dtoa_r+0x266>
 8009a94:	2301      	movs	r3, #1
 8009a96:	930b      	str	r3, [sp, #44]	; 0x2c
 8009a98:	e7f4      	b.n	8009a84 <_dtoa_r+0x2f4>
 8009a9a:	f8dd 908c 	ldr.w	r9, [sp, #140]	; 0x8c
 8009a9e:	464b      	mov	r3, r9
 8009aa0:	f8cd 9020 	str.w	r9, [sp, #32]
 8009aa4:	e7a7      	b.n	80099f6 <_dtoa_r+0x266>
 8009aa6:	3101      	adds	r1, #1
 8009aa8:	6041      	str	r1, [r0, #4]
 8009aaa:	0052      	lsls	r2, r2, #1
 8009aac:	e7a7      	b.n	80099fe <_dtoa_r+0x26e>
 8009aae:	6a6b      	ldr	r3, [r5, #36]	; 0x24
 8009ab0:	9a03      	ldr	r2, [sp, #12]
 8009ab2:	601a      	str	r2, [r3, #0]
 8009ab4:	9b08      	ldr	r3, [sp, #32]
 8009ab6:	2b0e      	cmp	r3, #14
 8009ab8:	f200 80a8 	bhi.w	8009c0c <_dtoa_r+0x47c>
 8009abc:	2c00      	cmp	r4, #0
 8009abe:	f000 80a5 	beq.w	8009c0c <_dtoa_r+0x47c>
 8009ac2:	f1ba 0f00 	cmp.w	sl, #0
 8009ac6:	dd34      	ble.n	8009b32 <_dtoa_r+0x3a2>
 8009ac8:	4a9a      	ldr	r2, [pc, #616]	; (8009d34 <_dtoa_r+0x5a4>)
 8009aca:	f00a 030f 	and.w	r3, sl, #15
 8009ace:	eb02 03c3 	add.w	r3, r2, r3, lsl #3
 8009ad2:	f41a 7f80 	tst.w	sl, #256	; 0x100
 8009ad6:	e9d3 3400 	ldrd	r3, r4, [r3]
 8009ada:	e9cd 3410 	strd	r3, r4, [sp, #64]	; 0x40
 8009ade:	ea4f 142a 	mov.w	r4, sl, asr #4
 8009ae2:	d016      	beq.n	8009b12 <_dtoa_r+0x382>
 8009ae4:	e9dd 010c 	ldrd	r0, r1, [sp, #48]	; 0x30
 8009ae8:	4b93      	ldr	r3, [pc, #588]	; (8009d38 <_dtoa_r+0x5a8>)
 8009aea:	2703      	movs	r7, #3
 8009aec:	e9d3 2308 	ldrd	r2, r3, [r3, #32]
 8009af0:	f7f6 fe88 	bl	8000804 <__aeabi_ddiv>
 8009af4:	e9cd 0104 	strd	r0, r1, [sp, #16]
 8009af8:	f004 040f 	and.w	r4, r4, #15
 8009afc:	4e8e      	ldr	r6, [pc, #568]	; (8009d38 <_dtoa_r+0x5a8>)
 8009afe:	b954      	cbnz	r4, 8009b16 <_dtoa_r+0x386>
 8009b00:	e9dd 2310 	ldrd	r2, r3, [sp, #64]	; 0x40
 8009b04:	e9dd 0104 	ldrd	r0, r1, [sp, #16]
 8009b08:	f7f6 fe7c 	bl	8000804 <__aeabi_ddiv>
 8009b0c:	e9cd 0104 	strd	r0, r1, [sp, #16]
 8009b10:	e029      	b.n	8009b66 <_dtoa_r+0x3d6>
 8009b12:	2702      	movs	r7, #2
 8009b14:	e7f2      	b.n	8009afc <_dtoa_r+0x36c>
 8009b16:	07e1      	lsls	r1, r4, #31
 8009b18:	d508      	bpl.n	8009b2c <_dtoa_r+0x39c>
 8009b1a:	e9dd 0110 	ldrd	r0, r1, [sp, #64]	; 0x40
 8009b1e:	e9d6 2300 	ldrd	r2, r3, [r6]
 8009b22:	f7f6 fd45 	bl	80005b0 <__aeabi_dmul>
 8009b26:	e9cd 0110 	strd	r0, r1, [sp, #64]	; 0x40
 8009b2a:	3701      	adds	r7, #1
 8009b2c:	1064      	asrs	r4, r4, #1
 8009b2e:	3608      	adds	r6, #8
 8009b30:	e7e5      	b.n	8009afe <_dtoa_r+0x36e>
 8009b32:	f000 80a5 	beq.w	8009c80 <_dtoa_r+0x4f0>
 8009b36:	e9dd 010c 	ldrd	r0, r1, [sp, #48]	; 0x30
 8009b3a:	f1ca 0400 	rsb	r4, sl, #0
 8009b3e:	4b7d      	ldr	r3, [pc, #500]	; (8009d34 <_dtoa_r+0x5a4>)
 8009b40:	f004 020f 	and.w	r2, r4, #15
 8009b44:	eb03 03c2 	add.w	r3, r3, r2, lsl #3
 8009b48:	e9d3 2300 	ldrd	r2, r3, [r3]
 8009b4c:	f7f6 fd30 	bl	80005b0 <__aeabi_dmul>
 8009b50:	2702      	movs	r7, #2
 8009b52:	2300      	movs	r3, #0
 8009b54:	e9cd 0104 	strd	r0, r1, [sp, #16]
 8009b58:	4e77      	ldr	r6, [pc, #476]	; (8009d38 <_dtoa_r+0x5a8>)
 8009b5a:	1124      	asrs	r4, r4, #4
 8009b5c:	2c00      	cmp	r4, #0
 8009b5e:	f040 8084 	bne.w	8009c6a <_dtoa_r+0x4da>
 8009b62:	2b00      	cmp	r3, #0
 8009b64:	d1d2      	bne.n	8009b0c <_dtoa_r+0x37c>
 8009b66:	9b0f      	ldr	r3, [sp, #60]	; 0x3c
 8009b68:	2b00      	cmp	r3, #0
 8009b6a:	f000 808b 	beq.w	8009c84 <_dtoa_r+0x4f4>
 8009b6e:	e9dd 3404 	ldrd	r3, r4, [sp, #16]
 8009b72:	e9cd 3410 	strd	r3, r4, [sp, #64]	; 0x40
 8009b76:	e9dd 0110 	ldrd	r0, r1, [sp, #64]	; 0x40
 8009b7a:	2200      	movs	r2, #0
 8009b7c:	4b6f      	ldr	r3, [pc, #444]	; (8009d3c <_dtoa_r+0x5ac>)
 8009b7e:	f7f6 ff89 	bl	8000a94 <__aeabi_dcmplt>
 8009b82:	2800      	cmp	r0, #0
 8009b84:	d07e      	beq.n	8009c84 <_dtoa_r+0x4f4>
 8009b86:	9b08      	ldr	r3, [sp, #32]
 8009b88:	2b00      	cmp	r3, #0
 8009b8a:	d07b      	beq.n	8009c84 <_dtoa_r+0x4f4>
 8009b8c:	f1b9 0f00 	cmp.w	r9, #0
 8009b90:	dd38      	ble.n	8009c04 <_dtoa_r+0x474>
 8009b92:	e9dd 0110 	ldrd	r0, r1, [sp, #64]	; 0x40
 8009b96:	2200      	movs	r2, #0
 8009b98:	4b69      	ldr	r3, [pc, #420]	; (8009d40 <_dtoa_r+0x5b0>)
 8009b9a:	f7f6 fd09 	bl	80005b0 <__aeabi_dmul>
 8009b9e:	464c      	mov	r4, r9
 8009ba0:	e9cd 0104 	strd	r0, r1, [sp, #16]
 8009ba4:	f10a 38ff 	add.w	r8, sl, #4294967295
 8009ba8:	3701      	adds	r7, #1
 8009baa:	4638      	mov	r0, r7
 8009bac:	f7f6 fc96 	bl	80004dc <__aeabi_i2d>
 8009bb0:	e9dd 2304 	ldrd	r2, r3, [sp, #16]
 8009bb4:	f7f6 fcfc 	bl	80005b0 <__aeabi_dmul>
 8009bb8:	2200      	movs	r2, #0
 8009bba:	4b62      	ldr	r3, [pc, #392]	; (8009d44 <_dtoa_r+0x5b4>)
 8009bbc:	f7f6 fb42 	bl	8000244 <__adddf3>
 8009bc0:	f1a1 7650 	sub.w	r6, r1, #54525952	; 0x3400000
 8009bc4:	e9cd 0110 	strd	r0, r1, [sp, #64]	; 0x40
 8009bc8:	9611      	str	r6, [sp, #68]	; 0x44
 8009bca:	2c00      	cmp	r4, #0
 8009bcc:	d15d      	bne.n	8009c8a <_dtoa_r+0x4fa>
 8009bce:	e9dd 0104 	ldrd	r0, r1, [sp, #16]
 8009bd2:	2200      	movs	r2, #0
 8009bd4:	4b5c      	ldr	r3, [pc, #368]	; (8009d48 <_dtoa_r+0x5b8>)
 8009bd6:	f7f6 fb33 	bl	8000240 <__aeabi_dsub>
 8009bda:	4602      	mov	r2, r0
 8009bdc:	460b      	mov	r3, r1
 8009bde:	e9cd 2304 	strd	r2, r3, [sp, #16]
 8009be2:	4633      	mov	r3, r6
 8009be4:	9a10      	ldr	r2, [sp, #64]	; 0x40
 8009be6:	f7f6 ff73 	bl	8000ad0 <__aeabi_dcmpgt>
 8009bea:	2800      	cmp	r0, #0
 8009bec:	f040 829c 	bne.w	800a128 <_dtoa_r+0x998>
 8009bf0:	e9dd 0104 	ldrd	r0, r1, [sp, #16]
 8009bf4:	9a10      	ldr	r2, [sp, #64]	; 0x40
 8009bf6:	f106 4300 	add.w	r3, r6, #2147483648	; 0x80000000
 8009bfa:	f7f6 ff4b 	bl	8000a94 <__aeabi_dcmplt>
 8009bfe:	2800      	cmp	r0, #0
 8009c00:	f040 8290 	bne.w	800a124 <_dtoa_r+0x994>
 8009c04:	e9dd 340c 	ldrd	r3, r4, [sp, #48]	; 0x30
 8009c08:	e9cd 3404 	strd	r3, r4, [sp, #16]
 8009c0c:	9b17      	ldr	r3, [sp, #92]	; 0x5c
 8009c0e:	2b00      	cmp	r3, #0
 8009c10:	f2c0 8152 	blt.w	8009eb8 <_dtoa_r+0x728>
 8009c14:	f1ba 0f0e 	cmp.w	sl, #14
 8009c18:	f300 814e 	bgt.w	8009eb8 <_dtoa_r+0x728>
 8009c1c:	4b45      	ldr	r3, [pc, #276]	; (8009d34 <_dtoa_r+0x5a4>)
 8009c1e:	eb03 03ca 	add.w	r3, r3, sl, lsl #3
 8009c22:	e9d3 3400 	ldrd	r3, r4, [r3]
 8009c26:	e9cd 3406 	strd	r3, r4, [sp, #24]
 8009c2a:	9b23      	ldr	r3, [sp, #140]	; 0x8c
 8009c2c:	2b00      	cmp	r3, #0
 8009c2e:	f280 80db 	bge.w	8009de8 <_dtoa_r+0x658>
 8009c32:	9b08      	ldr	r3, [sp, #32]
 8009c34:	2b00      	cmp	r3, #0
 8009c36:	f300 80d7 	bgt.w	8009de8 <_dtoa_r+0x658>
 8009c3a:	f040 8272 	bne.w	800a122 <_dtoa_r+0x992>
 8009c3e:	e9dd 0106 	ldrd	r0, r1, [sp, #24]
 8009c42:	2200      	movs	r2, #0
 8009c44:	4b40      	ldr	r3, [pc, #256]	; (8009d48 <_dtoa_r+0x5b8>)
 8009c46:	f7f6 fcb3 	bl	80005b0 <__aeabi_dmul>
 8009c4a:	e9dd 2304 	ldrd	r2, r3, [sp, #16]
 8009c4e:	f7f6 ff35 	bl	8000abc <__aeabi_dcmpge>
 8009c52:	9c08      	ldr	r4, [sp, #32]
 8009c54:	4626      	mov	r6, r4
 8009c56:	2800      	cmp	r0, #0
 8009c58:	f040 8248 	bne.w	800a0ec <_dtoa_r+0x95c>
 8009c5c:	2331      	movs	r3, #49	; 0x31
 8009c5e:	9f03      	ldr	r7, [sp, #12]
 8009c60:	f10a 0a01 	add.w	sl, sl, #1
 8009c64:	f807 3b01 	strb.w	r3, [r7], #1
 8009c68:	e244      	b.n	800a0f4 <_dtoa_r+0x964>
 8009c6a:	07e2      	lsls	r2, r4, #31
 8009c6c:	d505      	bpl.n	8009c7a <_dtoa_r+0x4ea>
 8009c6e:	e9d6 2300 	ldrd	r2, r3, [r6]
 8009c72:	f7f6 fc9d 	bl	80005b0 <__aeabi_dmul>
 8009c76:	2301      	movs	r3, #1
 8009c78:	3701      	adds	r7, #1
 8009c7a:	1064      	asrs	r4, r4, #1
 8009c7c:	3608      	adds	r6, #8
 8009c7e:	e76d      	b.n	8009b5c <_dtoa_r+0x3cc>
 8009c80:	2702      	movs	r7, #2
 8009c82:	e770      	b.n	8009b66 <_dtoa_r+0x3d6>
 8009c84:	46d0      	mov	r8, sl
 8009c86:	9c08      	ldr	r4, [sp, #32]
 8009c88:	e78f      	b.n	8009baa <_dtoa_r+0x41a>
 8009c8a:	9903      	ldr	r1, [sp, #12]
 8009c8c:	4b29      	ldr	r3, [pc, #164]	; (8009d34 <_dtoa_r+0x5a4>)
 8009c8e:	4421      	add	r1, r4
 8009c90:	9112      	str	r1, [sp, #72]	; 0x48
 8009c92:	990b      	ldr	r1, [sp, #44]	; 0x2c
 8009c94:	eb03 03c4 	add.w	r3, r3, r4, lsl #3
 8009c98:	e9dd 6710 	ldrd	r6, r7, [sp, #64]	; 0x40
 8009c9c:	e953 2302 	ldrd	r2, r3, [r3, #-8]
 8009ca0:	2900      	cmp	r1, #0
 8009ca2:	d055      	beq.n	8009d50 <_dtoa_r+0x5c0>
 8009ca4:	2000      	movs	r0, #0
 8009ca6:	4929      	ldr	r1, [pc, #164]	; (8009d4c <_dtoa_r+0x5bc>)
 8009ca8:	f7f6 fdac 	bl	8000804 <__aeabi_ddiv>
 8009cac:	463b      	mov	r3, r7
 8009cae:	4632      	mov	r2, r6
 8009cb0:	f7f6 fac6 	bl	8000240 <__aeabi_dsub>
 8009cb4:	e9cd 0110 	strd	r0, r1, [sp, #64]	; 0x40
 8009cb8:	9f03      	ldr	r7, [sp, #12]
 8009cba:	e9dd 0104 	ldrd	r0, r1, [sp, #16]
 8009cbe:	f7f6 ff27 	bl	8000b10 <__aeabi_d2iz>
 8009cc2:	4604      	mov	r4, r0
 8009cc4:	f7f6 fc0a 	bl	80004dc <__aeabi_i2d>
 8009cc8:	4602      	mov	r2, r0
 8009cca:	460b      	mov	r3, r1
 8009ccc:	e9dd 0104 	ldrd	r0, r1, [sp, #16]
 8009cd0:	f7f6 fab6 	bl	8000240 <__aeabi_dsub>
 8009cd4:	4602      	mov	r2, r0
 8009cd6:	460b      	mov	r3, r1
 8009cd8:	3430      	adds	r4, #48	; 0x30
 8009cda:	e9cd 2304 	strd	r2, r3, [sp, #16]
 8009cde:	e9dd 2310 	ldrd	r2, r3, [sp, #64]	; 0x40
 8009ce2:	f807 4b01 	strb.w	r4, [r7], #1
 8009ce6:	f7f6 fed5 	bl	8000a94 <__aeabi_dcmplt>
 8009cea:	2800      	cmp	r0, #0
 8009cec:	d174      	bne.n	8009dd8 <_dtoa_r+0x648>
 8009cee:	e9dd 2304 	ldrd	r2, r3, [sp, #16]
 8009cf2:	2000      	movs	r0, #0
 8009cf4:	4911      	ldr	r1, [pc, #68]	; (8009d3c <_dtoa_r+0x5ac>)
 8009cf6:	f7f6 faa3 	bl	8000240 <__aeabi_dsub>
 8009cfa:	e9dd 2310 	ldrd	r2, r3, [sp, #64]	; 0x40
 8009cfe:	f7f6 fec9 	bl	8000a94 <__aeabi_dcmplt>
 8009d02:	2800      	cmp	r0, #0
 8009d04:	f040 80b7 	bne.w	8009e76 <_dtoa_r+0x6e6>
 8009d08:	9b12      	ldr	r3, [sp, #72]	; 0x48
 8009d0a:	429f      	cmp	r7, r3
 8009d0c:	f43f af7a 	beq.w	8009c04 <_dtoa_r+0x474>
 8009d10:	e9dd 0110 	ldrd	r0, r1, [sp, #64]	; 0x40
 8009d14:	2200      	movs	r2, #0
 8009d16:	4b0a      	ldr	r3, [pc, #40]	; (8009d40 <_dtoa_r+0x5b0>)
 8009d18:	f7f6 fc4a 	bl	80005b0 <__aeabi_dmul>
 8009d1c:	2200      	movs	r2, #0
 8009d1e:	e9cd 0110 	strd	r0, r1, [sp, #64]	; 0x40
 8009d22:	e9dd 0104 	ldrd	r0, r1, [sp, #16]
 8009d26:	4b06      	ldr	r3, [pc, #24]	; (8009d40 <_dtoa_r+0x5b0>)
 8009d28:	f7f6 fc42 	bl	80005b0 <__aeabi_dmul>
 8009d2c:	e9cd 0104 	strd	r0, r1, [sp, #16]
 8009d30:	e7c3      	b.n	8009cba <_dtoa_r+0x52a>
 8009d32:	bf00      	nop
 8009d34:	0800e070 	.word	0x0800e070
 8009d38:	0800e048 	.word	0x0800e048
 8009d3c:	3ff00000 	.word	0x3ff00000
 8009d40:	40240000 	.word	0x40240000
 8009d44:	401c0000 	.word	0x401c0000
 8009d48:	40140000 	.word	0x40140000
 8009d4c:	3fe00000 	.word	0x3fe00000
 8009d50:	4630      	mov	r0, r6
 8009d52:	4639      	mov	r1, r7
 8009d54:	f7f6 fc2c 	bl	80005b0 <__aeabi_dmul>
 8009d58:	9b12      	ldr	r3, [sp, #72]	; 0x48
 8009d5a:	e9cd 0110 	strd	r0, r1, [sp, #64]	; 0x40
 8009d5e:	9c03      	ldr	r4, [sp, #12]
 8009d60:	9314      	str	r3, [sp, #80]	; 0x50
 8009d62:	e9dd 0104 	ldrd	r0, r1, [sp, #16]
 8009d66:	f7f6 fed3 	bl	8000b10 <__aeabi_d2iz>
 8009d6a:	9015      	str	r0, [sp, #84]	; 0x54
 8009d6c:	f7f6 fbb6 	bl	80004dc <__aeabi_i2d>
 8009d70:	4602      	mov	r2, r0
 8009d72:	460b      	mov	r3, r1
 8009d74:	e9dd 0104 	ldrd	r0, r1, [sp, #16]
 8009d78:	f7f6 fa62 	bl	8000240 <__aeabi_dsub>
 8009d7c:	9b15      	ldr	r3, [sp, #84]	; 0x54
 8009d7e:	4606      	mov	r6, r0
 8009d80:	3330      	adds	r3, #48	; 0x30
 8009d82:	f804 3b01 	strb.w	r3, [r4], #1
 8009d86:	9b12      	ldr	r3, [sp, #72]	; 0x48
 8009d88:	460f      	mov	r7, r1
 8009d8a:	429c      	cmp	r4, r3
 8009d8c:	f04f 0200 	mov.w	r2, #0
 8009d90:	d124      	bne.n	8009ddc <_dtoa_r+0x64c>
 8009d92:	e9dd 0110 	ldrd	r0, r1, [sp, #64]	; 0x40
 8009d96:	4bb0      	ldr	r3, [pc, #704]	; (800a058 <_dtoa_r+0x8c8>)
 8009d98:	f7f6 fa54 	bl	8000244 <__adddf3>
 8009d9c:	4602      	mov	r2, r0
 8009d9e:	460b      	mov	r3, r1
 8009da0:	4630      	mov	r0, r6
 8009da2:	4639      	mov	r1, r7
 8009da4:	f7f6 fe94 	bl	8000ad0 <__aeabi_dcmpgt>
 8009da8:	2800      	cmp	r0, #0
 8009daa:	d163      	bne.n	8009e74 <_dtoa_r+0x6e4>
 8009dac:	e9dd 2310 	ldrd	r2, r3, [sp, #64]	; 0x40
 8009db0:	2000      	movs	r0, #0
 8009db2:	49a9      	ldr	r1, [pc, #676]	; (800a058 <_dtoa_r+0x8c8>)
 8009db4:	f7f6 fa44 	bl	8000240 <__aeabi_dsub>
 8009db8:	4602      	mov	r2, r0
 8009dba:	460b      	mov	r3, r1
 8009dbc:	4630      	mov	r0, r6
 8009dbe:	4639      	mov	r1, r7
 8009dc0:	f7f6 fe68 	bl	8000a94 <__aeabi_dcmplt>
 8009dc4:	2800      	cmp	r0, #0
 8009dc6:	f43f af1d 	beq.w	8009c04 <_dtoa_r+0x474>
 8009dca:	9f14      	ldr	r7, [sp, #80]	; 0x50
 8009dcc:	1e7b      	subs	r3, r7, #1
 8009dce:	9314      	str	r3, [sp, #80]	; 0x50
 8009dd0:	f817 3c01 	ldrb.w	r3, [r7, #-1]
 8009dd4:	2b30      	cmp	r3, #48	; 0x30
 8009dd6:	d0f8      	beq.n	8009dca <_dtoa_r+0x63a>
 8009dd8:	46c2      	mov	sl, r8
 8009dda:	e03b      	b.n	8009e54 <_dtoa_r+0x6c4>
 8009ddc:	4b9f      	ldr	r3, [pc, #636]	; (800a05c <_dtoa_r+0x8cc>)
 8009dde:	f7f6 fbe7 	bl	80005b0 <__aeabi_dmul>
 8009de2:	e9cd 0104 	strd	r0, r1, [sp, #16]
 8009de6:	e7bc      	b.n	8009d62 <_dtoa_r+0x5d2>
 8009de8:	9f03      	ldr	r7, [sp, #12]
 8009dea:	e9dd 8904 	ldrd	r8, r9, [sp, #16]
 8009dee:	e9dd 2306 	ldrd	r2, r3, [sp, #24]
 8009df2:	4640      	mov	r0, r8
 8009df4:	4649      	mov	r1, r9
 8009df6:	f7f6 fd05 	bl	8000804 <__aeabi_ddiv>
 8009dfa:	f7f6 fe89 	bl	8000b10 <__aeabi_d2iz>
 8009dfe:	4604      	mov	r4, r0
 8009e00:	f7f6 fb6c 	bl	80004dc <__aeabi_i2d>
 8009e04:	e9dd 2306 	ldrd	r2, r3, [sp, #24]
 8009e08:	f7f6 fbd2 	bl	80005b0 <__aeabi_dmul>
 8009e0c:	4602      	mov	r2, r0
 8009e0e:	460b      	mov	r3, r1
 8009e10:	4640      	mov	r0, r8
 8009e12:	4649      	mov	r1, r9
 8009e14:	f7f6 fa14 	bl	8000240 <__aeabi_dsub>
 8009e18:	f104 0630 	add.w	r6, r4, #48	; 0x30
 8009e1c:	f807 6b01 	strb.w	r6, [r7], #1
 8009e20:	9e03      	ldr	r6, [sp, #12]
 8009e22:	f8dd c020 	ldr.w	ip, [sp, #32]
 8009e26:	1bbe      	subs	r6, r7, r6
 8009e28:	45b4      	cmp	ip, r6
 8009e2a:	4602      	mov	r2, r0
 8009e2c:	460b      	mov	r3, r1
 8009e2e:	d136      	bne.n	8009e9e <_dtoa_r+0x70e>
 8009e30:	f7f6 fa08 	bl	8000244 <__adddf3>
 8009e34:	e9dd 2306 	ldrd	r2, r3, [sp, #24]
 8009e38:	4680      	mov	r8, r0
 8009e3a:	4689      	mov	r9, r1
 8009e3c:	f7f6 fe48 	bl	8000ad0 <__aeabi_dcmpgt>
 8009e40:	bb58      	cbnz	r0, 8009e9a <_dtoa_r+0x70a>
 8009e42:	e9dd 2306 	ldrd	r2, r3, [sp, #24]
 8009e46:	4640      	mov	r0, r8
 8009e48:	4649      	mov	r1, r9
 8009e4a:	f7f6 fe19 	bl	8000a80 <__aeabi_dcmpeq>
 8009e4e:	b108      	cbz	r0, 8009e54 <_dtoa_r+0x6c4>
 8009e50:	07e1      	lsls	r1, r4, #31
 8009e52:	d422      	bmi.n	8009e9a <_dtoa_r+0x70a>
 8009e54:	4628      	mov	r0, r5
 8009e56:	4659      	mov	r1, fp
 8009e58:	f000 fe68 	bl	800ab2c <_Bfree>
 8009e5c:	2300      	movs	r3, #0
 8009e5e:	703b      	strb	r3, [r7, #0]
 8009e60:	9b24      	ldr	r3, [sp, #144]	; 0x90
 8009e62:	f10a 0001 	add.w	r0, sl, #1
 8009e66:	6018      	str	r0, [r3, #0]
 8009e68:	9b26      	ldr	r3, [sp, #152]	; 0x98
 8009e6a:	2b00      	cmp	r3, #0
 8009e6c:	f43f acde 	beq.w	800982c <_dtoa_r+0x9c>
 8009e70:	601f      	str	r7, [r3, #0]
 8009e72:	e4db      	b.n	800982c <_dtoa_r+0x9c>
 8009e74:	4627      	mov	r7, r4
 8009e76:	463b      	mov	r3, r7
 8009e78:	461f      	mov	r7, r3
 8009e7a:	f813 2d01 	ldrb.w	r2, [r3, #-1]!
 8009e7e:	2a39      	cmp	r2, #57	; 0x39
 8009e80:	d107      	bne.n	8009e92 <_dtoa_r+0x702>
 8009e82:	9a03      	ldr	r2, [sp, #12]
 8009e84:	429a      	cmp	r2, r3
 8009e86:	d1f7      	bne.n	8009e78 <_dtoa_r+0x6e8>
 8009e88:	2230      	movs	r2, #48	; 0x30
 8009e8a:	9903      	ldr	r1, [sp, #12]
 8009e8c:	f108 0801 	add.w	r8, r8, #1
 8009e90:	700a      	strb	r2, [r1, #0]
 8009e92:	781a      	ldrb	r2, [r3, #0]
 8009e94:	3201      	adds	r2, #1
 8009e96:	701a      	strb	r2, [r3, #0]
 8009e98:	e79e      	b.n	8009dd8 <_dtoa_r+0x648>
 8009e9a:	46d0      	mov	r8, sl
 8009e9c:	e7eb      	b.n	8009e76 <_dtoa_r+0x6e6>
 8009e9e:	2200      	movs	r2, #0
 8009ea0:	4b6e      	ldr	r3, [pc, #440]	; (800a05c <_dtoa_r+0x8cc>)
 8009ea2:	f7f6 fb85 	bl	80005b0 <__aeabi_dmul>
 8009ea6:	2200      	movs	r2, #0
 8009ea8:	2300      	movs	r3, #0
 8009eaa:	4680      	mov	r8, r0
 8009eac:	4689      	mov	r9, r1
 8009eae:	f7f6 fde7 	bl	8000a80 <__aeabi_dcmpeq>
 8009eb2:	2800      	cmp	r0, #0
 8009eb4:	d09b      	beq.n	8009dee <_dtoa_r+0x65e>
 8009eb6:	e7cd      	b.n	8009e54 <_dtoa_r+0x6c4>
 8009eb8:	9a0b      	ldr	r2, [sp, #44]	; 0x2c
 8009eba:	2a00      	cmp	r2, #0
 8009ebc:	f000 80d0 	beq.w	800a060 <_dtoa_r+0x8d0>
 8009ec0:	9a22      	ldr	r2, [sp, #136]	; 0x88
 8009ec2:	2a01      	cmp	r2, #1
 8009ec4:	f300 80ae 	bgt.w	800a024 <_dtoa_r+0x894>
 8009ec8:	9a13      	ldr	r2, [sp, #76]	; 0x4c
 8009eca:	2a00      	cmp	r2, #0
 8009ecc:	f000 80a6 	beq.w	800a01c <_dtoa_r+0x88c>
 8009ed0:	f203 4333 	addw	r3, r3, #1075	; 0x433
 8009ed4:	9c0a      	ldr	r4, [sp, #40]	; 0x28
 8009ed6:	9f06      	ldr	r7, [sp, #24]
 8009ed8:	9a06      	ldr	r2, [sp, #24]
 8009eda:	2101      	movs	r1, #1
 8009edc:	441a      	add	r2, r3
 8009ede:	9206      	str	r2, [sp, #24]
 8009ee0:	9a09      	ldr	r2, [sp, #36]	; 0x24
 8009ee2:	4628      	mov	r0, r5
 8009ee4:	441a      	add	r2, r3
 8009ee6:	9209      	str	r2, [sp, #36]	; 0x24
 8009ee8:	f000 ff20 	bl	800ad2c <__i2b>
 8009eec:	4606      	mov	r6, r0
 8009eee:	2f00      	cmp	r7, #0
 8009ef0:	dd0c      	ble.n	8009f0c <_dtoa_r+0x77c>
 8009ef2:	9b09      	ldr	r3, [sp, #36]	; 0x24
 8009ef4:	2b00      	cmp	r3, #0
 8009ef6:	dd09      	ble.n	8009f0c <_dtoa_r+0x77c>
 8009ef8:	42bb      	cmp	r3, r7
 8009efa:	bfa8      	it	ge
 8009efc:	463b      	movge	r3, r7
 8009efe:	9a06      	ldr	r2, [sp, #24]
 8009f00:	1aff      	subs	r7, r7, r3
 8009f02:	1ad2      	subs	r2, r2, r3
 8009f04:	9206      	str	r2, [sp, #24]
 8009f06:	9a09      	ldr	r2, [sp, #36]	; 0x24
 8009f08:	1ad3      	subs	r3, r2, r3
 8009f0a:	9309      	str	r3, [sp, #36]	; 0x24
 8009f0c:	9b0a      	ldr	r3, [sp, #40]	; 0x28
 8009f0e:	b1f3      	cbz	r3, 8009f4e <_dtoa_r+0x7be>
 8009f10:	9b0b      	ldr	r3, [sp, #44]	; 0x2c
 8009f12:	2b00      	cmp	r3, #0
 8009f14:	f000 80a8 	beq.w	800a068 <_dtoa_r+0x8d8>
 8009f18:	2c00      	cmp	r4, #0
 8009f1a:	dd10      	ble.n	8009f3e <_dtoa_r+0x7ae>
 8009f1c:	4631      	mov	r1, r6
 8009f1e:	4622      	mov	r2, r4
 8009f20:	4628      	mov	r0, r5
 8009f22:	f000 ffc1 	bl	800aea8 <__pow5mult>
 8009f26:	465a      	mov	r2, fp
 8009f28:	4601      	mov	r1, r0
 8009f2a:	4606      	mov	r6, r0
 8009f2c:	4628      	mov	r0, r5
 8009f2e:	f000 ff13 	bl	800ad58 <__multiply>
 8009f32:	4680      	mov	r8, r0
 8009f34:	4659      	mov	r1, fp
 8009f36:	4628      	mov	r0, r5
 8009f38:	f000 fdf8 	bl	800ab2c <_Bfree>
 8009f3c:	46c3      	mov	fp, r8
 8009f3e:	9b0a      	ldr	r3, [sp, #40]	; 0x28
 8009f40:	1b1a      	subs	r2, r3, r4
 8009f42:	d004      	beq.n	8009f4e <_dtoa_r+0x7be>
 8009f44:	4659      	mov	r1, fp
 8009f46:	4628      	mov	r0, r5
 8009f48:	f000 ffae 	bl	800aea8 <__pow5mult>
 8009f4c:	4683      	mov	fp, r0
 8009f4e:	2101      	movs	r1, #1
 8009f50:	4628      	mov	r0, r5
 8009f52:	f000 feeb 	bl	800ad2c <__i2b>
 8009f56:	9b0e      	ldr	r3, [sp, #56]	; 0x38
 8009f58:	4604      	mov	r4, r0
 8009f5a:	2b00      	cmp	r3, #0
 8009f5c:	f340 8086 	ble.w	800a06c <_dtoa_r+0x8dc>
 8009f60:	461a      	mov	r2, r3
 8009f62:	4601      	mov	r1, r0
 8009f64:	4628      	mov	r0, r5
 8009f66:	f000 ff9f 	bl	800aea8 <__pow5mult>
 8009f6a:	9b22      	ldr	r3, [sp, #136]	; 0x88
 8009f6c:	4604      	mov	r4, r0
 8009f6e:	2b01      	cmp	r3, #1
 8009f70:	dd7f      	ble.n	800a072 <_dtoa_r+0x8e2>
 8009f72:	f04f 0800 	mov.w	r8, #0
 8009f76:	6923      	ldr	r3, [r4, #16]
 8009f78:	eb04 0383 	add.w	r3, r4, r3, lsl #2
 8009f7c:	6918      	ldr	r0, [r3, #16]
 8009f7e:	f000 fe87 	bl	800ac90 <__hi0bits>
 8009f82:	f1c0 0020 	rsb	r0, r0, #32
 8009f86:	9b09      	ldr	r3, [sp, #36]	; 0x24
 8009f88:	4418      	add	r0, r3
 8009f8a:	f010 001f 	ands.w	r0, r0, #31
 8009f8e:	f000 8092 	beq.w	800a0b6 <_dtoa_r+0x926>
 8009f92:	f1c0 0320 	rsb	r3, r0, #32
 8009f96:	2b04      	cmp	r3, #4
 8009f98:	f340 808a 	ble.w	800a0b0 <_dtoa_r+0x920>
 8009f9c:	f1c0 001c 	rsb	r0, r0, #28
 8009fa0:	9b06      	ldr	r3, [sp, #24]
 8009fa2:	4407      	add	r7, r0
 8009fa4:	4403      	add	r3, r0
 8009fa6:	9306      	str	r3, [sp, #24]
 8009fa8:	9b09      	ldr	r3, [sp, #36]	; 0x24
 8009faa:	4403      	add	r3, r0
 8009fac:	9309      	str	r3, [sp, #36]	; 0x24
 8009fae:	9b06      	ldr	r3, [sp, #24]
 8009fb0:	2b00      	cmp	r3, #0
 8009fb2:	dd05      	ble.n	8009fc0 <_dtoa_r+0x830>
 8009fb4:	4659      	mov	r1, fp
 8009fb6:	461a      	mov	r2, r3
 8009fb8:	4628      	mov	r0, r5
 8009fba:	f000 ffcf 	bl	800af5c <__lshift>
 8009fbe:	4683      	mov	fp, r0
 8009fc0:	9b09      	ldr	r3, [sp, #36]	; 0x24
 8009fc2:	2b00      	cmp	r3, #0
 8009fc4:	dd05      	ble.n	8009fd2 <_dtoa_r+0x842>
 8009fc6:	4621      	mov	r1, r4
 8009fc8:	461a      	mov	r2, r3
 8009fca:	4628      	mov	r0, r5
 8009fcc:	f000 ffc6 	bl	800af5c <__lshift>
 8009fd0:	4604      	mov	r4, r0
 8009fd2:	9b0f      	ldr	r3, [sp, #60]	; 0x3c
 8009fd4:	2b00      	cmp	r3, #0
 8009fd6:	d070      	beq.n	800a0ba <_dtoa_r+0x92a>
 8009fd8:	4621      	mov	r1, r4
 8009fda:	4658      	mov	r0, fp
 8009fdc:	f001 f82e 	bl	800b03c <__mcmp>
 8009fe0:	2800      	cmp	r0, #0
 8009fe2:	da6a      	bge.n	800a0ba <_dtoa_r+0x92a>
 8009fe4:	2300      	movs	r3, #0
 8009fe6:	4659      	mov	r1, fp
 8009fe8:	220a      	movs	r2, #10
 8009fea:	4628      	mov	r0, r5
 8009fec:	f000 fdc0 	bl	800ab70 <__multadd>
 8009ff0:	9b0b      	ldr	r3, [sp, #44]	; 0x2c
 8009ff2:	4683      	mov	fp, r0
 8009ff4:	f10a 3aff 	add.w	sl, sl, #4294967295
 8009ff8:	2b00      	cmp	r3, #0
 8009ffa:	f000 8194 	beq.w	800a326 <_dtoa_r+0xb96>
 8009ffe:	4631      	mov	r1, r6
 800a000:	2300      	movs	r3, #0
 800a002:	220a      	movs	r2, #10
 800a004:	4628      	mov	r0, r5
 800a006:	f000 fdb3 	bl	800ab70 <__multadd>
 800a00a:	f1b9 0f00 	cmp.w	r9, #0
 800a00e:	4606      	mov	r6, r0
 800a010:	f300 8093 	bgt.w	800a13a <_dtoa_r+0x9aa>
 800a014:	9b22      	ldr	r3, [sp, #136]	; 0x88
 800a016:	2b02      	cmp	r3, #2
 800a018:	dc57      	bgt.n	800a0ca <_dtoa_r+0x93a>
 800a01a:	e08e      	b.n	800a13a <_dtoa_r+0x9aa>
 800a01c:	9b16      	ldr	r3, [sp, #88]	; 0x58
 800a01e:	f1c3 0336 	rsb	r3, r3, #54	; 0x36
 800a022:	e757      	b.n	8009ed4 <_dtoa_r+0x744>
 800a024:	9b08      	ldr	r3, [sp, #32]
 800a026:	1e5c      	subs	r4, r3, #1
 800a028:	9b0a      	ldr	r3, [sp, #40]	; 0x28
 800a02a:	42a3      	cmp	r3, r4
 800a02c:	bfb7      	itett	lt
 800a02e:	9b0a      	ldrlt	r3, [sp, #40]	; 0x28
 800a030:	1b1c      	subge	r4, r3, r4
 800a032:	1ae2      	sublt	r2, r4, r3
 800a034:	9b0e      	ldrlt	r3, [sp, #56]	; 0x38
 800a036:	bfbe      	ittt	lt
 800a038:	940a      	strlt	r4, [sp, #40]	; 0x28
 800a03a:	189b      	addlt	r3, r3, r2
 800a03c:	930e      	strlt	r3, [sp, #56]	; 0x38
 800a03e:	9b08      	ldr	r3, [sp, #32]
 800a040:	bfb8      	it	lt
 800a042:	2400      	movlt	r4, #0
 800a044:	2b00      	cmp	r3, #0
 800a046:	bfbb      	ittet	lt
 800a048:	9b06      	ldrlt	r3, [sp, #24]
 800a04a:	9a08      	ldrlt	r2, [sp, #32]
 800a04c:	9f06      	ldrge	r7, [sp, #24]
 800a04e:	1a9f      	sublt	r7, r3, r2
 800a050:	bfac      	ite	ge
 800a052:	9b08      	ldrge	r3, [sp, #32]
 800a054:	2300      	movlt	r3, #0
 800a056:	e73f      	b.n	8009ed8 <_dtoa_r+0x748>
 800a058:	3fe00000 	.word	0x3fe00000
 800a05c:	40240000 	.word	0x40240000
 800a060:	9c0a      	ldr	r4, [sp, #40]	; 0x28
 800a062:	9f06      	ldr	r7, [sp, #24]
 800a064:	9e0b      	ldr	r6, [sp, #44]	; 0x2c
 800a066:	e742      	b.n	8009eee <_dtoa_r+0x75e>
 800a068:	9a0a      	ldr	r2, [sp, #40]	; 0x28
 800a06a:	e76b      	b.n	8009f44 <_dtoa_r+0x7b4>
 800a06c:	9b22      	ldr	r3, [sp, #136]	; 0x88
 800a06e:	2b01      	cmp	r3, #1
 800a070:	dc19      	bgt.n	800a0a6 <_dtoa_r+0x916>
 800a072:	9b04      	ldr	r3, [sp, #16]
 800a074:	b9bb      	cbnz	r3, 800a0a6 <_dtoa_r+0x916>
 800a076:	9b05      	ldr	r3, [sp, #20]
 800a078:	f3c3 0313 	ubfx	r3, r3, #0, #20
 800a07c:	b99b      	cbnz	r3, 800a0a6 <_dtoa_r+0x916>
 800a07e:	9b05      	ldr	r3, [sp, #20]
 800a080:	f023 4300 	bic.w	r3, r3, #2147483648	; 0x80000000
 800a084:	0d1b      	lsrs	r3, r3, #20
 800a086:	051b      	lsls	r3, r3, #20
 800a088:	b183      	cbz	r3, 800a0ac <_dtoa_r+0x91c>
 800a08a:	f04f 0801 	mov.w	r8, #1
 800a08e:	9b06      	ldr	r3, [sp, #24]
 800a090:	3301      	adds	r3, #1
 800a092:	9306      	str	r3, [sp, #24]
 800a094:	9b09      	ldr	r3, [sp, #36]	; 0x24
 800a096:	3301      	adds	r3, #1
 800a098:	9309      	str	r3, [sp, #36]	; 0x24
 800a09a:	9b0e      	ldr	r3, [sp, #56]	; 0x38
 800a09c:	2b00      	cmp	r3, #0
 800a09e:	f47f af6a 	bne.w	8009f76 <_dtoa_r+0x7e6>
 800a0a2:	2001      	movs	r0, #1
 800a0a4:	e76f      	b.n	8009f86 <_dtoa_r+0x7f6>
 800a0a6:	f04f 0800 	mov.w	r8, #0
 800a0aa:	e7f6      	b.n	800a09a <_dtoa_r+0x90a>
 800a0ac:	4698      	mov	r8, r3
 800a0ae:	e7f4      	b.n	800a09a <_dtoa_r+0x90a>
 800a0b0:	f43f af7d 	beq.w	8009fae <_dtoa_r+0x81e>
 800a0b4:	4618      	mov	r0, r3
 800a0b6:	301c      	adds	r0, #28
 800a0b8:	e772      	b.n	8009fa0 <_dtoa_r+0x810>
 800a0ba:	9b08      	ldr	r3, [sp, #32]
 800a0bc:	2b00      	cmp	r3, #0
 800a0be:	dc36      	bgt.n	800a12e <_dtoa_r+0x99e>
 800a0c0:	9b22      	ldr	r3, [sp, #136]	; 0x88
 800a0c2:	2b02      	cmp	r3, #2
 800a0c4:	dd33      	ble.n	800a12e <_dtoa_r+0x99e>
 800a0c6:	f8dd 9020 	ldr.w	r9, [sp, #32]
 800a0ca:	f1b9 0f00 	cmp.w	r9, #0
 800a0ce:	d10d      	bne.n	800a0ec <_dtoa_r+0x95c>
 800a0d0:	4621      	mov	r1, r4
 800a0d2:	464b      	mov	r3, r9
 800a0d4:	2205      	movs	r2, #5
 800a0d6:	4628      	mov	r0, r5
 800a0d8:	f000 fd4a 	bl	800ab70 <__multadd>
 800a0dc:	4601      	mov	r1, r0
 800a0de:	4604      	mov	r4, r0
 800a0e0:	4658      	mov	r0, fp
 800a0e2:	f000 ffab 	bl	800b03c <__mcmp>
 800a0e6:	2800      	cmp	r0, #0
 800a0e8:	f73f adb8 	bgt.w	8009c5c <_dtoa_r+0x4cc>
 800a0ec:	9b23      	ldr	r3, [sp, #140]	; 0x8c
 800a0ee:	9f03      	ldr	r7, [sp, #12]
 800a0f0:	ea6f 0a03 	mvn.w	sl, r3
 800a0f4:	f04f 0800 	mov.w	r8, #0
 800a0f8:	4621      	mov	r1, r4
 800a0fa:	4628      	mov	r0, r5
 800a0fc:	f000 fd16 	bl	800ab2c <_Bfree>
 800a100:	2e00      	cmp	r6, #0
 800a102:	f43f aea7 	beq.w	8009e54 <_dtoa_r+0x6c4>
 800a106:	f1b8 0f00 	cmp.w	r8, #0
 800a10a:	d005      	beq.n	800a118 <_dtoa_r+0x988>
 800a10c:	45b0      	cmp	r8, r6
 800a10e:	d003      	beq.n	800a118 <_dtoa_r+0x988>
 800a110:	4641      	mov	r1, r8
 800a112:	4628      	mov	r0, r5
 800a114:	f000 fd0a 	bl	800ab2c <_Bfree>
 800a118:	4631      	mov	r1, r6
 800a11a:	4628      	mov	r0, r5
 800a11c:	f000 fd06 	bl	800ab2c <_Bfree>
 800a120:	e698      	b.n	8009e54 <_dtoa_r+0x6c4>
 800a122:	2400      	movs	r4, #0
 800a124:	4626      	mov	r6, r4
 800a126:	e7e1      	b.n	800a0ec <_dtoa_r+0x95c>
 800a128:	46c2      	mov	sl, r8
 800a12a:	4626      	mov	r6, r4
 800a12c:	e596      	b.n	8009c5c <_dtoa_r+0x4cc>
 800a12e:	9b0b      	ldr	r3, [sp, #44]	; 0x2c
 800a130:	f8dd 9020 	ldr.w	r9, [sp, #32]
 800a134:	2b00      	cmp	r3, #0
 800a136:	f000 80fd 	beq.w	800a334 <_dtoa_r+0xba4>
 800a13a:	2f00      	cmp	r7, #0
 800a13c:	dd05      	ble.n	800a14a <_dtoa_r+0x9ba>
 800a13e:	4631      	mov	r1, r6
 800a140:	463a      	mov	r2, r7
 800a142:	4628      	mov	r0, r5
 800a144:	f000 ff0a 	bl	800af5c <__lshift>
 800a148:	4606      	mov	r6, r0
 800a14a:	f1b8 0f00 	cmp.w	r8, #0
 800a14e:	d05c      	beq.n	800a20a <_dtoa_r+0xa7a>
 800a150:	4628      	mov	r0, r5
 800a152:	6871      	ldr	r1, [r6, #4]
 800a154:	f000 fcaa 	bl	800aaac <_Balloc>
 800a158:	4607      	mov	r7, r0
 800a15a:	b928      	cbnz	r0, 800a168 <_dtoa_r+0x9d8>
 800a15c:	4602      	mov	r2, r0
 800a15e:	f240 21ea 	movw	r1, #746	; 0x2ea
 800a162:	4b7f      	ldr	r3, [pc, #508]	; (800a360 <_dtoa_r+0xbd0>)
 800a164:	f7ff bb28 	b.w	80097b8 <_dtoa_r+0x28>
 800a168:	6932      	ldr	r2, [r6, #16]
 800a16a:	f106 010c 	add.w	r1, r6, #12
 800a16e:	3202      	adds	r2, #2
 800a170:	0092      	lsls	r2, r2, #2
 800a172:	300c      	adds	r0, #12
 800a174:	f000 fc8c 	bl	800aa90 <memcpy>
 800a178:	2201      	movs	r2, #1
 800a17a:	4639      	mov	r1, r7
 800a17c:	4628      	mov	r0, r5
 800a17e:	f000 feed 	bl	800af5c <__lshift>
 800a182:	46b0      	mov	r8, r6
 800a184:	4606      	mov	r6, r0
 800a186:	9b03      	ldr	r3, [sp, #12]
 800a188:	3301      	adds	r3, #1
 800a18a:	9308      	str	r3, [sp, #32]
 800a18c:	9b03      	ldr	r3, [sp, #12]
 800a18e:	444b      	add	r3, r9
 800a190:	930a      	str	r3, [sp, #40]	; 0x28
 800a192:	9b04      	ldr	r3, [sp, #16]
 800a194:	f003 0301 	and.w	r3, r3, #1
 800a198:	9309      	str	r3, [sp, #36]	; 0x24
 800a19a:	9b08      	ldr	r3, [sp, #32]
 800a19c:	4621      	mov	r1, r4
 800a19e:	3b01      	subs	r3, #1
 800a1a0:	4658      	mov	r0, fp
 800a1a2:	9304      	str	r3, [sp, #16]
 800a1a4:	f7ff fa68 	bl	8009678 <quorem>
 800a1a8:	4603      	mov	r3, r0
 800a1aa:	4641      	mov	r1, r8
 800a1ac:	3330      	adds	r3, #48	; 0x30
 800a1ae:	9006      	str	r0, [sp, #24]
 800a1b0:	4658      	mov	r0, fp
 800a1b2:	930b      	str	r3, [sp, #44]	; 0x2c
 800a1b4:	f000 ff42 	bl	800b03c <__mcmp>
 800a1b8:	4632      	mov	r2, r6
 800a1ba:	4681      	mov	r9, r0
 800a1bc:	4621      	mov	r1, r4
 800a1be:	4628      	mov	r0, r5
 800a1c0:	f000 ff58 	bl	800b074 <__mdiff>
 800a1c4:	68c2      	ldr	r2, [r0, #12]
 800a1c6:	4607      	mov	r7, r0
 800a1c8:	9b0b      	ldr	r3, [sp, #44]	; 0x2c
 800a1ca:	bb02      	cbnz	r2, 800a20e <_dtoa_r+0xa7e>
 800a1cc:	4601      	mov	r1, r0
 800a1ce:	4658      	mov	r0, fp
 800a1d0:	f000 ff34 	bl	800b03c <__mcmp>
 800a1d4:	4602      	mov	r2, r0
 800a1d6:	9b0b      	ldr	r3, [sp, #44]	; 0x2c
 800a1d8:	4639      	mov	r1, r7
 800a1da:	4628      	mov	r0, r5
 800a1dc:	e9cd 320b 	strd	r3, r2, [sp, #44]	; 0x2c
 800a1e0:	f000 fca4 	bl	800ab2c <_Bfree>
 800a1e4:	9b22      	ldr	r3, [sp, #136]	; 0x88
 800a1e6:	9a0c      	ldr	r2, [sp, #48]	; 0x30
 800a1e8:	9f08      	ldr	r7, [sp, #32]
 800a1ea:	ea43 0102 	orr.w	r1, r3, r2
 800a1ee:	9b09      	ldr	r3, [sp, #36]	; 0x24
 800a1f0:	430b      	orrs	r3, r1
 800a1f2:	9b0b      	ldr	r3, [sp, #44]	; 0x2c
 800a1f4:	d10d      	bne.n	800a212 <_dtoa_r+0xa82>
 800a1f6:	2b39      	cmp	r3, #57	; 0x39
 800a1f8:	d029      	beq.n	800a24e <_dtoa_r+0xabe>
 800a1fa:	f1b9 0f00 	cmp.w	r9, #0
 800a1fe:	dd01      	ble.n	800a204 <_dtoa_r+0xa74>
 800a200:	9b06      	ldr	r3, [sp, #24]
 800a202:	3331      	adds	r3, #49	; 0x31
 800a204:	9a04      	ldr	r2, [sp, #16]
 800a206:	7013      	strb	r3, [r2, #0]
 800a208:	e776      	b.n	800a0f8 <_dtoa_r+0x968>
 800a20a:	4630      	mov	r0, r6
 800a20c:	e7b9      	b.n	800a182 <_dtoa_r+0x9f2>
 800a20e:	2201      	movs	r2, #1
 800a210:	e7e2      	b.n	800a1d8 <_dtoa_r+0xa48>
 800a212:	f1b9 0f00 	cmp.w	r9, #0
 800a216:	db06      	blt.n	800a226 <_dtoa_r+0xa96>
 800a218:	9922      	ldr	r1, [sp, #136]	; 0x88
 800a21a:	ea41 0909 	orr.w	r9, r1, r9
 800a21e:	9909      	ldr	r1, [sp, #36]	; 0x24
 800a220:	ea59 0101 	orrs.w	r1, r9, r1
 800a224:	d120      	bne.n	800a268 <_dtoa_r+0xad8>
 800a226:	2a00      	cmp	r2, #0
 800a228:	ddec      	ble.n	800a204 <_dtoa_r+0xa74>
 800a22a:	4659      	mov	r1, fp
 800a22c:	2201      	movs	r2, #1
 800a22e:	4628      	mov	r0, r5
 800a230:	9308      	str	r3, [sp, #32]
 800a232:	f000 fe93 	bl	800af5c <__lshift>
 800a236:	4621      	mov	r1, r4
 800a238:	4683      	mov	fp, r0
 800a23a:	f000 feff 	bl	800b03c <__mcmp>
 800a23e:	2800      	cmp	r0, #0
 800a240:	9b08      	ldr	r3, [sp, #32]
 800a242:	dc02      	bgt.n	800a24a <_dtoa_r+0xaba>
 800a244:	d1de      	bne.n	800a204 <_dtoa_r+0xa74>
 800a246:	07da      	lsls	r2, r3, #31
 800a248:	d5dc      	bpl.n	800a204 <_dtoa_r+0xa74>
 800a24a:	2b39      	cmp	r3, #57	; 0x39
 800a24c:	d1d8      	bne.n	800a200 <_dtoa_r+0xa70>
 800a24e:	2339      	movs	r3, #57	; 0x39
 800a250:	9a04      	ldr	r2, [sp, #16]
 800a252:	7013      	strb	r3, [r2, #0]
 800a254:	463b      	mov	r3, r7
 800a256:	461f      	mov	r7, r3
 800a258:	f817 2c01 	ldrb.w	r2, [r7, #-1]
 800a25c:	3b01      	subs	r3, #1
 800a25e:	2a39      	cmp	r2, #57	; 0x39
 800a260:	d050      	beq.n	800a304 <_dtoa_r+0xb74>
 800a262:	3201      	adds	r2, #1
 800a264:	701a      	strb	r2, [r3, #0]
 800a266:	e747      	b.n	800a0f8 <_dtoa_r+0x968>
 800a268:	2a00      	cmp	r2, #0
 800a26a:	dd03      	ble.n	800a274 <_dtoa_r+0xae4>
 800a26c:	2b39      	cmp	r3, #57	; 0x39
 800a26e:	d0ee      	beq.n	800a24e <_dtoa_r+0xabe>
 800a270:	3301      	adds	r3, #1
 800a272:	e7c7      	b.n	800a204 <_dtoa_r+0xa74>
 800a274:	9a08      	ldr	r2, [sp, #32]
 800a276:	990a      	ldr	r1, [sp, #40]	; 0x28
 800a278:	f802 3c01 	strb.w	r3, [r2, #-1]
 800a27c:	428a      	cmp	r2, r1
 800a27e:	d02a      	beq.n	800a2d6 <_dtoa_r+0xb46>
 800a280:	4659      	mov	r1, fp
 800a282:	2300      	movs	r3, #0
 800a284:	220a      	movs	r2, #10
 800a286:	4628      	mov	r0, r5
 800a288:	f000 fc72 	bl	800ab70 <__multadd>
 800a28c:	45b0      	cmp	r8, r6
 800a28e:	4683      	mov	fp, r0
 800a290:	f04f 0300 	mov.w	r3, #0
 800a294:	f04f 020a 	mov.w	r2, #10
 800a298:	4641      	mov	r1, r8
 800a29a:	4628      	mov	r0, r5
 800a29c:	d107      	bne.n	800a2ae <_dtoa_r+0xb1e>
 800a29e:	f000 fc67 	bl	800ab70 <__multadd>
 800a2a2:	4680      	mov	r8, r0
 800a2a4:	4606      	mov	r6, r0
 800a2a6:	9b08      	ldr	r3, [sp, #32]
 800a2a8:	3301      	adds	r3, #1
 800a2aa:	9308      	str	r3, [sp, #32]
 800a2ac:	e775      	b.n	800a19a <_dtoa_r+0xa0a>
 800a2ae:	f000 fc5f 	bl	800ab70 <__multadd>
 800a2b2:	4631      	mov	r1, r6
 800a2b4:	4680      	mov	r8, r0
 800a2b6:	2300      	movs	r3, #0
 800a2b8:	220a      	movs	r2, #10
 800a2ba:	4628      	mov	r0, r5
 800a2bc:	f000 fc58 	bl	800ab70 <__multadd>
 800a2c0:	4606      	mov	r6, r0
 800a2c2:	e7f0      	b.n	800a2a6 <_dtoa_r+0xb16>
 800a2c4:	f1b9 0f00 	cmp.w	r9, #0
 800a2c8:	bfcc      	ite	gt
 800a2ca:	464f      	movgt	r7, r9
 800a2cc:	2701      	movle	r7, #1
 800a2ce:	f04f 0800 	mov.w	r8, #0
 800a2d2:	9a03      	ldr	r2, [sp, #12]
 800a2d4:	4417      	add	r7, r2
 800a2d6:	4659      	mov	r1, fp
 800a2d8:	2201      	movs	r2, #1
 800a2da:	4628      	mov	r0, r5
 800a2dc:	9308      	str	r3, [sp, #32]
 800a2de:	f000 fe3d 	bl	800af5c <__lshift>
 800a2e2:	4621      	mov	r1, r4
 800a2e4:	4683      	mov	fp, r0
 800a2e6:	f000 fea9 	bl	800b03c <__mcmp>
 800a2ea:	2800      	cmp	r0, #0
 800a2ec:	dcb2      	bgt.n	800a254 <_dtoa_r+0xac4>
 800a2ee:	d102      	bne.n	800a2f6 <_dtoa_r+0xb66>
 800a2f0:	9b08      	ldr	r3, [sp, #32]
 800a2f2:	07db      	lsls	r3, r3, #31
 800a2f4:	d4ae      	bmi.n	800a254 <_dtoa_r+0xac4>
 800a2f6:	463b      	mov	r3, r7
 800a2f8:	461f      	mov	r7, r3
 800a2fa:	f813 2d01 	ldrb.w	r2, [r3, #-1]!
 800a2fe:	2a30      	cmp	r2, #48	; 0x30
 800a300:	d0fa      	beq.n	800a2f8 <_dtoa_r+0xb68>
 800a302:	e6f9      	b.n	800a0f8 <_dtoa_r+0x968>
 800a304:	9a03      	ldr	r2, [sp, #12]
 800a306:	429a      	cmp	r2, r3
 800a308:	d1a5      	bne.n	800a256 <_dtoa_r+0xac6>
 800a30a:	2331      	movs	r3, #49	; 0x31
 800a30c:	f10a 0a01 	add.w	sl, sl, #1
 800a310:	e779      	b.n	800a206 <_dtoa_r+0xa76>
 800a312:	4b14      	ldr	r3, [pc, #80]	; (800a364 <_dtoa_r+0xbd4>)
 800a314:	f7ff baa8 	b.w	8009868 <_dtoa_r+0xd8>
 800a318:	9b26      	ldr	r3, [sp, #152]	; 0x98
 800a31a:	2b00      	cmp	r3, #0
 800a31c:	f47f aa81 	bne.w	8009822 <_dtoa_r+0x92>
 800a320:	4b11      	ldr	r3, [pc, #68]	; (800a368 <_dtoa_r+0xbd8>)
 800a322:	f7ff baa1 	b.w	8009868 <_dtoa_r+0xd8>
 800a326:	f1b9 0f00 	cmp.w	r9, #0
 800a32a:	dc03      	bgt.n	800a334 <_dtoa_r+0xba4>
 800a32c:	9b22      	ldr	r3, [sp, #136]	; 0x88
 800a32e:	2b02      	cmp	r3, #2
 800a330:	f73f aecb 	bgt.w	800a0ca <_dtoa_r+0x93a>
 800a334:	9f03      	ldr	r7, [sp, #12]
 800a336:	4621      	mov	r1, r4
 800a338:	4658      	mov	r0, fp
 800a33a:	f7ff f99d 	bl	8009678 <quorem>
 800a33e:	9a03      	ldr	r2, [sp, #12]
 800a340:	f100 0330 	add.w	r3, r0, #48	; 0x30
 800a344:	f807 3b01 	strb.w	r3, [r7], #1
 800a348:	1aba      	subs	r2, r7, r2
 800a34a:	4591      	cmp	r9, r2
 800a34c:	ddba      	ble.n	800a2c4 <_dtoa_r+0xb34>
 800a34e:	4659      	mov	r1, fp
 800a350:	2300      	movs	r3, #0
 800a352:	220a      	movs	r2, #10
 800a354:	4628      	mov	r0, r5
 800a356:	f000 fc0b 	bl	800ab70 <__multadd>
 800a35a:	4683      	mov	fp, r0
 800a35c:	e7eb      	b.n	800a336 <_dtoa_r+0xba6>
 800a35e:	bf00      	nop
 800a360:	0800df60 	.word	0x0800df60
 800a364:	0800dd60 	.word	0x0800dd60
 800a368:	0800dee1 	.word	0x0800dee1

0800a36c <rshift>:
 800a36c:	6903      	ldr	r3, [r0, #16]
 800a36e:	e92d 43f0 	stmdb	sp!, {r4, r5, r6, r7, r8, r9, lr}
 800a372:	ebb3 1f61 	cmp.w	r3, r1, asr #5
 800a376:	f100 0414 	add.w	r4, r0, #20
 800a37a:	ea4f 1261 	mov.w	r2, r1, asr #5
 800a37e:	dd46      	ble.n	800a40e <rshift+0xa2>
 800a380:	f011 011f 	ands.w	r1, r1, #31
 800a384:	eb04 0683 	add.w	r6, r4, r3, lsl #2
 800a388:	eb04 0582 	add.w	r5, r4, r2, lsl #2
 800a38c:	d10c      	bne.n	800a3a8 <rshift+0x3c>
 800a38e:	4629      	mov	r1, r5
 800a390:	f100 0710 	add.w	r7, r0, #16
 800a394:	42b1      	cmp	r1, r6
 800a396:	d335      	bcc.n	800a404 <rshift+0x98>
 800a398:	1a9b      	subs	r3, r3, r2
 800a39a:	009b      	lsls	r3, r3, #2
 800a39c:	1eea      	subs	r2, r5, #3
 800a39e:	4296      	cmp	r6, r2
 800a3a0:	bf38      	it	cc
 800a3a2:	2300      	movcc	r3, #0
 800a3a4:	4423      	add	r3, r4
 800a3a6:	e015      	b.n	800a3d4 <rshift+0x68>
 800a3a8:	46a1      	mov	r9, r4
 800a3aa:	f854 7022 	ldr.w	r7, [r4, r2, lsl #2]
 800a3ae:	f1c1 0820 	rsb	r8, r1, #32
 800a3b2:	40cf      	lsrs	r7, r1
 800a3b4:	f105 0e04 	add.w	lr, r5, #4
 800a3b8:	4576      	cmp	r6, lr
 800a3ba:	46f4      	mov	ip, lr
 800a3bc:	d816      	bhi.n	800a3ec <rshift+0x80>
 800a3be:	1a9a      	subs	r2, r3, r2
 800a3c0:	0092      	lsls	r2, r2, #2
 800a3c2:	3a04      	subs	r2, #4
 800a3c4:	3501      	adds	r5, #1
 800a3c6:	42ae      	cmp	r6, r5
 800a3c8:	bf38      	it	cc
 800a3ca:	2200      	movcc	r2, #0
 800a3cc:	18a3      	adds	r3, r4, r2
 800a3ce:	50a7      	str	r7, [r4, r2]
 800a3d0:	b107      	cbz	r7, 800a3d4 <rshift+0x68>
 800a3d2:	3304      	adds	r3, #4
 800a3d4:	42a3      	cmp	r3, r4
 800a3d6:	eba3 0204 	sub.w	r2, r3, r4
 800a3da:	bf08      	it	eq
 800a3dc:	2300      	moveq	r3, #0
 800a3de:	ea4f 02a2 	mov.w	r2, r2, asr #2
 800a3e2:	6102      	str	r2, [r0, #16]
 800a3e4:	bf08      	it	eq
 800a3e6:	6143      	streq	r3, [r0, #20]
 800a3e8:	e8bd 83f0 	ldmia.w	sp!, {r4, r5, r6, r7, r8, r9, pc}
 800a3ec:	f8dc c000 	ldr.w	ip, [ip]
 800a3f0:	fa0c fc08 	lsl.w	ip, ip, r8
 800a3f4:	ea4c 0707 	orr.w	r7, ip, r7
 800a3f8:	f849 7b04 	str.w	r7, [r9], #4
 800a3fc:	f85e 7b04 	ldr.w	r7, [lr], #4
 800a400:	40cf      	lsrs	r7, r1
 800a402:	e7d9      	b.n	800a3b8 <rshift+0x4c>
 800a404:	f851 cb04 	ldr.w	ip, [r1], #4
 800a408:	f847 cf04 	str.w	ip, [r7, #4]!
 800a40c:	e7c2      	b.n	800a394 <rshift+0x28>
 800a40e:	4623      	mov	r3, r4
 800a410:	e7e0      	b.n	800a3d4 <rshift+0x68>

0800a412 <__hexdig_fun>:
 800a412:	f1a0 0330 	sub.w	r3, r0, #48	; 0x30
 800a416:	2b09      	cmp	r3, #9
 800a418:	d802      	bhi.n	800a420 <__hexdig_fun+0xe>
 800a41a:	3820      	subs	r0, #32
 800a41c:	b2c0      	uxtb	r0, r0
 800a41e:	4770      	bx	lr
 800a420:	f1a0 0361 	sub.w	r3, r0, #97	; 0x61
 800a424:	2b05      	cmp	r3, #5
 800a426:	d801      	bhi.n	800a42c <__hexdig_fun+0x1a>
 800a428:	3847      	subs	r0, #71	; 0x47
 800a42a:	e7f7      	b.n	800a41c <__hexdig_fun+0xa>
 800a42c:	f1a0 0341 	sub.w	r3, r0, #65	; 0x41
 800a430:	2b05      	cmp	r3, #5
 800a432:	d801      	bhi.n	800a438 <__hexdig_fun+0x26>
 800a434:	3827      	subs	r0, #39	; 0x27
 800a436:	e7f1      	b.n	800a41c <__hexdig_fun+0xa>
 800a438:	2000      	movs	r0, #0
 800a43a:	4770      	bx	lr

0800a43c <__gethex>:
 800a43c:	e92d 4ff0 	stmdb	sp!, {r4, r5, r6, r7, r8, r9, sl, fp, lr}
 800a440:	b08b      	sub	sp, #44	; 0x2c
 800a442:	9305      	str	r3, [sp, #20]
 800a444:	4bb2      	ldr	r3, [pc, #712]	; (800a710 <__gethex+0x2d4>)
 800a446:	9002      	str	r0, [sp, #8]
 800a448:	681b      	ldr	r3, [r3, #0]
 800a44a:	468b      	mov	fp, r1
 800a44c:	4618      	mov	r0, r3
 800a44e:	4690      	mov	r8, r2
 800a450:	9303      	str	r3, [sp, #12]
 800a452:	f7f5 fee9 	bl	8000228 <strlen>
 800a456:	4682      	mov	sl, r0
 800a458:	9b03      	ldr	r3, [sp, #12]
 800a45a:	f8db 2000 	ldr.w	r2, [fp]
 800a45e:	4403      	add	r3, r0
 800a460:	f813 3c01 	ldrb.w	r3, [r3, #-1]
 800a464:	9306      	str	r3, [sp, #24]
 800a466:	1c93      	adds	r3, r2, #2
 800a468:	f1c2 22ff 	rsb	r2, r2, #4278255360	; 0xff00ff00
 800a46c:	f502 027f 	add.w	r2, r2, #16711680	; 0xff0000
 800a470:	32fe      	adds	r2, #254	; 0xfe
 800a472:	18d1      	adds	r1, r2, r3
 800a474:	461f      	mov	r7, r3
 800a476:	f813 0b01 	ldrb.w	r0, [r3], #1
 800a47a:	9101      	str	r1, [sp, #4]
 800a47c:	2830      	cmp	r0, #48	; 0x30
 800a47e:	d0f8      	beq.n	800a472 <__gethex+0x36>
 800a480:	f7ff ffc7 	bl	800a412 <__hexdig_fun>
 800a484:	4604      	mov	r4, r0
 800a486:	2800      	cmp	r0, #0
 800a488:	d13a      	bne.n	800a500 <__gethex+0xc4>
 800a48a:	4652      	mov	r2, sl
 800a48c:	4638      	mov	r0, r7
 800a48e:	9903      	ldr	r1, [sp, #12]
 800a490:	f001 fa26 	bl	800b8e0 <strncmp>
 800a494:	4605      	mov	r5, r0
 800a496:	2800      	cmp	r0, #0
 800a498:	d166      	bne.n	800a568 <__gethex+0x12c>
 800a49a:	f817 000a 	ldrb.w	r0, [r7, sl]
 800a49e:	eb07 060a 	add.w	r6, r7, sl
 800a4a2:	f7ff ffb6 	bl	800a412 <__hexdig_fun>
 800a4a6:	2800      	cmp	r0, #0
 800a4a8:	d060      	beq.n	800a56c <__gethex+0x130>
 800a4aa:	4633      	mov	r3, r6
 800a4ac:	7818      	ldrb	r0, [r3, #0]
 800a4ae:	461f      	mov	r7, r3
 800a4b0:	2830      	cmp	r0, #48	; 0x30
 800a4b2:	f103 0301 	add.w	r3, r3, #1
 800a4b6:	d0f9      	beq.n	800a4ac <__gethex+0x70>
 800a4b8:	f7ff ffab 	bl	800a412 <__hexdig_fun>
 800a4bc:	2301      	movs	r3, #1
 800a4be:	fab0 f480 	clz	r4, r0
 800a4c2:	4635      	mov	r5, r6
 800a4c4:	0964      	lsrs	r4, r4, #5
 800a4c6:	9301      	str	r3, [sp, #4]
 800a4c8:	463a      	mov	r2, r7
 800a4ca:	4616      	mov	r6, r2
 800a4cc:	7830      	ldrb	r0, [r6, #0]
 800a4ce:	3201      	adds	r2, #1
 800a4d0:	f7ff ff9f 	bl	800a412 <__hexdig_fun>
 800a4d4:	2800      	cmp	r0, #0
 800a4d6:	d1f8      	bne.n	800a4ca <__gethex+0x8e>
 800a4d8:	4652      	mov	r2, sl
 800a4da:	4630      	mov	r0, r6
 800a4dc:	9903      	ldr	r1, [sp, #12]
 800a4de:	f001 f9ff 	bl	800b8e0 <strncmp>
 800a4e2:	b980      	cbnz	r0, 800a506 <__gethex+0xca>
 800a4e4:	b94d      	cbnz	r5, 800a4fa <__gethex+0xbe>
 800a4e6:	eb06 050a 	add.w	r5, r6, sl
 800a4ea:	462a      	mov	r2, r5
 800a4ec:	4616      	mov	r6, r2
 800a4ee:	7830      	ldrb	r0, [r6, #0]
 800a4f0:	3201      	adds	r2, #1
 800a4f2:	f7ff ff8e 	bl	800a412 <__hexdig_fun>
 800a4f6:	2800      	cmp	r0, #0
 800a4f8:	d1f8      	bne.n	800a4ec <__gethex+0xb0>
 800a4fa:	1bad      	subs	r5, r5, r6
 800a4fc:	00ad      	lsls	r5, r5, #2
 800a4fe:	e004      	b.n	800a50a <__gethex+0xce>
 800a500:	2400      	movs	r4, #0
 800a502:	4625      	mov	r5, r4
 800a504:	e7e0      	b.n	800a4c8 <__gethex+0x8c>
 800a506:	2d00      	cmp	r5, #0
 800a508:	d1f7      	bne.n	800a4fa <__gethex+0xbe>
 800a50a:	7833      	ldrb	r3, [r6, #0]
 800a50c:	f003 03df 	and.w	r3, r3, #223	; 0xdf
 800a510:	2b50      	cmp	r3, #80	; 0x50
 800a512:	d139      	bne.n	800a588 <__gethex+0x14c>
 800a514:	7873      	ldrb	r3, [r6, #1]
 800a516:	2b2b      	cmp	r3, #43	; 0x2b
 800a518:	d02a      	beq.n	800a570 <__gethex+0x134>
 800a51a:	2b2d      	cmp	r3, #45	; 0x2d
 800a51c:	d02c      	beq.n	800a578 <__gethex+0x13c>
 800a51e:	f04f 0900 	mov.w	r9, #0
 800a522:	1c71      	adds	r1, r6, #1
 800a524:	7808      	ldrb	r0, [r1, #0]
 800a526:	f7ff ff74 	bl	800a412 <__hexdig_fun>
 800a52a:	1e43      	subs	r3, r0, #1
 800a52c:	b2db      	uxtb	r3, r3
 800a52e:	2b18      	cmp	r3, #24
 800a530:	d82a      	bhi.n	800a588 <__gethex+0x14c>
 800a532:	f1a0 0210 	sub.w	r2, r0, #16
 800a536:	f811 0f01 	ldrb.w	r0, [r1, #1]!
 800a53a:	f7ff ff6a 	bl	800a412 <__hexdig_fun>
 800a53e:	1e43      	subs	r3, r0, #1
 800a540:	b2db      	uxtb	r3, r3
 800a542:	2b18      	cmp	r3, #24
 800a544:	d91b      	bls.n	800a57e <__gethex+0x142>
 800a546:	f1b9 0f00 	cmp.w	r9, #0
 800a54a:	d000      	beq.n	800a54e <__gethex+0x112>
 800a54c:	4252      	negs	r2, r2
 800a54e:	4415      	add	r5, r2
 800a550:	f8cb 1000 	str.w	r1, [fp]
 800a554:	b1d4      	cbz	r4, 800a58c <__gethex+0x150>
 800a556:	9b01      	ldr	r3, [sp, #4]
 800a558:	2b00      	cmp	r3, #0
 800a55a:	bf14      	ite	ne
 800a55c:	2700      	movne	r7, #0
 800a55e:	2706      	moveq	r7, #6
 800a560:	4638      	mov	r0, r7
 800a562:	b00b      	add	sp, #44	; 0x2c
 800a564:	e8bd 8ff0 	ldmia.w	sp!, {r4, r5, r6, r7, r8, r9, sl, fp, pc}
 800a568:	463e      	mov	r6, r7
 800a56a:	4625      	mov	r5, r4
 800a56c:	2401      	movs	r4, #1
 800a56e:	e7cc      	b.n	800a50a <__gethex+0xce>
 800a570:	f04f 0900 	mov.w	r9, #0
 800a574:	1cb1      	adds	r1, r6, #2
 800a576:	e7d5      	b.n	800a524 <__gethex+0xe8>
 800a578:	f04f 0901 	mov.w	r9, #1
 800a57c:	e7fa      	b.n	800a574 <__gethex+0x138>
 800a57e:	230a      	movs	r3, #10
 800a580:	fb03 0202 	mla	r2, r3, r2, r0
 800a584:	3a10      	subs	r2, #16
 800a586:	e7d6      	b.n	800a536 <__gethex+0xfa>
 800a588:	4631      	mov	r1, r6
 800a58a:	e7e1      	b.n	800a550 <__gethex+0x114>
 800a58c:	4621      	mov	r1, r4
 800a58e:	1bf3      	subs	r3, r6, r7
 800a590:	3b01      	subs	r3, #1
 800a592:	2b07      	cmp	r3, #7
 800a594:	dc0a      	bgt.n	800a5ac <__gethex+0x170>
 800a596:	9802      	ldr	r0, [sp, #8]
 800a598:	f000 fa88 	bl	800aaac <_Balloc>
 800a59c:	4604      	mov	r4, r0
 800a59e:	b940      	cbnz	r0, 800a5b2 <__gethex+0x176>
 800a5a0:	4602      	mov	r2, r0
 800a5a2:	21de      	movs	r1, #222	; 0xde
 800a5a4:	4b5b      	ldr	r3, [pc, #364]	; (800a714 <__gethex+0x2d8>)
 800a5a6:	485c      	ldr	r0, [pc, #368]	; (800a718 <__gethex+0x2dc>)
 800a5a8:	f001 f9bc 	bl	800b924 <__assert_func>
 800a5ac:	3101      	adds	r1, #1
 800a5ae:	105b      	asrs	r3, r3, #1
 800a5b0:	e7ef      	b.n	800a592 <__gethex+0x156>
 800a5b2:	f04f 0b00 	mov.w	fp, #0
 800a5b6:	f100 0914 	add.w	r9, r0, #20
 800a5ba:	f1ca 0301 	rsb	r3, sl, #1
 800a5be:	f8cd 9010 	str.w	r9, [sp, #16]
 800a5c2:	f8cd b004 	str.w	fp, [sp, #4]
 800a5c6:	9308      	str	r3, [sp, #32]
 800a5c8:	42b7      	cmp	r7, r6
 800a5ca:	d33f      	bcc.n	800a64c <__gethex+0x210>
 800a5cc:	9f04      	ldr	r7, [sp, #16]
 800a5ce:	9b01      	ldr	r3, [sp, #4]
 800a5d0:	f847 3b04 	str.w	r3, [r7], #4
 800a5d4:	eba7 0709 	sub.w	r7, r7, r9
 800a5d8:	10bf      	asrs	r7, r7, #2
 800a5da:	6127      	str	r7, [r4, #16]
 800a5dc:	4618      	mov	r0, r3
 800a5de:	f000 fb57 	bl	800ac90 <__hi0bits>
 800a5e2:	017f      	lsls	r7, r7, #5
 800a5e4:	f8d8 6000 	ldr.w	r6, [r8]
 800a5e8:	1a3f      	subs	r7, r7, r0
 800a5ea:	42b7      	cmp	r7, r6
 800a5ec:	dd62      	ble.n	800a6b4 <__gethex+0x278>
 800a5ee:	1bbf      	subs	r7, r7, r6
 800a5f0:	4639      	mov	r1, r7
 800a5f2:	4620      	mov	r0, r4
 800a5f4:	f000 fef1 	bl	800b3da <__any_on>
 800a5f8:	4682      	mov	sl, r0
 800a5fa:	b1a8      	cbz	r0, 800a628 <__gethex+0x1ec>
 800a5fc:	f04f 0a01 	mov.w	sl, #1
 800a600:	1e7b      	subs	r3, r7, #1
 800a602:	1159      	asrs	r1, r3, #5
 800a604:	f859 1021 	ldr.w	r1, [r9, r1, lsl #2]
 800a608:	f003 021f 	and.w	r2, r3, #31
 800a60c:	fa0a f202 	lsl.w	r2, sl, r2
 800a610:	420a      	tst	r2, r1
 800a612:	d009      	beq.n	800a628 <__gethex+0x1ec>
 800a614:	4553      	cmp	r3, sl
 800a616:	dd05      	ble.n	800a624 <__gethex+0x1e8>
 800a618:	4620      	mov	r0, r4
 800a61a:	1eb9      	subs	r1, r7, #2
 800a61c:	f000 fedd 	bl	800b3da <__any_on>
 800a620:	2800      	cmp	r0, #0
 800a622:	d144      	bne.n	800a6ae <__gethex+0x272>
 800a624:	f04f 0a02 	mov.w	sl, #2
 800a628:	4639      	mov	r1, r7
 800a62a:	4620      	mov	r0, r4
 800a62c:	f7ff fe9e 	bl	800a36c <rshift>
 800a630:	443d      	add	r5, r7
 800a632:	f8d8 3008 	ldr.w	r3, [r8, #8]
 800a636:	42ab      	cmp	r3, r5
 800a638:	da4a      	bge.n	800a6d0 <__gethex+0x294>
 800a63a:	4621      	mov	r1, r4
 800a63c:	9802      	ldr	r0, [sp, #8]
 800a63e:	f000 fa75 	bl	800ab2c <_Bfree>
 800a642:	2300      	movs	r3, #0
 800a644:	9a14      	ldr	r2, [sp, #80]	; 0x50
 800a646:	27a3      	movs	r7, #163	; 0xa3
 800a648:	6013      	str	r3, [r2, #0]
 800a64a:	e789      	b.n	800a560 <__gethex+0x124>
 800a64c:	1e73      	subs	r3, r6, #1
 800a64e:	9a06      	ldr	r2, [sp, #24]
 800a650:	9307      	str	r3, [sp, #28]
 800a652:	f816 3c01 	ldrb.w	r3, [r6, #-1]
 800a656:	4293      	cmp	r3, r2
 800a658:	d019      	beq.n	800a68e <__gethex+0x252>
 800a65a:	f1bb 0f20 	cmp.w	fp, #32
 800a65e:	d107      	bne.n	800a670 <__gethex+0x234>
 800a660:	9b04      	ldr	r3, [sp, #16]
 800a662:	9a01      	ldr	r2, [sp, #4]
 800a664:	f843 2b04 	str.w	r2, [r3], #4
 800a668:	9304      	str	r3, [sp, #16]
 800a66a:	2300      	movs	r3, #0
 800a66c:	469b      	mov	fp, r3
 800a66e:	9301      	str	r3, [sp, #4]
 800a670:	f816 0c01 	ldrb.w	r0, [r6, #-1]
 800a674:	f7ff fecd 	bl	800a412 <__hexdig_fun>
 800a678:	9b01      	ldr	r3, [sp, #4]
 800a67a:	f000 000f 	and.w	r0, r0, #15
 800a67e:	fa00 f00b 	lsl.w	r0, r0, fp
 800a682:	4303      	orrs	r3, r0
 800a684:	9301      	str	r3, [sp, #4]
 800a686:	f10b 0b04 	add.w	fp, fp, #4
 800a68a:	9b07      	ldr	r3, [sp, #28]
 800a68c:	e00d      	b.n	800a6aa <__gethex+0x26e>
 800a68e:	9a08      	ldr	r2, [sp, #32]
 800a690:	1e73      	subs	r3, r6, #1
 800a692:	4413      	add	r3, r2
 800a694:	42bb      	cmp	r3, r7
 800a696:	d3e0      	bcc.n	800a65a <__gethex+0x21e>
 800a698:	4618      	mov	r0, r3
 800a69a:	4652      	mov	r2, sl
 800a69c:	9903      	ldr	r1, [sp, #12]
 800a69e:	9309      	str	r3, [sp, #36]	; 0x24
 800a6a0:	f001 f91e 	bl	800b8e0 <strncmp>
 800a6a4:	9b09      	ldr	r3, [sp, #36]	; 0x24
 800a6a6:	2800      	cmp	r0, #0
 800a6a8:	d1d7      	bne.n	800a65a <__gethex+0x21e>
 800a6aa:	461e      	mov	r6, r3
 800a6ac:	e78c      	b.n	800a5c8 <__gethex+0x18c>
 800a6ae:	f04f 0a03 	mov.w	sl, #3
 800a6b2:	e7b9      	b.n	800a628 <__gethex+0x1ec>
 800a6b4:	da09      	bge.n	800a6ca <__gethex+0x28e>
 800a6b6:	1bf7      	subs	r7, r6, r7
 800a6b8:	4621      	mov	r1, r4
 800a6ba:	463a      	mov	r2, r7
 800a6bc:	9802      	ldr	r0, [sp, #8]
 800a6be:	f000 fc4d 	bl	800af5c <__lshift>
 800a6c2:	4604      	mov	r4, r0
 800a6c4:	1bed      	subs	r5, r5, r7
 800a6c6:	f100 0914 	add.w	r9, r0, #20
 800a6ca:	f04f 0a00 	mov.w	sl, #0
 800a6ce:	e7b0      	b.n	800a632 <__gethex+0x1f6>
 800a6d0:	f8d8 0004 	ldr.w	r0, [r8, #4]
 800a6d4:	42a8      	cmp	r0, r5
 800a6d6:	dd72      	ble.n	800a7be <__gethex+0x382>
 800a6d8:	1b45      	subs	r5, r0, r5
 800a6da:	42ae      	cmp	r6, r5
 800a6dc:	dc35      	bgt.n	800a74a <__gethex+0x30e>
 800a6de:	f8d8 300c 	ldr.w	r3, [r8, #12]
 800a6e2:	2b02      	cmp	r3, #2
 800a6e4:	d029      	beq.n	800a73a <__gethex+0x2fe>
 800a6e6:	2b03      	cmp	r3, #3
 800a6e8:	d02b      	beq.n	800a742 <__gethex+0x306>
 800a6ea:	2b01      	cmp	r3, #1
 800a6ec:	d11c      	bne.n	800a728 <__gethex+0x2ec>
 800a6ee:	42ae      	cmp	r6, r5
 800a6f0:	d11a      	bne.n	800a728 <__gethex+0x2ec>
 800a6f2:	2e01      	cmp	r6, #1
 800a6f4:	d112      	bne.n	800a71c <__gethex+0x2e0>
 800a6f6:	f8d8 3004 	ldr.w	r3, [r8, #4]
 800a6fa:	9a05      	ldr	r2, [sp, #20]
 800a6fc:	2762      	movs	r7, #98	; 0x62
 800a6fe:	6013      	str	r3, [r2, #0]
 800a700:	2301      	movs	r3, #1
 800a702:	6123      	str	r3, [r4, #16]
 800a704:	f8c9 3000 	str.w	r3, [r9]
 800a708:	9b14      	ldr	r3, [sp, #80]	; 0x50
 800a70a:	601c      	str	r4, [r3, #0]
 800a70c:	e728      	b.n	800a560 <__gethex+0x124>
 800a70e:	bf00      	nop
 800a710:	0800dfd8 	.word	0x0800dfd8
 800a714:	0800df60 	.word	0x0800df60
 800a718:	0800df71 	.word	0x0800df71
 800a71c:	4620      	mov	r0, r4
 800a71e:	1e71      	subs	r1, r6, #1
 800a720:	f000 fe5b 	bl	800b3da <__any_on>
 800a724:	2800      	cmp	r0, #0
 800a726:	d1e6      	bne.n	800a6f6 <__gethex+0x2ba>
 800a728:	4621      	mov	r1, r4
 800a72a:	9802      	ldr	r0, [sp, #8]
 800a72c:	f000 f9fe 	bl	800ab2c <_Bfree>
 800a730:	2300      	movs	r3, #0
 800a732:	9a14      	ldr	r2, [sp, #80]	; 0x50
 800a734:	2750      	movs	r7, #80	; 0x50
 800a736:	6013      	str	r3, [r2, #0]
 800a738:	e712      	b.n	800a560 <__gethex+0x124>
 800a73a:	9b15      	ldr	r3, [sp, #84]	; 0x54
 800a73c:	2b00      	cmp	r3, #0
 800a73e:	d1f3      	bne.n	800a728 <__gethex+0x2ec>
 800a740:	e7d9      	b.n	800a6f6 <__gethex+0x2ba>
 800a742:	9b15      	ldr	r3, [sp, #84]	; 0x54
 800a744:	2b00      	cmp	r3, #0
 800a746:	d1d6      	bne.n	800a6f6 <__gethex+0x2ba>
 800a748:	e7ee      	b.n	800a728 <__gethex+0x2ec>
 800a74a:	1e6f      	subs	r7, r5, #1
 800a74c:	f1ba 0f00 	cmp.w	sl, #0
 800a750:	d132      	bne.n	800a7b8 <__gethex+0x37c>
 800a752:	b127      	cbz	r7, 800a75e <__gethex+0x322>
 800a754:	4639      	mov	r1, r7
 800a756:	4620      	mov	r0, r4
 800a758:	f000 fe3f 	bl	800b3da <__any_on>
 800a75c:	4682      	mov	sl, r0
 800a75e:	2101      	movs	r1, #1
 800a760:	117b      	asrs	r3, r7, #5
 800a762:	f859 3023 	ldr.w	r3, [r9, r3, lsl #2]
 800a766:	f007 071f 	and.w	r7, r7, #31
 800a76a:	fa01 f707 	lsl.w	r7, r1, r7
 800a76e:	421f      	tst	r7, r3
 800a770:	f04f 0702 	mov.w	r7, #2
 800a774:	4629      	mov	r1, r5
 800a776:	4620      	mov	r0, r4
 800a778:	bf18      	it	ne
 800a77a:	f04a 0a02 	orrne.w	sl, sl, #2
 800a77e:	1b76      	subs	r6, r6, r5
 800a780:	f7ff fdf4 	bl	800a36c <rshift>
 800a784:	f8d8 5004 	ldr.w	r5, [r8, #4]
 800a788:	f1ba 0f00 	cmp.w	sl, #0
 800a78c:	d048      	beq.n	800a820 <__gethex+0x3e4>
 800a78e:	f8d8 300c 	ldr.w	r3, [r8, #12]
 800a792:	2b02      	cmp	r3, #2
 800a794:	d015      	beq.n	800a7c2 <__gethex+0x386>
 800a796:	2b03      	cmp	r3, #3
 800a798:	d017      	beq.n	800a7ca <__gethex+0x38e>
 800a79a:	2b01      	cmp	r3, #1
 800a79c:	d109      	bne.n	800a7b2 <__gethex+0x376>
 800a79e:	f01a 0f02 	tst.w	sl, #2
 800a7a2:	d006      	beq.n	800a7b2 <__gethex+0x376>
 800a7a4:	f8d9 0000 	ldr.w	r0, [r9]
 800a7a8:	ea4a 0a00 	orr.w	sl, sl, r0
 800a7ac:	f01a 0f01 	tst.w	sl, #1
 800a7b0:	d10e      	bne.n	800a7d0 <__gethex+0x394>
 800a7b2:	f047 0710 	orr.w	r7, r7, #16
 800a7b6:	e033      	b.n	800a820 <__gethex+0x3e4>
 800a7b8:	f04f 0a01 	mov.w	sl, #1
 800a7bc:	e7cf      	b.n	800a75e <__gethex+0x322>
 800a7be:	2701      	movs	r7, #1
 800a7c0:	e7e2      	b.n	800a788 <__gethex+0x34c>
 800a7c2:	9b15      	ldr	r3, [sp, #84]	; 0x54
 800a7c4:	f1c3 0301 	rsb	r3, r3, #1
 800a7c8:	9315      	str	r3, [sp, #84]	; 0x54
 800a7ca:	9b15      	ldr	r3, [sp, #84]	; 0x54
 800a7cc:	2b00      	cmp	r3, #0
 800a7ce:	d0f0      	beq.n	800a7b2 <__gethex+0x376>
 800a7d0:	f04f 0c00 	mov.w	ip, #0
 800a7d4:	f8d4 b010 	ldr.w	fp, [r4, #16]
 800a7d8:	f104 0314 	add.w	r3, r4, #20
 800a7dc:	ea4f 0a8b 	mov.w	sl, fp, lsl #2
 800a7e0:	eb03 018b 	add.w	r1, r3, fp, lsl #2
 800a7e4:	4618      	mov	r0, r3
 800a7e6:	f853 2b04 	ldr.w	r2, [r3], #4
 800a7ea:	f1b2 3fff 	cmp.w	r2, #4294967295
 800a7ee:	d01c      	beq.n	800a82a <__gethex+0x3ee>
 800a7f0:	3201      	adds	r2, #1
 800a7f2:	6002      	str	r2, [r0, #0]
 800a7f4:	2f02      	cmp	r7, #2
 800a7f6:	f104 0314 	add.w	r3, r4, #20
 800a7fa:	d13d      	bne.n	800a878 <__gethex+0x43c>
 800a7fc:	f8d8 2000 	ldr.w	r2, [r8]
 800a800:	3a01      	subs	r2, #1
 800a802:	42b2      	cmp	r2, r6
 800a804:	d10a      	bne.n	800a81c <__gethex+0x3e0>
 800a806:	2201      	movs	r2, #1
 800a808:	1171      	asrs	r1, r6, #5
 800a80a:	f853 3021 	ldr.w	r3, [r3, r1, lsl #2]
 800a80e:	f006 061f 	and.w	r6, r6, #31
 800a812:	fa02 f606 	lsl.w	r6, r2, r6
 800a816:	421e      	tst	r6, r3
 800a818:	bf18      	it	ne
 800a81a:	4617      	movne	r7, r2
 800a81c:	f047 0720 	orr.w	r7, r7, #32
 800a820:	9b14      	ldr	r3, [sp, #80]	; 0x50
 800a822:	601c      	str	r4, [r3, #0]
 800a824:	9b05      	ldr	r3, [sp, #20]
 800a826:	601d      	str	r5, [r3, #0]
 800a828:	e69a      	b.n	800a560 <__gethex+0x124>
 800a82a:	4299      	cmp	r1, r3
 800a82c:	f843 cc04 	str.w	ip, [r3, #-4]
 800a830:	d8d8      	bhi.n	800a7e4 <__gethex+0x3a8>
 800a832:	68a3      	ldr	r3, [r4, #8]
 800a834:	459b      	cmp	fp, r3
 800a836:	db17      	blt.n	800a868 <__gethex+0x42c>
 800a838:	6861      	ldr	r1, [r4, #4]
 800a83a:	9802      	ldr	r0, [sp, #8]
 800a83c:	3101      	adds	r1, #1
 800a83e:	f000 f935 	bl	800aaac <_Balloc>
 800a842:	4681      	mov	r9, r0
 800a844:	b918      	cbnz	r0, 800a84e <__gethex+0x412>
 800a846:	4602      	mov	r2, r0
 800a848:	2184      	movs	r1, #132	; 0x84
 800a84a:	4b19      	ldr	r3, [pc, #100]	; (800a8b0 <__gethex+0x474>)
 800a84c:	e6ab      	b.n	800a5a6 <__gethex+0x16a>
 800a84e:	6922      	ldr	r2, [r4, #16]
 800a850:	f104 010c 	add.w	r1, r4, #12
 800a854:	3202      	adds	r2, #2
 800a856:	0092      	lsls	r2, r2, #2
 800a858:	300c      	adds	r0, #12
 800a85a:	f000 f919 	bl	800aa90 <memcpy>
 800a85e:	4621      	mov	r1, r4
 800a860:	9802      	ldr	r0, [sp, #8]
 800a862:	f000 f963 	bl	800ab2c <_Bfree>
 800a866:	464c      	mov	r4, r9
 800a868:	6923      	ldr	r3, [r4, #16]
 800a86a:	1c5a      	adds	r2, r3, #1
 800a86c:	6122      	str	r2, [r4, #16]
 800a86e:	2201      	movs	r2, #1
 800a870:	eb04 0383 	add.w	r3, r4, r3, lsl #2
 800a874:	615a      	str	r2, [r3, #20]
 800a876:	e7bd      	b.n	800a7f4 <__gethex+0x3b8>
 800a878:	6922      	ldr	r2, [r4, #16]
 800a87a:	455a      	cmp	r2, fp
 800a87c:	dd0b      	ble.n	800a896 <__gethex+0x45a>
 800a87e:	2101      	movs	r1, #1
 800a880:	4620      	mov	r0, r4
 800a882:	f7ff fd73 	bl	800a36c <rshift>
 800a886:	f8d8 3008 	ldr.w	r3, [r8, #8]
 800a88a:	3501      	adds	r5, #1
 800a88c:	42ab      	cmp	r3, r5
 800a88e:	f6ff aed4 	blt.w	800a63a <__gethex+0x1fe>
 800a892:	2701      	movs	r7, #1
 800a894:	e7c2      	b.n	800a81c <__gethex+0x3e0>
 800a896:	f016 061f 	ands.w	r6, r6, #31
 800a89a:	d0fa      	beq.n	800a892 <__gethex+0x456>
 800a89c:	4453      	add	r3, sl
 800a89e:	f853 0c04 	ldr.w	r0, [r3, #-4]
 800a8a2:	f000 f9f5 	bl	800ac90 <__hi0bits>
 800a8a6:	f1c6 0620 	rsb	r6, r6, #32
 800a8aa:	42b0      	cmp	r0, r6
 800a8ac:	dbe7      	blt.n	800a87e <__gethex+0x442>
 800a8ae:	e7f0      	b.n	800a892 <__gethex+0x456>
 800a8b0:	0800df60 	.word	0x0800df60

0800a8b4 <L_shift>:
 800a8b4:	f1c2 0208 	rsb	r2, r2, #8
 800a8b8:	0092      	lsls	r2, r2, #2
 800a8ba:	b570      	push	{r4, r5, r6, lr}
 800a8bc:	f1c2 0620 	rsb	r6, r2, #32
 800a8c0:	6843      	ldr	r3, [r0, #4]
 800a8c2:	6804      	ldr	r4, [r0, #0]
 800a8c4:	fa03 f506 	lsl.w	r5, r3, r6
 800a8c8:	432c      	orrs	r4, r5
 800a8ca:	40d3      	lsrs	r3, r2
 800a8cc:	6004      	str	r4, [r0, #0]
 800a8ce:	f840 3f04 	str.w	r3, [r0, #4]!
 800a8d2:	4288      	cmp	r0, r1
 800a8d4:	d3f4      	bcc.n	800a8c0 <L_shift+0xc>
 800a8d6:	bd70      	pop	{r4, r5, r6, pc}

0800a8d8 <__match>:
 800a8d8:	b530      	push	{r4, r5, lr}
 800a8da:	6803      	ldr	r3, [r0, #0]
 800a8dc:	3301      	adds	r3, #1
 800a8de:	f811 4b01 	ldrb.w	r4, [r1], #1
 800a8e2:	b914      	cbnz	r4, 800a8ea <__match+0x12>
 800a8e4:	6003      	str	r3, [r0, #0]
 800a8e6:	2001      	movs	r0, #1
 800a8e8:	bd30      	pop	{r4, r5, pc}
 800a8ea:	f813 2b01 	ldrb.w	r2, [r3], #1
 800a8ee:	f1a2 0541 	sub.w	r5, r2, #65	; 0x41
 800a8f2:	2d19      	cmp	r5, #25
 800a8f4:	bf98      	it	ls
 800a8f6:	3220      	addls	r2, #32
 800a8f8:	42a2      	cmp	r2, r4
 800a8fa:	d0f0      	beq.n	800a8de <__match+0x6>
 800a8fc:	2000      	movs	r0, #0
 800a8fe:	e7f3      	b.n	800a8e8 <__match+0x10>

0800a900 <__hexnan>:
 800a900:	e92d 4ff0 	stmdb	sp!, {r4, r5, r6, r7, r8, r9, sl, fp, lr}
 800a904:	2500      	movs	r5, #0
 800a906:	680b      	ldr	r3, [r1, #0]
 800a908:	4682      	mov	sl, r0
 800a90a:	115e      	asrs	r6, r3, #5
 800a90c:	eb02 0686 	add.w	r6, r2, r6, lsl #2
 800a910:	f013 031f 	ands.w	r3, r3, #31
 800a914:	bf18      	it	ne
 800a916:	3604      	addne	r6, #4
 800a918:	1f37      	subs	r7, r6, #4
 800a91a:	46b9      	mov	r9, r7
 800a91c:	463c      	mov	r4, r7
 800a91e:	46ab      	mov	fp, r5
 800a920:	b087      	sub	sp, #28
 800a922:	4690      	mov	r8, r2
 800a924:	6802      	ldr	r2, [r0, #0]
 800a926:	9301      	str	r3, [sp, #4]
 800a928:	f846 5c04 	str.w	r5, [r6, #-4]
 800a92c:	9502      	str	r5, [sp, #8]
 800a92e:	7851      	ldrb	r1, [r2, #1]
 800a930:	1c53      	adds	r3, r2, #1
 800a932:	9303      	str	r3, [sp, #12]
 800a934:	b341      	cbz	r1, 800a988 <__hexnan+0x88>
 800a936:	4608      	mov	r0, r1
 800a938:	9205      	str	r2, [sp, #20]
 800a93a:	9104      	str	r1, [sp, #16]
 800a93c:	f7ff fd69 	bl	800a412 <__hexdig_fun>
 800a940:	2800      	cmp	r0, #0
 800a942:	d14f      	bne.n	800a9e4 <__hexnan+0xe4>
 800a944:	9904      	ldr	r1, [sp, #16]
 800a946:	9a05      	ldr	r2, [sp, #20]
 800a948:	2920      	cmp	r1, #32
 800a94a:	d818      	bhi.n	800a97e <__hexnan+0x7e>
 800a94c:	9b02      	ldr	r3, [sp, #8]
 800a94e:	459b      	cmp	fp, r3
 800a950:	dd13      	ble.n	800a97a <__hexnan+0x7a>
 800a952:	454c      	cmp	r4, r9
 800a954:	d206      	bcs.n	800a964 <__hexnan+0x64>
 800a956:	2d07      	cmp	r5, #7
 800a958:	dc04      	bgt.n	800a964 <__hexnan+0x64>
 800a95a:	462a      	mov	r2, r5
 800a95c:	4649      	mov	r1, r9
 800a95e:	4620      	mov	r0, r4
 800a960:	f7ff ffa8 	bl	800a8b4 <L_shift>
 800a964:	4544      	cmp	r4, r8
 800a966:	d950      	bls.n	800aa0a <__hexnan+0x10a>
 800a968:	2300      	movs	r3, #0
 800a96a:	f1a4 0904 	sub.w	r9, r4, #4
 800a96e:	f844 3c04 	str.w	r3, [r4, #-4]
 800a972:	461d      	mov	r5, r3
 800a974:	464c      	mov	r4, r9
 800a976:	f8cd b008 	str.w	fp, [sp, #8]
 800a97a:	9a03      	ldr	r2, [sp, #12]
 800a97c:	e7d7      	b.n	800a92e <__hexnan+0x2e>
 800a97e:	2929      	cmp	r1, #41	; 0x29
 800a980:	d156      	bne.n	800aa30 <__hexnan+0x130>
 800a982:	3202      	adds	r2, #2
 800a984:	f8ca 2000 	str.w	r2, [sl]
 800a988:	f1bb 0f00 	cmp.w	fp, #0
 800a98c:	d050      	beq.n	800aa30 <__hexnan+0x130>
 800a98e:	454c      	cmp	r4, r9
 800a990:	d206      	bcs.n	800a9a0 <__hexnan+0xa0>
 800a992:	2d07      	cmp	r5, #7
 800a994:	dc04      	bgt.n	800a9a0 <__hexnan+0xa0>
 800a996:	462a      	mov	r2, r5
 800a998:	4649      	mov	r1, r9
 800a99a:	4620      	mov	r0, r4
 800a99c:	f7ff ff8a 	bl	800a8b4 <L_shift>
 800a9a0:	4544      	cmp	r4, r8
 800a9a2:	d934      	bls.n	800aa0e <__hexnan+0x10e>
 800a9a4:	4623      	mov	r3, r4
 800a9a6:	f1a8 0204 	sub.w	r2, r8, #4
 800a9aa:	f853 1b04 	ldr.w	r1, [r3], #4
 800a9ae:	429f      	cmp	r7, r3
 800a9b0:	f842 1f04 	str.w	r1, [r2, #4]!
 800a9b4:	d2f9      	bcs.n	800a9aa <__hexnan+0xaa>
 800a9b6:	1b3b      	subs	r3, r7, r4
 800a9b8:	f023 0303 	bic.w	r3, r3, #3
 800a9bc:	3304      	adds	r3, #4
 800a9be:	3401      	adds	r4, #1
 800a9c0:	3e03      	subs	r6, #3
 800a9c2:	42b4      	cmp	r4, r6
 800a9c4:	bf88      	it	hi
 800a9c6:	2304      	movhi	r3, #4
 800a9c8:	2200      	movs	r2, #0
 800a9ca:	4443      	add	r3, r8
 800a9cc:	f843 2b04 	str.w	r2, [r3], #4
 800a9d0:	429f      	cmp	r7, r3
 800a9d2:	d2fb      	bcs.n	800a9cc <__hexnan+0xcc>
 800a9d4:	683b      	ldr	r3, [r7, #0]
 800a9d6:	b91b      	cbnz	r3, 800a9e0 <__hexnan+0xe0>
 800a9d8:	4547      	cmp	r7, r8
 800a9da:	d127      	bne.n	800aa2c <__hexnan+0x12c>
 800a9dc:	2301      	movs	r3, #1
 800a9de:	603b      	str	r3, [r7, #0]
 800a9e0:	2005      	movs	r0, #5
 800a9e2:	e026      	b.n	800aa32 <__hexnan+0x132>
 800a9e4:	3501      	adds	r5, #1
 800a9e6:	2d08      	cmp	r5, #8
 800a9e8:	f10b 0b01 	add.w	fp, fp, #1
 800a9ec:	dd06      	ble.n	800a9fc <__hexnan+0xfc>
 800a9ee:	4544      	cmp	r4, r8
 800a9f0:	d9c3      	bls.n	800a97a <__hexnan+0x7a>
 800a9f2:	2300      	movs	r3, #0
 800a9f4:	2501      	movs	r5, #1
 800a9f6:	f844 3c04 	str.w	r3, [r4, #-4]
 800a9fa:	3c04      	subs	r4, #4
 800a9fc:	6822      	ldr	r2, [r4, #0]
 800a9fe:	f000 000f 	and.w	r0, r0, #15
 800aa02:	ea40 1202 	orr.w	r2, r0, r2, lsl #4
 800aa06:	6022      	str	r2, [r4, #0]
 800aa08:	e7b7      	b.n	800a97a <__hexnan+0x7a>
 800aa0a:	2508      	movs	r5, #8
 800aa0c:	e7b5      	b.n	800a97a <__hexnan+0x7a>
 800aa0e:	9b01      	ldr	r3, [sp, #4]
 800aa10:	2b00      	cmp	r3, #0
 800aa12:	d0df      	beq.n	800a9d4 <__hexnan+0xd4>
 800aa14:	f04f 32ff 	mov.w	r2, #4294967295
 800aa18:	f1c3 0320 	rsb	r3, r3, #32
 800aa1c:	fa22 f303 	lsr.w	r3, r2, r3
 800aa20:	f856 2c04 	ldr.w	r2, [r6, #-4]
 800aa24:	401a      	ands	r2, r3
 800aa26:	f846 2c04 	str.w	r2, [r6, #-4]
 800aa2a:	e7d3      	b.n	800a9d4 <__hexnan+0xd4>
 800aa2c:	3f04      	subs	r7, #4
 800aa2e:	e7d1      	b.n	800a9d4 <__hexnan+0xd4>
 800aa30:	2004      	movs	r0, #4
 800aa32:	b007      	add	sp, #28
 800aa34:	e8bd 8ff0 	ldmia.w	sp!, {r4, r5, r6, r7, r8, r9, sl, fp, pc}

0800aa38 <_localeconv_r>:
 800aa38:	4800      	ldr	r0, [pc, #0]	; (800aa3c <_localeconv_r+0x4>)
 800aa3a:	4770      	bx	lr
 800aa3c:	2000016c 	.word	0x2000016c

0800aa40 <malloc>:
 800aa40:	4b02      	ldr	r3, [pc, #8]	; (800aa4c <malloc+0xc>)
 800aa42:	4601      	mov	r1, r0
 800aa44:	6818      	ldr	r0, [r3, #0]
 800aa46:	f000 bd65 	b.w	800b514 <_malloc_r>
 800aa4a:	bf00      	nop
 800aa4c:	20000014 	.word	0x20000014

0800aa50 <__ascii_mbtowc>:
 800aa50:	b082      	sub	sp, #8
 800aa52:	b901      	cbnz	r1, 800aa56 <__ascii_mbtowc+0x6>
 800aa54:	a901      	add	r1, sp, #4
 800aa56:	b142      	cbz	r2, 800aa6a <__ascii_mbtowc+0x1a>
 800aa58:	b14b      	cbz	r3, 800aa6e <__ascii_mbtowc+0x1e>
 800aa5a:	7813      	ldrb	r3, [r2, #0]
 800aa5c:	600b      	str	r3, [r1, #0]
 800aa5e:	7812      	ldrb	r2, [r2, #0]
 800aa60:	1e10      	subs	r0, r2, #0
 800aa62:	bf18      	it	ne
 800aa64:	2001      	movne	r0, #1
 800aa66:	b002      	add	sp, #8
 800aa68:	4770      	bx	lr
 800aa6a:	4610      	mov	r0, r2
 800aa6c:	e7fb      	b.n	800aa66 <__ascii_mbtowc+0x16>
 800aa6e:	f06f 0001 	mvn.w	r0, #1
 800aa72:	e7f8      	b.n	800aa66 <__ascii_mbtowc+0x16>

0800aa74 <memchr>:
 800aa74:	4603      	mov	r3, r0
 800aa76:	b510      	push	{r4, lr}
 800aa78:	b2c9      	uxtb	r1, r1
 800aa7a:	4402      	add	r2, r0
 800aa7c:	4293      	cmp	r3, r2
 800aa7e:	4618      	mov	r0, r3
 800aa80:	d101      	bne.n	800aa86 <memchr+0x12>
 800aa82:	2000      	movs	r0, #0
 800aa84:	e003      	b.n	800aa8e <memchr+0x1a>
 800aa86:	7804      	ldrb	r4, [r0, #0]
 800aa88:	3301      	adds	r3, #1
 800aa8a:	428c      	cmp	r4, r1
 800aa8c:	d1f6      	bne.n	800aa7c <memchr+0x8>
 800aa8e:	bd10      	pop	{r4, pc}

0800aa90 <memcpy>:
 800aa90:	440a      	add	r2, r1
 800aa92:	4291      	cmp	r1, r2
 800aa94:	f100 33ff 	add.w	r3, r0, #4294967295
 800aa98:	d100      	bne.n	800aa9c <memcpy+0xc>
 800aa9a:	4770      	bx	lr
 800aa9c:	b510      	push	{r4, lr}
 800aa9e:	f811 4b01 	ldrb.w	r4, [r1], #1
 800aaa2:	4291      	cmp	r1, r2
 800aaa4:	f803 4f01 	strb.w	r4, [r3, #1]!
 800aaa8:	d1f9      	bne.n	800aa9e <memcpy+0xe>
 800aaaa:	bd10      	pop	{r4, pc}

0800aaac <_Balloc>:
 800aaac:	b570      	push	{r4, r5, r6, lr}
 800aaae:	6a46      	ldr	r6, [r0, #36]	; 0x24
 800aab0:	4604      	mov	r4, r0
 800aab2:	460d      	mov	r5, r1
 800aab4:	b976      	cbnz	r6, 800aad4 <_Balloc+0x28>
 800aab6:	2010      	movs	r0, #16
 800aab8:	f7ff ffc2 	bl	800aa40 <malloc>
 800aabc:	4602      	mov	r2, r0
 800aabe:	6260      	str	r0, [r4, #36]	; 0x24
 800aac0:	b920      	cbnz	r0, 800aacc <_Balloc+0x20>
 800aac2:	2166      	movs	r1, #102	; 0x66
 800aac4:	4b17      	ldr	r3, [pc, #92]	; (800ab24 <_Balloc+0x78>)
 800aac6:	4818      	ldr	r0, [pc, #96]	; (800ab28 <_Balloc+0x7c>)
 800aac8:	f000 ff2c 	bl	800b924 <__assert_func>
 800aacc:	e9c0 6601 	strd	r6, r6, [r0, #4]
 800aad0:	6006      	str	r6, [r0, #0]
 800aad2:	60c6      	str	r6, [r0, #12]
 800aad4:	6a66      	ldr	r6, [r4, #36]	; 0x24
 800aad6:	68f3      	ldr	r3, [r6, #12]
 800aad8:	b183      	cbz	r3, 800aafc <_Balloc+0x50>
 800aada:	6a63      	ldr	r3, [r4, #36]	; 0x24
 800aadc:	68db      	ldr	r3, [r3, #12]
 800aade:	f853 0025 	ldr.w	r0, [r3, r5, lsl #2]
 800aae2:	b9b8      	cbnz	r0, 800ab14 <_Balloc+0x68>
 800aae4:	2101      	movs	r1, #1
 800aae6:	fa01 f605 	lsl.w	r6, r1, r5
 800aaea:	1d72      	adds	r2, r6, #5
 800aaec:	4620      	mov	r0, r4
 800aaee:	0092      	lsls	r2, r2, #2
 800aaf0:	f000 fc94 	bl	800b41c <_calloc_r>
 800aaf4:	b160      	cbz	r0, 800ab10 <_Balloc+0x64>
 800aaf6:	e9c0 5601 	strd	r5, r6, [r0, #4]
 800aafa:	e00e      	b.n	800ab1a <_Balloc+0x6e>
 800aafc:	2221      	movs	r2, #33	; 0x21
 800aafe:	2104      	movs	r1, #4
 800ab00:	4620      	mov	r0, r4
 800ab02:	f000 fc8b 	bl	800b41c <_calloc_r>
 800ab06:	6a63      	ldr	r3, [r4, #36]	; 0x24
 800ab08:	60f0      	str	r0, [r6, #12]
 800ab0a:	68db      	ldr	r3, [r3, #12]
 800ab0c:	2b00      	cmp	r3, #0
 800ab0e:	d1e4      	bne.n	800aada <_Balloc+0x2e>
 800ab10:	2000      	movs	r0, #0
 800ab12:	bd70      	pop	{r4, r5, r6, pc}
 800ab14:	6802      	ldr	r2, [r0, #0]
 800ab16:	f843 2025 	str.w	r2, [r3, r5, lsl #2]
 800ab1a:	2300      	movs	r3, #0
 800ab1c:	e9c0 3303 	strd	r3, r3, [r0, #12]
 800ab20:	e7f7      	b.n	800ab12 <_Balloc+0x66>
 800ab22:	bf00      	nop
 800ab24:	0800deee 	.word	0x0800deee
 800ab28:	0800dfec 	.word	0x0800dfec

0800ab2c <_Bfree>:
 800ab2c:	b570      	push	{r4, r5, r6, lr}
 800ab2e:	6a46      	ldr	r6, [r0, #36]	; 0x24
 800ab30:	4605      	mov	r5, r0
 800ab32:	460c      	mov	r4, r1
 800ab34:	b976      	cbnz	r6, 800ab54 <_Bfree+0x28>
 800ab36:	2010      	movs	r0, #16
 800ab38:	f7ff ff82 	bl	800aa40 <malloc>
 800ab3c:	4602      	mov	r2, r0
 800ab3e:	6268      	str	r0, [r5, #36]	; 0x24
 800ab40:	b920      	cbnz	r0, 800ab4c <_Bfree+0x20>
 800ab42:	218a      	movs	r1, #138	; 0x8a
 800ab44:	4b08      	ldr	r3, [pc, #32]	; (800ab68 <_Bfree+0x3c>)
 800ab46:	4809      	ldr	r0, [pc, #36]	; (800ab6c <_Bfree+0x40>)
 800ab48:	f000 feec 	bl	800b924 <__assert_func>
 800ab4c:	e9c0 6601 	strd	r6, r6, [r0, #4]
 800ab50:	6006      	str	r6, [r0, #0]
 800ab52:	60c6      	str	r6, [r0, #12]
 800ab54:	b13c      	cbz	r4, 800ab66 <_Bfree+0x3a>
 800ab56:	6a6b      	ldr	r3, [r5, #36]	; 0x24
 800ab58:	6862      	ldr	r2, [r4, #4]
 800ab5a:	68db      	ldr	r3, [r3, #12]
 800ab5c:	f853 1022 	ldr.w	r1, [r3, r2, lsl #2]
 800ab60:	6021      	str	r1, [r4, #0]
 800ab62:	f843 4022 	str.w	r4, [r3, r2, lsl #2]
 800ab66:	bd70      	pop	{r4, r5, r6, pc}
 800ab68:	0800deee 	.word	0x0800deee
 800ab6c:	0800dfec 	.word	0x0800dfec

0800ab70 <__multadd>:
 800ab70:	e92d 41f0 	stmdb	sp!, {r4, r5, r6, r7, r8, lr}
 800ab74:	4607      	mov	r7, r0
 800ab76:	460c      	mov	r4, r1
 800ab78:	461e      	mov	r6, r3
 800ab7a:	2000      	movs	r0, #0
 800ab7c:	690d      	ldr	r5, [r1, #16]
 800ab7e:	f101 0c14 	add.w	ip, r1, #20
 800ab82:	f8dc 3000 	ldr.w	r3, [ip]
 800ab86:	3001      	adds	r0, #1
 800ab88:	b299      	uxth	r1, r3
 800ab8a:	fb02 6101 	mla	r1, r2, r1, r6
 800ab8e:	0c1e      	lsrs	r6, r3, #16
 800ab90:	0c0b      	lsrs	r3, r1, #16
 800ab92:	fb02 3306 	mla	r3, r2, r6, r3
 800ab96:	b289      	uxth	r1, r1
 800ab98:	eb01 4103 	add.w	r1, r1, r3, lsl #16
 800ab9c:	4285      	cmp	r5, r0
 800ab9e:	ea4f 4613 	mov.w	r6, r3, lsr #16
 800aba2:	f84c 1b04 	str.w	r1, [ip], #4
 800aba6:	dcec      	bgt.n	800ab82 <__multadd+0x12>
 800aba8:	b30e      	cbz	r6, 800abee <__multadd+0x7e>
 800abaa:	68a3      	ldr	r3, [r4, #8]
 800abac:	42ab      	cmp	r3, r5
 800abae:	dc19      	bgt.n	800abe4 <__multadd+0x74>
 800abb0:	6861      	ldr	r1, [r4, #4]
 800abb2:	4638      	mov	r0, r7
 800abb4:	3101      	adds	r1, #1
 800abb6:	f7ff ff79 	bl	800aaac <_Balloc>
 800abba:	4680      	mov	r8, r0
 800abbc:	b928      	cbnz	r0, 800abca <__multadd+0x5a>
 800abbe:	4602      	mov	r2, r0
 800abc0:	21b5      	movs	r1, #181	; 0xb5
 800abc2:	4b0c      	ldr	r3, [pc, #48]	; (800abf4 <__multadd+0x84>)
 800abc4:	480c      	ldr	r0, [pc, #48]	; (800abf8 <__multadd+0x88>)
 800abc6:	f000 fead 	bl	800b924 <__assert_func>
 800abca:	6922      	ldr	r2, [r4, #16]
 800abcc:	f104 010c 	add.w	r1, r4, #12
 800abd0:	3202      	adds	r2, #2
 800abd2:	0092      	lsls	r2, r2, #2
 800abd4:	300c      	adds	r0, #12
 800abd6:	f7ff ff5b 	bl	800aa90 <memcpy>
 800abda:	4621      	mov	r1, r4
 800abdc:	4638      	mov	r0, r7
 800abde:	f7ff ffa5 	bl	800ab2c <_Bfree>
 800abe2:	4644      	mov	r4, r8
 800abe4:	eb04 0385 	add.w	r3, r4, r5, lsl #2
 800abe8:	3501      	adds	r5, #1
 800abea:	615e      	str	r6, [r3, #20]
 800abec:	6125      	str	r5, [r4, #16]
 800abee:	4620      	mov	r0, r4
 800abf0:	e8bd 81f0 	ldmia.w	sp!, {r4, r5, r6, r7, r8, pc}
 800abf4:	0800df60 	.word	0x0800df60
 800abf8:	0800dfec 	.word	0x0800dfec

0800abfc <__s2b>:
 800abfc:	e92d 43f8 	stmdb	sp!, {r3, r4, r5, r6, r7, r8, r9, lr}
 800ac00:	4615      	mov	r5, r2
 800ac02:	2209      	movs	r2, #9
 800ac04:	461f      	mov	r7, r3
 800ac06:	3308      	adds	r3, #8
 800ac08:	460c      	mov	r4, r1
 800ac0a:	fb93 f3f2 	sdiv	r3, r3, r2
 800ac0e:	4606      	mov	r6, r0
 800ac10:	2201      	movs	r2, #1
 800ac12:	2100      	movs	r1, #0
 800ac14:	429a      	cmp	r2, r3
 800ac16:	db09      	blt.n	800ac2c <__s2b+0x30>
 800ac18:	4630      	mov	r0, r6
 800ac1a:	f7ff ff47 	bl	800aaac <_Balloc>
 800ac1e:	b940      	cbnz	r0, 800ac32 <__s2b+0x36>
 800ac20:	4602      	mov	r2, r0
 800ac22:	21ce      	movs	r1, #206	; 0xce
 800ac24:	4b18      	ldr	r3, [pc, #96]	; (800ac88 <__s2b+0x8c>)
 800ac26:	4819      	ldr	r0, [pc, #100]	; (800ac8c <__s2b+0x90>)
 800ac28:	f000 fe7c 	bl	800b924 <__assert_func>
 800ac2c:	0052      	lsls	r2, r2, #1
 800ac2e:	3101      	adds	r1, #1
 800ac30:	e7f0      	b.n	800ac14 <__s2b+0x18>
 800ac32:	9b08      	ldr	r3, [sp, #32]
 800ac34:	2d09      	cmp	r5, #9
 800ac36:	6143      	str	r3, [r0, #20]
 800ac38:	f04f 0301 	mov.w	r3, #1
 800ac3c:	6103      	str	r3, [r0, #16]
 800ac3e:	dd16      	ble.n	800ac6e <__s2b+0x72>
 800ac40:	f104 0909 	add.w	r9, r4, #9
 800ac44:	46c8      	mov	r8, r9
 800ac46:	442c      	add	r4, r5
 800ac48:	f818 3b01 	ldrb.w	r3, [r8], #1
 800ac4c:	4601      	mov	r1, r0
 800ac4e:	220a      	movs	r2, #10
 800ac50:	4630      	mov	r0, r6
 800ac52:	3b30      	subs	r3, #48	; 0x30
 800ac54:	f7ff ff8c 	bl	800ab70 <__multadd>
 800ac58:	45a0      	cmp	r8, r4
 800ac5a:	d1f5      	bne.n	800ac48 <__s2b+0x4c>
 800ac5c:	f1a5 0408 	sub.w	r4, r5, #8
 800ac60:	444c      	add	r4, r9
 800ac62:	1b2d      	subs	r5, r5, r4
 800ac64:	1963      	adds	r3, r4, r5
 800ac66:	42bb      	cmp	r3, r7
 800ac68:	db04      	blt.n	800ac74 <__s2b+0x78>
 800ac6a:	e8bd 83f8 	ldmia.w	sp!, {r3, r4, r5, r6, r7, r8, r9, pc}
 800ac6e:	2509      	movs	r5, #9
 800ac70:	340a      	adds	r4, #10
 800ac72:	e7f6      	b.n	800ac62 <__s2b+0x66>
 800ac74:	f814 3b01 	ldrb.w	r3, [r4], #1
 800ac78:	4601      	mov	r1, r0
 800ac7a:	220a      	movs	r2, #10
 800ac7c:	4630      	mov	r0, r6
 800ac7e:	3b30      	subs	r3, #48	; 0x30
 800ac80:	f7ff ff76 	bl	800ab70 <__multadd>
 800ac84:	e7ee      	b.n	800ac64 <__s2b+0x68>
 800ac86:	bf00      	nop
 800ac88:	0800df60 	.word	0x0800df60
 800ac8c:	0800dfec 	.word	0x0800dfec

0800ac90 <__hi0bits>:
 800ac90:	0c02      	lsrs	r2, r0, #16
 800ac92:	0412      	lsls	r2, r2, #16
 800ac94:	4603      	mov	r3, r0
 800ac96:	b9ca      	cbnz	r2, 800accc <__hi0bits+0x3c>
 800ac98:	0403      	lsls	r3, r0, #16
 800ac9a:	2010      	movs	r0, #16
 800ac9c:	f013 4f7f 	tst.w	r3, #4278190080	; 0xff000000
 800aca0:	bf04      	itt	eq
 800aca2:	021b      	lsleq	r3, r3, #8
 800aca4:	3008      	addeq	r0, #8
 800aca6:	f013 4f70 	tst.w	r3, #4026531840	; 0xf0000000
 800acaa:	bf04      	itt	eq
 800acac:	011b      	lsleq	r3, r3, #4
 800acae:	3004      	addeq	r0, #4
 800acb0:	f013 4f40 	tst.w	r3, #3221225472	; 0xc0000000
 800acb4:	bf04      	itt	eq
 800acb6:	009b      	lsleq	r3, r3, #2
 800acb8:	3002      	addeq	r0, #2
 800acba:	2b00      	cmp	r3, #0
 800acbc:	db05      	blt.n	800acca <__hi0bits+0x3a>
 800acbe:	f013 4f80 	tst.w	r3, #1073741824	; 0x40000000
 800acc2:	f100 0001 	add.w	r0, r0, #1
 800acc6:	bf08      	it	eq
 800acc8:	2020      	moveq	r0, #32
 800acca:	4770      	bx	lr
 800accc:	2000      	movs	r0, #0
 800acce:	e7e5      	b.n	800ac9c <__hi0bits+0xc>

0800acd0 <__lo0bits>:
 800acd0:	6803      	ldr	r3, [r0, #0]
 800acd2:	4602      	mov	r2, r0
 800acd4:	f013 0007 	ands.w	r0, r3, #7
 800acd8:	d00b      	beq.n	800acf2 <__lo0bits+0x22>
 800acda:	07d9      	lsls	r1, r3, #31
 800acdc:	d421      	bmi.n	800ad22 <__lo0bits+0x52>
 800acde:	0798      	lsls	r0, r3, #30
 800ace0:	bf49      	itett	mi
 800ace2:	085b      	lsrmi	r3, r3, #1
 800ace4:	089b      	lsrpl	r3, r3, #2
 800ace6:	2001      	movmi	r0, #1
 800ace8:	6013      	strmi	r3, [r2, #0]
 800acea:	bf5c      	itt	pl
 800acec:	2002      	movpl	r0, #2
 800acee:	6013      	strpl	r3, [r2, #0]
 800acf0:	4770      	bx	lr
 800acf2:	b299      	uxth	r1, r3
 800acf4:	b909      	cbnz	r1, 800acfa <__lo0bits+0x2a>
 800acf6:	2010      	movs	r0, #16
 800acf8:	0c1b      	lsrs	r3, r3, #16
 800acfa:	b2d9      	uxtb	r1, r3
 800acfc:	b909      	cbnz	r1, 800ad02 <__lo0bits+0x32>
 800acfe:	3008      	adds	r0, #8
 800ad00:	0a1b      	lsrs	r3, r3, #8
 800ad02:	0719      	lsls	r1, r3, #28
 800ad04:	bf04      	itt	eq
 800ad06:	091b      	lsreq	r3, r3, #4
 800ad08:	3004      	addeq	r0, #4
 800ad0a:	0799      	lsls	r1, r3, #30
 800ad0c:	bf04      	itt	eq
 800ad0e:	089b      	lsreq	r3, r3, #2
 800ad10:	3002      	addeq	r0, #2
 800ad12:	07d9      	lsls	r1, r3, #31
 800ad14:	d403      	bmi.n	800ad1e <__lo0bits+0x4e>
 800ad16:	085b      	lsrs	r3, r3, #1
 800ad18:	f100 0001 	add.w	r0, r0, #1
 800ad1c:	d003      	beq.n	800ad26 <__lo0bits+0x56>
 800ad1e:	6013      	str	r3, [r2, #0]
 800ad20:	4770      	bx	lr
 800ad22:	2000      	movs	r0, #0
 800ad24:	4770      	bx	lr
 800ad26:	2020      	movs	r0, #32
 800ad28:	4770      	bx	lr
	...

0800ad2c <__i2b>:
 800ad2c:	b510      	push	{r4, lr}
 800ad2e:	460c      	mov	r4, r1
 800ad30:	2101      	movs	r1, #1
 800ad32:	f7ff febb 	bl	800aaac <_Balloc>
 800ad36:	4602      	mov	r2, r0
 800ad38:	b928      	cbnz	r0, 800ad46 <__i2b+0x1a>
 800ad3a:	f44f 71a0 	mov.w	r1, #320	; 0x140
 800ad3e:	4b04      	ldr	r3, [pc, #16]	; (800ad50 <__i2b+0x24>)
 800ad40:	4804      	ldr	r0, [pc, #16]	; (800ad54 <__i2b+0x28>)
 800ad42:	f000 fdef 	bl	800b924 <__assert_func>
 800ad46:	2301      	movs	r3, #1
 800ad48:	6144      	str	r4, [r0, #20]
 800ad4a:	6103      	str	r3, [r0, #16]
 800ad4c:	bd10      	pop	{r4, pc}
 800ad4e:	bf00      	nop
 800ad50:	0800df60 	.word	0x0800df60
 800ad54:	0800dfec 	.word	0x0800dfec

0800ad58 <__multiply>:
 800ad58:	e92d 4ff0 	stmdb	sp!, {r4, r5, r6, r7, r8, r9, sl, fp, lr}
 800ad5c:	4691      	mov	r9, r2
 800ad5e:	690a      	ldr	r2, [r1, #16]
 800ad60:	f8d9 3010 	ldr.w	r3, [r9, #16]
 800ad64:	460c      	mov	r4, r1
 800ad66:	429a      	cmp	r2, r3
 800ad68:	bfbe      	ittt	lt
 800ad6a:	460b      	movlt	r3, r1
 800ad6c:	464c      	movlt	r4, r9
 800ad6e:	4699      	movlt	r9, r3
 800ad70:	6927      	ldr	r7, [r4, #16]
 800ad72:	f8d9 a010 	ldr.w	sl, [r9, #16]
 800ad76:	68a3      	ldr	r3, [r4, #8]
 800ad78:	6861      	ldr	r1, [r4, #4]
 800ad7a:	eb07 060a 	add.w	r6, r7, sl
 800ad7e:	42b3      	cmp	r3, r6
 800ad80:	b085      	sub	sp, #20
 800ad82:	bfb8      	it	lt
 800ad84:	3101      	addlt	r1, #1
 800ad86:	f7ff fe91 	bl	800aaac <_Balloc>
 800ad8a:	b930      	cbnz	r0, 800ad9a <__multiply+0x42>
 800ad8c:	4602      	mov	r2, r0
 800ad8e:	f240 115d 	movw	r1, #349	; 0x15d
 800ad92:	4b43      	ldr	r3, [pc, #268]	; (800aea0 <__multiply+0x148>)
 800ad94:	4843      	ldr	r0, [pc, #268]	; (800aea4 <__multiply+0x14c>)
 800ad96:	f000 fdc5 	bl	800b924 <__assert_func>
 800ad9a:	f100 0514 	add.w	r5, r0, #20
 800ad9e:	462b      	mov	r3, r5
 800ada0:	2200      	movs	r2, #0
 800ada2:	eb05 0886 	add.w	r8, r5, r6, lsl #2
 800ada6:	4543      	cmp	r3, r8
 800ada8:	d321      	bcc.n	800adee <__multiply+0x96>
 800adaa:	f104 0314 	add.w	r3, r4, #20
 800adae:	eb03 0787 	add.w	r7, r3, r7, lsl #2
 800adb2:	f109 0314 	add.w	r3, r9, #20
 800adb6:	eb03 028a 	add.w	r2, r3, sl, lsl #2
 800adba:	9202      	str	r2, [sp, #8]
 800adbc:	1b3a      	subs	r2, r7, r4
 800adbe:	3a15      	subs	r2, #21
 800adc0:	f022 0203 	bic.w	r2, r2, #3
 800adc4:	3204      	adds	r2, #4
 800adc6:	f104 0115 	add.w	r1, r4, #21
 800adca:	428f      	cmp	r7, r1
 800adcc:	bf38      	it	cc
 800adce:	2204      	movcc	r2, #4
 800add0:	9201      	str	r2, [sp, #4]
 800add2:	9a02      	ldr	r2, [sp, #8]
 800add4:	9303      	str	r3, [sp, #12]
 800add6:	429a      	cmp	r2, r3
 800add8:	d80c      	bhi.n	800adf4 <__multiply+0x9c>
 800adda:	2e00      	cmp	r6, #0
 800addc:	dd03      	ble.n	800ade6 <__multiply+0x8e>
 800adde:	f858 3d04 	ldr.w	r3, [r8, #-4]!
 800ade2:	2b00      	cmp	r3, #0
 800ade4:	d059      	beq.n	800ae9a <__multiply+0x142>
 800ade6:	6106      	str	r6, [r0, #16]
 800ade8:	b005      	add	sp, #20
 800adea:	e8bd 8ff0 	ldmia.w	sp!, {r4, r5, r6, r7, r8, r9, sl, fp, pc}
 800adee:	f843 2b04 	str.w	r2, [r3], #4
 800adf2:	e7d8      	b.n	800ada6 <__multiply+0x4e>
 800adf4:	f8b3 a000 	ldrh.w	sl, [r3]
 800adf8:	f1ba 0f00 	cmp.w	sl, #0
 800adfc:	d023      	beq.n	800ae46 <__multiply+0xee>
 800adfe:	46a9      	mov	r9, r5
 800ae00:	f04f 0c00 	mov.w	ip, #0
 800ae04:	f104 0e14 	add.w	lr, r4, #20
 800ae08:	f85e 2b04 	ldr.w	r2, [lr], #4
 800ae0c:	f8d9 1000 	ldr.w	r1, [r9]
 800ae10:	fa1f fb82 	uxth.w	fp, r2
 800ae14:	b289      	uxth	r1, r1
 800ae16:	fb0a 110b 	mla	r1, sl, fp, r1
 800ae1a:	4461      	add	r1, ip
 800ae1c:	f8d9 c000 	ldr.w	ip, [r9]
 800ae20:	0c12      	lsrs	r2, r2, #16
 800ae22:	ea4f 4c1c 	mov.w	ip, ip, lsr #16
 800ae26:	fb0a c202 	mla	r2, sl, r2, ip
 800ae2a:	eb02 4211 	add.w	r2, r2, r1, lsr #16
 800ae2e:	b289      	uxth	r1, r1
 800ae30:	ea41 4102 	orr.w	r1, r1, r2, lsl #16
 800ae34:	4577      	cmp	r7, lr
 800ae36:	ea4f 4c12 	mov.w	ip, r2, lsr #16
 800ae3a:	f849 1b04 	str.w	r1, [r9], #4
 800ae3e:	d8e3      	bhi.n	800ae08 <__multiply+0xb0>
 800ae40:	9a01      	ldr	r2, [sp, #4]
 800ae42:	f845 c002 	str.w	ip, [r5, r2]
 800ae46:	9a03      	ldr	r2, [sp, #12]
 800ae48:	3304      	adds	r3, #4
 800ae4a:	f8b2 9002 	ldrh.w	r9, [r2, #2]
 800ae4e:	f1b9 0f00 	cmp.w	r9, #0
 800ae52:	d020      	beq.n	800ae96 <__multiply+0x13e>
 800ae54:	46ae      	mov	lr, r5
 800ae56:	f04f 0a00 	mov.w	sl, #0
 800ae5a:	6829      	ldr	r1, [r5, #0]
 800ae5c:	f104 0c14 	add.w	ip, r4, #20
 800ae60:	f8bc b000 	ldrh.w	fp, [ip]
 800ae64:	f8be 2002 	ldrh.w	r2, [lr, #2]
 800ae68:	b289      	uxth	r1, r1
 800ae6a:	fb09 220b 	mla	r2, r9, fp, r2
 800ae6e:	4492      	add	sl, r2
 800ae70:	ea41 410a 	orr.w	r1, r1, sl, lsl #16
 800ae74:	f84e 1b04 	str.w	r1, [lr], #4
 800ae78:	f85c 2b04 	ldr.w	r2, [ip], #4
 800ae7c:	f8be 1000 	ldrh.w	r1, [lr]
 800ae80:	0c12      	lsrs	r2, r2, #16
 800ae82:	fb09 1102 	mla	r1, r9, r2, r1
 800ae86:	4567      	cmp	r7, ip
 800ae88:	eb01 411a 	add.w	r1, r1, sl, lsr #16
 800ae8c:	ea4f 4a11 	mov.w	sl, r1, lsr #16
 800ae90:	d8e6      	bhi.n	800ae60 <__multiply+0x108>
 800ae92:	9a01      	ldr	r2, [sp, #4]
 800ae94:	50a9      	str	r1, [r5, r2]
 800ae96:	3504      	adds	r5, #4
 800ae98:	e79b      	b.n	800add2 <__multiply+0x7a>
 800ae9a:	3e01      	subs	r6, #1
 800ae9c:	e79d      	b.n	800adda <__multiply+0x82>
 800ae9e:	bf00      	nop
 800aea0:	0800df60 	.word	0x0800df60
 800aea4:	0800dfec 	.word	0x0800dfec

0800aea8 <__pow5mult>:
 800aea8:	e92d 43f8 	stmdb	sp!, {r3, r4, r5, r6, r7, r8, r9, lr}
 800aeac:	4615      	mov	r5, r2
 800aeae:	f012 0203 	ands.w	r2, r2, #3
 800aeb2:	4606      	mov	r6, r0
 800aeb4:	460f      	mov	r7, r1
 800aeb6:	d007      	beq.n	800aec8 <__pow5mult+0x20>
 800aeb8:	4c25      	ldr	r4, [pc, #148]	; (800af50 <__pow5mult+0xa8>)
 800aeba:	3a01      	subs	r2, #1
 800aebc:	2300      	movs	r3, #0
 800aebe:	f854 2022 	ldr.w	r2, [r4, r2, lsl #2]
 800aec2:	f7ff fe55 	bl	800ab70 <__multadd>
 800aec6:	4607      	mov	r7, r0
 800aec8:	10ad      	asrs	r5, r5, #2
 800aeca:	d03d      	beq.n	800af48 <__pow5mult+0xa0>
 800aecc:	6a74      	ldr	r4, [r6, #36]	; 0x24
 800aece:	b97c      	cbnz	r4, 800aef0 <__pow5mult+0x48>
 800aed0:	2010      	movs	r0, #16
 800aed2:	f7ff fdb5 	bl	800aa40 <malloc>
 800aed6:	4602      	mov	r2, r0
 800aed8:	6270      	str	r0, [r6, #36]	; 0x24
 800aeda:	b928      	cbnz	r0, 800aee8 <__pow5mult+0x40>
 800aedc:	f44f 71d7 	mov.w	r1, #430	; 0x1ae
 800aee0:	4b1c      	ldr	r3, [pc, #112]	; (800af54 <__pow5mult+0xac>)
 800aee2:	481d      	ldr	r0, [pc, #116]	; (800af58 <__pow5mult+0xb0>)
 800aee4:	f000 fd1e 	bl	800b924 <__assert_func>
 800aee8:	e9c0 4401 	strd	r4, r4, [r0, #4]
 800aeec:	6004      	str	r4, [r0, #0]
 800aeee:	60c4      	str	r4, [r0, #12]
 800aef0:	f8d6 8024 	ldr.w	r8, [r6, #36]	; 0x24
 800aef4:	f8d8 4008 	ldr.w	r4, [r8, #8]
 800aef8:	b94c      	cbnz	r4, 800af0e <__pow5mult+0x66>
 800aefa:	f240 2171 	movw	r1, #625	; 0x271
 800aefe:	4630      	mov	r0, r6
 800af00:	f7ff ff14 	bl	800ad2c <__i2b>
 800af04:	2300      	movs	r3, #0
 800af06:	4604      	mov	r4, r0
 800af08:	f8c8 0008 	str.w	r0, [r8, #8]
 800af0c:	6003      	str	r3, [r0, #0]
 800af0e:	f04f 0900 	mov.w	r9, #0
 800af12:	07eb      	lsls	r3, r5, #31
 800af14:	d50a      	bpl.n	800af2c <__pow5mult+0x84>
 800af16:	4639      	mov	r1, r7
 800af18:	4622      	mov	r2, r4
 800af1a:	4630      	mov	r0, r6
 800af1c:	f7ff ff1c 	bl	800ad58 <__multiply>
 800af20:	4680      	mov	r8, r0
 800af22:	4639      	mov	r1, r7
 800af24:	4630      	mov	r0, r6
 800af26:	f7ff fe01 	bl	800ab2c <_Bfree>
 800af2a:	4647      	mov	r7, r8
 800af2c:	106d      	asrs	r5, r5, #1
 800af2e:	d00b      	beq.n	800af48 <__pow5mult+0xa0>
 800af30:	6820      	ldr	r0, [r4, #0]
 800af32:	b938      	cbnz	r0, 800af44 <__pow5mult+0x9c>
 800af34:	4622      	mov	r2, r4
 800af36:	4621      	mov	r1, r4
 800af38:	4630      	mov	r0, r6
 800af3a:	f7ff ff0d 	bl	800ad58 <__multiply>
 800af3e:	6020      	str	r0, [r4, #0]
 800af40:	f8c0 9000 	str.w	r9, [r0]
 800af44:	4604      	mov	r4, r0
 800af46:	e7e4      	b.n	800af12 <__pow5mult+0x6a>
 800af48:	4638      	mov	r0, r7
 800af4a:	e8bd 83f8 	ldmia.w	sp!, {r3, r4, r5, r6, r7, r8, r9, pc}
 800af4e:	bf00      	nop
 800af50:	0800e138 	.word	0x0800e138
 800af54:	0800deee 	.word	0x0800deee
 800af58:	0800dfec 	.word	0x0800dfec

0800af5c <__lshift>:
 800af5c:	e92d 47f0 	stmdb	sp!, {r4, r5, r6, r7, r8, r9, sl, lr}
 800af60:	460c      	mov	r4, r1
 800af62:	4607      	mov	r7, r0
 800af64:	4691      	mov	r9, r2
 800af66:	6923      	ldr	r3, [r4, #16]
 800af68:	6849      	ldr	r1, [r1, #4]
 800af6a:	eb03 1862 	add.w	r8, r3, r2, asr #5
 800af6e:	68a3      	ldr	r3, [r4, #8]
 800af70:	ea4f 1a62 	mov.w	sl, r2, asr #5
 800af74:	f108 0601 	add.w	r6, r8, #1
 800af78:	42b3      	cmp	r3, r6
 800af7a:	db0b      	blt.n	800af94 <__lshift+0x38>
 800af7c:	4638      	mov	r0, r7
 800af7e:	f7ff fd95 	bl	800aaac <_Balloc>
 800af82:	4605      	mov	r5, r0
 800af84:	b948      	cbnz	r0, 800af9a <__lshift+0x3e>
 800af86:	4602      	mov	r2, r0
 800af88:	f240 11d9 	movw	r1, #473	; 0x1d9
 800af8c:	4b29      	ldr	r3, [pc, #164]	; (800b034 <__lshift+0xd8>)
 800af8e:	482a      	ldr	r0, [pc, #168]	; (800b038 <__lshift+0xdc>)
 800af90:	f000 fcc8 	bl	800b924 <__assert_func>
 800af94:	3101      	adds	r1, #1
 800af96:	005b      	lsls	r3, r3, #1
 800af98:	e7ee      	b.n	800af78 <__lshift+0x1c>
 800af9a:	2300      	movs	r3, #0
 800af9c:	f100 0114 	add.w	r1, r0, #20
 800afa0:	f100 0210 	add.w	r2, r0, #16
 800afa4:	4618      	mov	r0, r3
 800afa6:	4553      	cmp	r3, sl
 800afa8:	db37      	blt.n	800b01a <__lshift+0xbe>
 800afaa:	6920      	ldr	r0, [r4, #16]
 800afac:	ea2a 7aea 	bic.w	sl, sl, sl, asr #31
 800afb0:	f104 0314 	add.w	r3, r4, #20
 800afb4:	f019 091f 	ands.w	r9, r9, #31
 800afb8:	eb01 018a 	add.w	r1, r1, sl, lsl #2
 800afbc:	eb03 0080 	add.w	r0, r3, r0, lsl #2
 800afc0:	d02f      	beq.n	800b022 <__lshift+0xc6>
 800afc2:	468a      	mov	sl, r1
 800afc4:	f04f 0c00 	mov.w	ip, #0
 800afc8:	f1c9 0e20 	rsb	lr, r9, #32
 800afcc:	681a      	ldr	r2, [r3, #0]
 800afce:	fa02 f209 	lsl.w	r2, r2, r9
 800afd2:	ea42 020c 	orr.w	r2, r2, ip
 800afd6:	f84a 2b04 	str.w	r2, [sl], #4
 800afda:	f853 2b04 	ldr.w	r2, [r3], #4
 800afde:	4298      	cmp	r0, r3
 800afe0:	fa22 fc0e 	lsr.w	ip, r2, lr
 800afe4:	d8f2      	bhi.n	800afcc <__lshift+0x70>
 800afe6:	1b03      	subs	r3, r0, r4
 800afe8:	3b15      	subs	r3, #21
 800afea:	f023 0303 	bic.w	r3, r3, #3
 800afee:	3304      	adds	r3, #4
 800aff0:	f104 0215 	add.w	r2, r4, #21
 800aff4:	4290      	cmp	r0, r2
 800aff6:	bf38      	it	cc
 800aff8:	2304      	movcc	r3, #4
 800affa:	f841 c003 	str.w	ip, [r1, r3]
 800affe:	f1bc 0f00 	cmp.w	ip, #0
 800b002:	d001      	beq.n	800b008 <__lshift+0xac>
 800b004:	f108 0602 	add.w	r6, r8, #2
 800b008:	3e01      	subs	r6, #1
 800b00a:	4638      	mov	r0, r7
 800b00c:	4621      	mov	r1, r4
 800b00e:	612e      	str	r6, [r5, #16]
 800b010:	f7ff fd8c 	bl	800ab2c <_Bfree>
 800b014:	4628      	mov	r0, r5
 800b016:	e8bd 87f0 	ldmia.w	sp!, {r4, r5, r6, r7, r8, r9, sl, pc}
 800b01a:	f842 0f04 	str.w	r0, [r2, #4]!
 800b01e:	3301      	adds	r3, #1
 800b020:	e7c1      	b.n	800afa6 <__lshift+0x4a>
 800b022:	3904      	subs	r1, #4
 800b024:	f853 2b04 	ldr.w	r2, [r3], #4
 800b028:	4298      	cmp	r0, r3
 800b02a:	f841 2f04 	str.w	r2, [r1, #4]!
 800b02e:	d8f9      	bhi.n	800b024 <__lshift+0xc8>
 800b030:	e7ea      	b.n	800b008 <__lshift+0xac>
 800b032:	bf00      	nop
 800b034:	0800df60 	.word	0x0800df60
 800b038:	0800dfec 	.word	0x0800dfec

0800b03c <__mcmp>:
 800b03c:	4603      	mov	r3, r0
 800b03e:	690a      	ldr	r2, [r1, #16]
 800b040:	6900      	ldr	r0, [r0, #16]
 800b042:	b530      	push	{r4, r5, lr}
 800b044:	1a80      	subs	r0, r0, r2
 800b046:	d10d      	bne.n	800b064 <__mcmp+0x28>
 800b048:	3314      	adds	r3, #20
 800b04a:	3114      	adds	r1, #20
 800b04c:	eb03 0482 	add.w	r4, r3, r2, lsl #2
 800b050:	eb01 0182 	add.w	r1, r1, r2, lsl #2
 800b054:	f854 5d04 	ldr.w	r5, [r4, #-4]!
 800b058:	f851 2d04 	ldr.w	r2, [r1, #-4]!
 800b05c:	4295      	cmp	r5, r2
 800b05e:	d002      	beq.n	800b066 <__mcmp+0x2a>
 800b060:	d304      	bcc.n	800b06c <__mcmp+0x30>
 800b062:	2001      	movs	r0, #1
 800b064:	bd30      	pop	{r4, r5, pc}
 800b066:	42a3      	cmp	r3, r4
 800b068:	d3f4      	bcc.n	800b054 <__mcmp+0x18>
 800b06a:	e7fb      	b.n	800b064 <__mcmp+0x28>
 800b06c:	f04f 30ff 	mov.w	r0, #4294967295
 800b070:	e7f8      	b.n	800b064 <__mcmp+0x28>
	...

0800b074 <__mdiff>:
 800b074:	e92d 4ff8 	stmdb	sp!, {r3, r4, r5, r6, r7, r8, r9, sl, fp, lr}
 800b078:	460d      	mov	r5, r1
 800b07a:	4607      	mov	r7, r0
 800b07c:	4611      	mov	r1, r2
 800b07e:	4628      	mov	r0, r5
 800b080:	4614      	mov	r4, r2
 800b082:	f7ff ffdb 	bl	800b03c <__mcmp>
 800b086:	1e06      	subs	r6, r0, #0
 800b088:	d111      	bne.n	800b0ae <__mdiff+0x3a>
 800b08a:	4631      	mov	r1, r6
 800b08c:	4638      	mov	r0, r7
 800b08e:	f7ff fd0d 	bl	800aaac <_Balloc>
 800b092:	4602      	mov	r2, r0
 800b094:	b928      	cbnz	r0, 800b0a2 <__mdiff+0x2e>
 800b096:	f240 2132 	movw	r1, #562	; 0x232
 800b09a:	4b3a      	ldr	r3, [pc, #232]	; (800b184 <__mdiff+0x110>)
 800b09c:	483a      	ldr	r0, [pc, #232]	; (800b188 <__mdiff+0x114>)
 800b09e:	f000 fc41 	bl	800b924 <__assert_func>
 800b0a2:	2301      	movs	r3, #1
 800b0a4:	e9c0 3604 	strd	r3, r6, [r0, #16]
 800b0a8:	4610      	mov	r0, r2
 800b0aa:	e8bd 8ff8 	ldmia.w	sp!, {r3, r4, r5, r6, r7, r8, r9, sl, fp, pc}
 800b0ae:	bfa4      	itt	ge
 800b0b0:	4623      	movge	r3, r4
 800b0b2:	462c      	movge	r4, r5
 800b0b4:	4638      	mov	r0, r7
 800b0b6:	6861      	ldr	r1, [r4, #4]
 800b0b8:	bfa6      	itte	ge
 800b0ba:	461d      	movge	r5, r3
 800b0bc:	2600      	movge	r6, #0
 800b0be:	2601      	movlt	r6, #1
 800b0c0:	f7ff fcf4 	bl	800aaac <_Balloc>
 800b0c4:	4602      	mov	r2, r0
 800b0c6:	b918      	cbnz	r0, 800b0d0 <__mdiff+0x5c>
 800b0c8:	f44f 7110 	mov.w	r1, #576	; 0x240
 800b0cc:	4b2d      	ldr	r3, [pc, #180]	; (800b184 <__mdiff+0x110>)
 800b0ce:	e7e5      	b.n	800b09c <__mdiff+0x28>
 800b0d0:	f102 0814 	add.w	r8, r2, #20
 800b0d4:	46c2      	mov	sl, r8
 800b0d6:	f04f 0c00 	mov.w	ip, #0
 800b0da:	6927      	ldr	r7, [r4, #16]
 800b0dc:	60c6      	str	r6, [r0, #12]
 800b0de:	692e      	ldr	r6, [r5, #16]
 800b0e0:	f104 0014 	add.w	r0, r4, #20
 800b0e4:	f105 0914 	add.w	r9, r5, #20
 800b0e8:	eb00 0e87 	add.w	lr, r0, r7, lsl #2
 800b0ec:	eb09 0686 	add.w	r6, r9, r6, lsl #2
 800b0f0:	3410      	adds	r4, #16
 800b0f2:	f854 bf04 	ldr.w	fp, [r4, #4]!
 800b0f6:	f859 3b04 	ldr.w	r3, [r9], #4
 800b0fa:	fa1f f18b 	uxth.w	r1, fp
 800b0fe:	448c      	add	ip, r1
 800b100:	b299      	uxth	r1, r3
 800b102:	0c1b      	lsrs	r3, r3, #16
 800b104:	ebac 0101 	sub.w	r1, ip, r1
 800b108:	ebc3 431b 	rsb	r3, r3, fp, lsr #16
 800b10c:	eb03 4321 	add.w	r3, r3, r1, asr #16
 800b110:	b289      	uxth	r1, r1
 800b112:	ea4f 4c23 	mov.w	ip, r3, asr #16
 800b116:	454e      	cmp	r6, r9
 800b118:	ea41 4303 	orr.w	r3, r1, r3, lsl #16
 800b11c:	f84a 3b04 	str.w	r3, [sl], #4
 800b120:	d8e7      	bhi.n	800b0f2 <__mdiff+0x7e>
 800b122:	1b73      	subs	r3, r6, r5
 800b124:	3b15      	subs	r3, #21
 800b126:	f023 0303 	bic.w	r3, r3, #3
 800b12a:	3515      	adds	r5, #21
 800b12c:	3304      	adds	r3, #4
 800b12e:	42ae      	cmp	r6, r5
 800b130:	bf38      	it	cc
 800b132:	2304      	movcc	r3, #4
 800b134:	4418      	add	r0, r3
 800b136:	4443      	add	r3, r8
 800b138:	461e      	mov	r6, r3
 800b13a:	4605      	mov	r5, r0
 800b13c:	4575      	cmp	r5, lr
 800b13e:	d30e      	bcc.n	800b15e <__mdiff+0xea>
 800b140:	f10e 0103 	add.w	r1, lr, #3
 800b144:	1a09      	subs	r1, r1, r0
 800b146:	f021 0103 	bic.w	r1, r1, #3
 800b14a:	3803      	subs	r0, #3
 800b14c:	4586      	cmp	lr, r0
 800b14e:	bf38      	it	cc
 800b150:	2100      	movcc	r1, #0
 800b152:	4419      	add	r1, r3
 800b154:	f851 3d04 	ldr.w	r3, [r1, #-4]!
 800b158:	b18b      	cbz	r3, 800b17e <__mdiff+0x10a>
 800b15a:	6117      	str	r7, [r2, #16]
 800b15c:	e7a4      	b.n	800b0a8 <__mdiff+0x34>
 800b15e:	f855 8b04 	ldr.w	r8, [r5], #4
 800b162:	fa1f f188 	uxth.w	r1, r8
 800b166:	4461      	add	r1, ip
 800b168:	140c      	asrs	r4, r1, #16
 800b16a:	eb04 4418 	add.w	r4, r4, r8, lsr #16
 800b16e:	b289      	uxth	r1, r1
 800b170:	ea41 4104 	orr.w	r1, r1, r4, lsl #16
 800b174:	ea4f 4c24 	mov.w	ip, r4, asr #16
 800b178:	f846 1b04 	str.w	r1, [r6], #4
 800b17c:	e7de      	b.n	800b13c <__mdiff+0xc8>
 800b17e:	3f01      	subs	r7, #1
 800b180:	e7e8      	b.n	800b154 <__mdiff+0xe0>
 800b182:	bf00      	nop
 800b184:	0800df60 	.word	0x0800df60
 800b188:	0800dfec 	.word	0x0800dfec

0800b18c <__ulp>:
 800b18c:	4b11      	ldr	r3, [pc, #68]	; (800b1d4 <__ulp+0x48>)
 800b18e:	400b      	ands	r3, r1
 800b190:	f1a3 7350 	sub.w	r3, r3, #54525952	; 0x3400000
 800b194:	2b00      	cmp	r3, #0
 800b196:	dd02      	ble.n	800b19e <__ulp+0x12>
 800b198:	2000      	movs	r0, #0
 800b19a:	4619      	mov	r1, r3
 800b19c:	4770      	bx	lr
 800b19e:	425b      	negs	r3, r3
 800b1a0:	f1b3 7fa0 	cmp.w	r3, #20971520	; 0x1400000
 800b1a4:	f04f 0000 	mov.w	r0, #0
 800b1a8:	f04f 0100 	mov.w	r1, #0
 800b1ac:	ea4f 5223 	mov.w	r2, r3, asr #20
 800b1b0:	da04      	bge.n	800b1bc <__ulp+0x30>
 800b1b2:	f44f 2300 	mov.w	r3, #524288	; 0x80000
 800b1b6:	fa43 f102 	asr.w	r1, r3, r2
 800b1ba:	4770      	bx	lr
 800b1bc:	f1a2 0314 	sub.w	r3, r2, #20
 800b1c0:	2b1e      	cmp	r3, #30
 800b1c2:	bfd6      	itet	le
 800b1c4:	f04f 4200 	movle.w	r2, #2147483648	; 0x80000000
 800b1c8:	2301      	movgt	r3, #1
 800b1ca:	fa22 f303 	lsrle.w	r3, r2, r3
 800b1ce:	4618      	mov	r0, r3
 800b1d0:	4770      	bx	lr
 800b1d2:	bf00      	nop
 800b1d4:	7ff00000 	.word	0x7ff00000

0800b1d8 <__b2d>:
 800b1d8:	e92d 43f8 	stmdb	sp!, {r3, r4, r5, r6, r7, r8, r9, lr}
 800b1dc:	6907      	ldr	r7, [r0, #16]
 800b1de:	f100 0914 	add.w	r9, r0, #20
 800b1e2:	eb09 0787 	add.w	r7, r9, r7, lsl #2
 800b1e6:	f857 6c04 	ldr.w	r6, [r7, #-4]
 800b1ea:	f1a7 0804 	sub.w	r8, r7, #4
 800b1ee:	4630      	mov	r0, r6
 800b1f0:	f7ff fd4e 	bl	800ac90 <__hi0bits>
 800b1f4:	f1c0 0320 	rsb	r3, r0, #32
 800b1f8:	280a      	cmp	r0, #10
 800b1fa:	600b      	str	r3, [r1, #0]
 800b1fc:	491f      	ldr	r1, [pc, #124]	; (800b27c <__b2d+0xa4>)
 800b1fe:	dc17      	bgt.n	800b230 <__b2d+0x58>
 800b200:	45c1      	cmp	r9, r8
 800b202:	bf28      	it	cs
 800b204:	2200      	movcs	r2, #0
 800b206:	f1c0 0c0b 	rsb	ip, r0, #11
 800b20a:	fa26 f30c 	lsr.w	r3, r6, ip
 800b20e:	bf38      	it	cc
 800b210:	f857 2c08 	ldrcc.w	r2, [r7, #-8]
 800b214:	ea43 0501 	orr.w	r5, r3, r1
 800b218:	f100 0315 	add.w	r3, r0, #21
 800b21c:	fa06 f303 	lsl.w	r3, r6, r3
 800b220:	fa22 f20c 	lsr.w	r2, r2, ip
 800b224:	ea43 0402 	orr.w	r4, r3, r2
 800b228:	4620      	mov	r0, r4
 800b22a:	4629      	mov	r1, r5
 800b22c:	e8bd 83f8 	ldmia.w	sp!, {r3, r4, r5, r6, r7, r8, r9, pc}
 800b230:	45c1      	cmp	r9, r8
 800b232:	bf2e      	itee	cs
 800b234:	2200      	movcs	r2, #0
 800b236:	f857 2c08 	ldrcc.w	r2, [r7, #-8]
 800b23a:	f1a7 0808 	subcc.w	r8, r7, #8
 800b23e:	f1b0 030b 	subs.w	r3, r0, #11
 800b242:	d016      	beq.n	800b272 <__b2d+0x9a>
 800b244:	f1c3 0720 	rsb	r7, r3, #32
 800b248:	fa22 f107 	lsr.w	r1, r2, r7
 800b24c:	45c8      	cmp	r8, r9
 800b24e:	fa06 f603 	lsl.w	r6, r6, r3
 800b252:	ea46 0601 	orr.w	r6, r6, r1
 800b256:	bf94      	ite	ls
 800b258:	2100      	movls	r1, #0
 800b25a:	f858 1c04 	ldrhi.w	r1, [r8, #-4]
 800b25e:	f046 557f 	orr.w	r5, r6, #1069547520	; 0x3fc00000
 800b262:	fa02 f003 	lsl.w	r0, r2, r3
 800b266:	40f9      	lsrs	r1, r7
 800b268:	f445 1540 	orr.w	r5, r5, #3145728	; 0x300000
 800b26c:	ea40 0401 	orr.w	r4, r0, r1
 800b270:	e7da      	b.n	800b228 <__b2d+0x50>
 800b272:	4614      	mov	r4, r2
 800b274:	ea46 0501 	orr.w	r5, r6, r1
 800b278:	e7d6      	b.n	800b228 <__b2d+0x50>
 800b27a:	bf00      	nop
 800b27c:	3ff00000 	.word	0x3ff00000

0800b280 <__d2b>:
 800b280:	e92d 41f3 	stmdb	sp!, {r0, r1, r4, r5, r6, r7, r8, lr}
 800b284:	2101      	movs	r1, #1
 800b286:	e9dd 7608 	ldrd	r7, r6, [sp, #32]
 800b28a:	4690      	mov	r8, r2
 800b28c:	461d      	mov	r5, r3
 800b28e:	f7ff fc0d 	bl	800aaac <_Balloc>
 800b292:	4604      	mov	r4, r0
 800b294:	b930      	cbnz	r0, 800b2a4 <__d2b+0x24>
 800b296:	4602      	mov	r2, r0
 800b298:	f240 310a 	movw	r1, #778	; 0x30a
 800b29c:	4b24      	ldr	r3, [pc, #144]	; (800b330 <__d2b+0xb0>)
 800b29e:	4825      	ldr	r0, [pc, #148]	; (800b334 <__d2b+0xb4>)
 800b2a0:	f000 fb40 	bl	800b924 <__assert_func>
 800b2a4:	f3c5 0313 	ubfx	r3, r5, #0, #20
 800b2a8:	f3c5 550a 	ubfx	r5, r5, #20, #11
 800b2ac:	bb2d      	cbnz	r5, 800b2fa <__d2b+0x7a>
 800b2ae:	9301      	str	r3, [sp, #4]
 800b2b0:	f1b8 0300 	subs.w	r3, r8, #0
 800b2b4:	d026      	beq.n	800b304 <__d2b+0x84>
 800b2b6:	4668      	mov	r0, sp
 800b2b8:	9300      	str	r3, [sp, #0]
 800b2ba:	f7ff fd09 	bl	800acd0 <__lo0bits>
 800b2be:	9900      	ldr	r1, [sp, #0]
 800b2c0:	b1f0      	cbz	r0, 800b300 <__d2b+0x80>
 800b2c2:	9a01      	ldr	r2, [sp, #4]
 800b2c4:	f1c0 0320 	rsb	r3, r0, #32
 800b2c8:	fa02 f303 	lsl.w	r3, r2, r3
 800b2cc:	430b      	orrs	r3, r1
 800b2ce:	40c2      	lsrs	r2, r0
 800b2d0:	6163      	str	r3, [r4, #20]
 800b2d2:	9201      	str	r2, [sp, #4]
 800b2d4:	9b01      	ldr	r3, [sp, #4]
 800b2d6:	2b00      	cmp	r3, #0
 800b2d8:	bf14      	ite	ne
 800b2da:	2102      	movne	r1, #2
 800b2dc:	2101      	moveq	r1, #1
 800b2de:	61a3      	str	r3, [r4, #24]
 800b2e0:	6121      	str	r1, [r4, #16]
 800b2e2:	b1c5      	cbz	r5, 800b316 <__d2b+0x96>
 800b2e4:	f2a5 4533 	subw	r5, r5, #1075	; 0x433
 800b2e8:	4405      	add	r5, r0
 800b2ea:	f1c0 0035 	rsb	r0, r0, #53	; 0x35
 800b2ee:	603d      	str	r5, [r7, #0]
 800b2f0:	6030      	str	r0, [r6, #0]
 800b2f2:	4620      	mov	r0, r4
 800b2f4:	b002      	add	sp, #8
 800b2f6:	e8bd 81f0 	ldmia.w	sp!, {r4, r5, r6, r7, r8, pc}
 800b2fa:	f443 1380 	orr.w	r3, r3, #1048576	; 0x100000
 800b2fe:	e7d6      	b.n	800b2ae <__d2b+0x2e>
 800b300:	6161      	str	r1, [r4, #20]
 800b302:	e7e7      	b.n	800b2d4 <__d2b+0x54>
 800b304:	a801      	add	r0, sp, #4
 800b306:	f7ff fce3 	bl	800acd0 <__lo0bits>
 800b30a:	2101      	movs	r1, #1
 800b30c:	9b01      	ldr	r3, [sp, #4]
 800b30e:	6121      	str	r1, [r4, #16]
 800b310:	6163      	str	r3, [r4, #20]
 800b312:	3020      	adds	r0, #32
 800b314:	e7e5      	b.n	800b2e2 <__d2b+0x62>
 800b316:	eb04 0381 	add.w	r3, r4, r1, lsl #2
 800b31a:	f2a0 4032 	subw	r0, r0, #1074	; 0x432
 800b31e:	6038      	str	r0, [r7, #0]
 800b320:	6918      	ldr	r0, [r3, #16]
 800b322:	f7ff fcb5 	bl	800ac90 <__hi0bits>
 800b326:	ebc0 1141 	rsb	r1, r0, r1, lsl #5
 800b32a:	6031      	str	r1, [r6, #0]
 800b32c:	e7e1      	b.n	800b2f2 <__d2b+0x72>
 800b32e:	bf00      	nop
 800b330:	0800df60 	.word	0x0800df60
 800b334:	0800dfec 	.word	0x0800dfec

0800b338 <__ratio>:
 800b338:	e92d 4ff7 	stmdb	sp!, {r0, r1, r2, r4, r5, r6, r7, r8, r9, sl, fp, lr}
 800b33c:	4688      	mov	r8, r1
 800b33e:	4669      	mov	r1, sp
 800b340:	4681      	mov	r9, r0
 800b342:	f7ff ff49 	bl	800b1d8 <__b2d>
 800b346:	460f      	mov	r7, r1
 800b348:	4604      	mov	r4, r0
 800b34a:	460d      	mov	r5, r1
 800b34c:	4640      	mov	r0, r8
 800b34e:	a901      	add	r1, sp, #4
 800b350:	f7ff ff42 	bl	800b1d8 <__b2d>
 800b354:	f8d9 3010 	ldr.w	r3, [r9, #16]
 800b358:	f8d8 2010 	ldr.w	r2, [r8, #16]
 800b35c:	468b      	mov	fp, r1
 800b35e:	eba3 0c02 	sub.w	ip, r3, r2
 800b362:	e9dd 3200 	ldrd	r3, r2, [sp]
 800b366:	1a9b      	subs	r3, r3, r2
 800b368:	eb03 134c 	add.w	r3, r3, ip, lsl #5
 800b36c:	2b00      	cmp	r3, #0
 800b36e:	bfd5      	itete	le
 800b370:	460a      	movle	r2, r1
 800b372:	462a      	movgt	r2, r5
 800b374:	ebc3 3303 	rsble	r3, r3, r3, lsl #12
 800b378:	eb02 5703 	addgt.w	r7, r2, r3, lsl #20
 800b37c:	bfd8      	it	le
 800b37e:	eb02 5b03 	addle.w	fp, r2, r3, lsl #20
 800b382:	465b      	mov	r3, fp
 800b384:	4602      	mov	r2, r0
 800b386:	4639      	mov	r1, r7
 800b388:	4620      	mov	r0, r4
 800b38a:	f7f5 fa3b 	bl	8000804 <__aeabi_ddiv>
 800b38e:	b003      	add	sp, #12
 800b390:	e8bd 8ff0 	ldmia.w	sp!, {r4, r5, r6, r7, r8, r9, sl, fp, pc}

0800b394 <__copybits>:
 800b394:	3901      	subs	r1, #1
 800b396:	b570      	push	{r4, r5, r6, lr}
 800b398:	1149      	asrs	r1, r1, #5
 800b39a:	6914      	ldr	r4, [r2, #16]
 800b39c:	3101      	adds	r1, #1
 800b39e:	f102 0314 	add.w	r3, r2, #20
 800b3a2:	eb00 0181 	add.w	r1, r0, r1, lsl #2
 800b3a6:	eb03 0484 	add.w	r4, r3, r4, lsl #2
 800b3aa:	1f05      	subs	r5, r0, #4
 800b3ac:	42a3      	cmp	r3, r4
 800b3ae:	d30c      	bcc.n	800b3ca <__copybits+0x36>
 800b3b0:	1aa3      	subs	r3, r4, r2
 800b3b2:	3b11      	subs	r3, #17
 800b3b4:	f023 0303 	bic.w	r3, r3, #3
 800b3b8:	3211      	adds	r2, #17
 800b3ba:	42a2      	cmp	r2, r4
 800b3bc:	bf88      	it	hi
 800b3be:	2300      	movhi	r3, #0
 800b3c0:	4418      	add	r0, r3
 800b3c2:	2300      	movs	r3, #0
 800b3c4:	4288      	cmp	r0, r1
 800b3c6:	d305      	bcc.n	800b3d4 <__copybits+0x40>
 800b3c8:	bd70      	pop	{r4, r5, r6, pc}
 800b3ca:	f853 6b04 	ldr.w	r6, [r3], #4
 800b3ce:	f845 6f04 	str.w	r6, [r5, #4]!
 800b3d2:	e7eb      	b.n	800b3ac <__copybits+0x18>
 800b3d4:	f840 3b04 	str.w	r3, [r0], #4
 800b3d8:	e7f4      	b.n	800b3c4 <__copybits+0x30>

0800b3da <__any_on>:
 800b3da:	f100 0214 	add.w	r2, r0, #20
 800b3de:	6900      	ldr	r0, [r0, #16]
 800b3e0:	114b      	asrs	r3, r1, #5
 800b3e2:	4298      	cmp	r0, r3
 800b3e4:	b510      	push	{r4, lr}
 800b3e6:	db11      	blt.n	800b40c <__any_on+0x32>
 800b3e8:	dd0a      	ble.n	800b400 <__any_on+0x26>
 800b3ea:	f011 011f 	ands.w	r1, r1, #31
 800b3ee:	d007      	beq.n	800b400 <__any_on+0x26>
 800b3f0:	f852 4023 	ldr.w	r4, [r2, r3, lsl #2]
 800b3f4:	fa24 f001 	lsr.w	r0, r4, r1
 800b3f8:	fa00 f101 	lsl.w	r1, r0, r1
 800b3fc:	428c      	cmp	r4, r1
 800b3fe:	d10b      	bne.n	800b418 <__any_on+0x3e>
 800b400:	eb02 0383 	add.w	r3, r2, r3, lsl #2
 800b404:	4293      	cmp	r3, r2
 800b406:	d803      	bhi.n	800b410 <__any_on+0x36>
 800b408:	2000      	movs	r0, #0
 800b40a:	bd10      	pop	{r4, pc}
 800b40c:	4603      	mov	r3, r0
 800b40e:	e7f7      	b.n	800b400 <__any_on+0x26>
 800b410:	f853 1d04 	ldr.w	r1, [r3, #-4]!
 800b414:	2900      	cmp	r1, #0
 800b416:	d0f5      	beq.n	800b404 <__any_on+0x2a>
 800b418:	2001      	movs	r0, #1
 800b41a:	e7f6      	b.n	800b40a <__any_on+0x30>

0800b41c <_calloc_r>:
 800b41c:	b570      	push	{r4, r5, r6, lr}
 800b41e:	fba1 5402 	umull	r5, r4, r1, r2
 800b422:	b934      	cbnz	r4, 800b432 <_calloc_r+0x16>
 800b424:	4629      	mov	r1, r5
 800b426:	f000 f875 	bl	800b514 <_malloc_r>
 800b42a:	4606      	mov	r6, r0
 800b42c:	b928      	cbnz	r0, 800b43a <_calloc_r+0x1e>
 800b42e:	4630      	mov	r0, r6
 800b430:	bd70      	pop	{r4, r5, r6, pc}
 800b432:	220c      	movs	r2, #12
 800b434:	2600      	movs	r6, #0
 800b436:	6002      	str	r2, [r0, #0]
 800b438:	e7f9      	b.n	800b42e <_calloc_r+0x12>
 800b43a:	462a      	mov	r2, r5
 800b43c:	4621      	mov	r1, r4
 800b43e:	f7fc fbf1 	bl	8007c24 <memset>
 800b442:	e7f4      	b.n	800b42e <_calloc_r+0x12>

0800b444 <_free_r>:
 800b444:	b538      	push	{r3, r4, r5, lr}
 800b446:	4605      	mov	r5, r0
 800b448:	2900      	cmp	r1, #0
 800b44a:	d040      	beq.n	800b4ce <_free_r+0x8a>
 800b44c:	f851 3c04 	ldr.w	r3, [r1, #-4]
 800b450:	1f0c      	subs	r4, r1, #4
 800b452:	2b00      	cmp	r3, #0
 800b454:	bfb8      	it	lt
 800b456:	18e4      	addlt	r4, r4, r3
 800b458:	f000 faae 	bl	800b9b8 <__malloc_lock>
 800b45c:	4a1c      	ldr	r2, [pc, #112]	; (800b4d0 <_free_r+0x8c>)
 800b45e:	6813      	ldr	r3, [r2, #0]
 800b460:	b933      	cbnz	r3, 800b470 <_free_r+0x2c>
 800b462:	6063      	str	r3, [r4, #4]
 800b464:	6014      	str	r4, [r2, #0]
 800b466:	4628      	mov	r0, r5
 800b468:	e8bd 4038 	ldmia.w	sp!, {r3, r4, r5, lr}
 800b46c:	f000 baaa 	b.w	800b9c4 <__malloc_unlock>
 800b470:	42a3      	cmp	r3, r4
 800b472:	d908      	bls.n	800b486 <_free_r+0x42>
 800b474:	6820      	ldr	r0, [r4, #0]
 800b476:	1821      	adds	r1, r4, r0
 800b478:	428b      	cmp	r3, r1
 800b47a:	bf01      	itttt	eq
 800b47c:	6819      	ldreq	r1, [r3, #0]
 800b47e:	685b      	ldreq	r3, [r3, #4]
 800b480:	1809      	addeq	r1, r1, r0
 800b482:	6021      	streq	r1, [r4, #0]
 800b484:	e7ed      	b.n	800b462 <_free_r+0x1e>
 800b486:	461a      	mov	r2, r3
 800b488:	685b      	ldr	r3, [r3, #4]
 800b48a:	b10b      	cbz	r3, 800b490 <_free_r+0x4c>
 800b48c:	42a3      	cmp	r3, r4
 800b48e:	d9fa      	bls.n	800b486 <_free_r+0x42>
 800b490:	6811      	ldr	r1, [r2, #0]
 800b492:	1850      	adds	r0, r2, r1
 800b494:	42a0      	cmp	r0, r4
 800b496:	d10b      	bne.n	800b4b0 <_free_r+0x6c>
 800b498:	6820      	ldr	r0, [r4, #0]
 800b49a:	4401      	add	r1, r0
 800b49c:	1850      	adds	r0, r2, r1
 800b49e:	4283      	cmp	r3, r0
 800b4a0:	6011      	str	r1, [r2, #0]
 800b4a2:	d1e0      	bne.n	800b466 <_free_r+0x22>
 800b4a4:	6818      	ldr	r0, [r3, #0]
 800b4a6:	685b      	ldr	r3, [r3, #4]
 800b4a8:	4401      	add	r1, r0
 800b4aa:	6011      	str	r1, [r2, #0]
 800b4ac:	6053      	str	r3, [r2, #4]
 800b4ae:	e7da      	b.n	800b466 <_free_r+0x22>
 800b4b0:	d902      	bls.n	800b4b8 <_free_r+0x74>
 800b4b2:	230c      	movs	r3, #12
 800b4b4:	602b      	str	r3, [r5, #0]
 800b4b6:	e7d6      	b.n	800b466 <_free_r+0x22>
 800b4b8:	6820      	ldr	r0, [r4, #0]
 800b4ba:	1821      	adds	r1, r4, r0
 800b4bc:	428b      	cmp	r3, r1
 800b4be:	bf01      	itttt	eq
 800b4c0:	6819      	ldreq	r1, [r3, #0]
 800b4c2:	685b      	ldreq	r3, [r3, #4]
 800b4c4:	1809      	addeq	r1, r1, r0
 800b4c6:	6021      	streq	r1, [r4, #0]
 800b4c8:	6063      	str	r3, [r4, #4]
 800b4ca:	6054      	str	r4, [r2, #4]
 800b4cc:	e7cb      	b.n	800b466 <_free_r+0x22>
 800b4ce:	bd38      	pop	{r3, r4, r5, pc}
 800b4d0:	2000032c 	.word	0x2000032c

0800b4d4 <sbrk_aligned>:
 800b4d4:	b570      	push	{r4, r5, r6, lr}
 800b4d6:	4e0e      	ldr	r6, [pc, #56]	; (800b510 <sbrk_aligned+0x3c>)
 800b4d8:	460c      	mov	r4, r1
 800b4da:	6831      	ldr	r1, [r6, #0]
 800b4dc:	4605      	mov	r5, r0
 800b4de:	b911      	cbnz	r1, 800b4e6 <sbrk_aligned+0x12>
 800b4e0:	f000 f9ee 	bl	800b8c0 <_sbrk_r>
 800b4e4:	6030      	str	r0, [r6, #0]
 800b4e6:	4621      	mov	r1, r4
 800b4e8:	4628      	mov	r0, r5
 800b4ea:	f000 f9e9 	bl	800b8c0 <_sbrk_r>
 800b4ee:	1c43      	adds	r3, r0, #1
 800b4f0:	d00a      	beq.n	800b508 <sbrk_aligned+0x34>
 800b4f2:	1cc4      	adds	r4, r0, #3
 800b4f4:	f024 0403 	bic.w	r4, r4, #3
 800b4f8:	42a0      	cmp	r0, r4
 800b4fa:	d007      	beq.n	800b50c <sbrk_aligned+0x38>
 800b4fc:	1a21      	subs	r1, r4, r0
 800b4fe:	4628      	mov	r0, r5
 800b500:	f000 f9de 	bl	800b8c0 <_sbrk_r>
 800b504:	3001      	adds	r0, #1
 800b506:	d101      	bne.n	800b50c <sbrk_aligned+0x38>
 800b508:	f04f 34ff 	mov.w	r4, #4294967295
 800b50c:	4620      	mov	r0, r4
 800b50e:	bd70      	pop	{r4, r5, r6, pc}
 800b510:	20000330 	.word	0x20000330

0800b514 <_malloc_r>:
 800b514:	e92d 41f0 	stmdb	sp!, {r4, r5, r6, r7, r8, lr}
 800b518:	1ccd      	adds	r5, r1, #3
 800b51a:	f025 0503 	bic.w	r5, r5, #3
 800b51e:	3508      	adds	r5, #8
 800b520:	2d0c      	cmp	r5, #12
 800b522:	bf38      	it	cc
 800b524:	250c      	movcc	r5, #12
 800b526:	2d00      	cmp	r5, #0
 800b528:	4607      	mov	r7, r0
 800b52a:	db01      	blt.n	800b530 <_malloc_r+0x1c>
 800b52c:	42a9      	cmp	r1, r5
 800b52e:	d905      	bls.n	800b53c <_malloc_r+0x28>
 800b530:	230c      	movs	r3, #12
 800b532:	2600      	movs	r6, #0
 800b534:	603b      	str	r3, [r7, #0]
 800b536:	4630      	mov	r0, r6
 800b538:	e8bd 81f0 	ldmia.w	sp!, {r4, r5, r6, r7, r8, pc}
 800b53c:	4e2e      	ldr	r6, [pc, #184]	; (800b5f8 <_malloc_r+0xe4>)
 800b53e:	f000 fa3b 	bl	800b9b8 <__malloc_lock>
 800b542:	6833      	ldr	r3, [r6, #0]
 800b544:	461c      	mov	r4, r3
 800b546:	bb34      	cbnz	r4, 800b596 <_malloc_r+0x82>
 800b548:	4629      	mov	r1, r5
 800b54a:	4638      	mov	r0, r7
 800b54c:	f7ff ffc2 	bl	800b4d4 <sbrk_aligned>
 800b550:	1c43      	adds	r3, r0, #1
 800b552:	4604      	mov	r4, r0
 800b554:	d14d      	bne.n	800b5f2 <_malloc_r+0xde>
 800b556:	6834      	ldr	r4, [r6, #0]
 800b558:	4626      	mov	r6, r4
 800b55a:	2e00      	cmp	r6, #0
 800b55c:	d140      	bne.n	800b5e0 <_malloc_r+0xcc>
 800b55e:	6823      	ldr	r3, [r4, #0]
 800b560:	4631      	mov	r1, r6
 800b562:	4638      	mov	r0, r7
 800b564:	eb04 0803 	add.w	r8, r4, r3
 800b568:	f000 f9aa 	bl	800b8c0 <_sbrk_r>
 800b56c:	4580      	cmp	r8, r0
 800b56e:	d13a      	bne.n	800b5e6 <_malloc_r+0xd2>
 800b570:	6821      	ldr	r1, [r4, #0]
 800b572:	3503      	adds	r5, #3
 800b574:	1a6d      	subs	r5, r5, r1
 800b576:	f025 0503 	bic.w	r5, r5, #3
 800b57a:	3508      	adds	r5, #8
 800b57c:	2d0c      	cmp	r5, #12
 800b57e:	bf38      	it	cc
 800b580:	250c      	movcc	r5, #12
 800b582:	4638      	mov	r0, r7
 800b584:	4629      	mov	r1, r5
 800b586:	f7ff ffa5 	bl	800b4d4 <sbrk_aligned>
 800b58a:	3001      	adds	r0, #1
 800b58c:	d02b      	beq.n	800b5e6 <_malloc_r+0xd2>
 800b58e:	6823      	ldr	r3, [r4, #0]
 800b590:	442b      	add	r3, r5
 800b592:	6023      	str	r3, [r4, #0]
 800b594:	e00e      	b.n	800b5b4 <_malloc_r+0xa0>
 800b596:	6822      	ldr	r2, [r4, #0]
 800b598:	1b52      	subs	r2, r2, r5
 800b59a:	d41e      	bmi.n	800b5da <_malloc_r+0xc6>
 800b59c:	2a0b      	cmp	r2, #11
 800b59e:	d916      	bls.n	800b5ce <_malloc_r+0xba>
 800b5a0:	1961      	adds	r1, r4, r5
 800b5a2:	42a3      	cmp	r3, r4
 800b5a4:	6025      	str	r5, [r4, #0]
 800b5a6:	bf18      	it	ne
 800b5a8:	6059      	strne	r1, [r3, #4]
 800b5aa:	6863      	ldr	r3, [r4, #4]
 800b5ac:	bf08      	it	eq
 800b5ae:	6031      	streq	r1, [r6, #0]
 800b5b0:	5162      	str	r2, [r4, r5]
 800b5b2:	604b      	str	r3, [r1, #4]
 800b5b4:	4638      	mov	r0, r7
 800b5b6:	f104 060b 	add.w	r6, r4, #11
 800b5ba:	f000 fa03 	bl	800b9c4 <__malloc_unlock>
 800b5be:	f026 0607 	bic.w	r6, r6, #7
 800b5c2:	1d23      	adds	r3, r4, #4
 800b5c4:	1af2      	subs	r2, r6, r3
 800b5c6:	d0b6      	beq.n	800b536 <_malloc_r+0x22>
 800b5c8:	1b9b      	subs	r3, r3, r6
 800b5ca:	50a3      	str	r3, [r4, r2]
 800b5cc:	e7b3      	b.n	800b536 <_malloc_r+0x22>
 800b5ce:	6862      	ldr	r2, [r4, #4]
 800b5d0:	42a3      	cmp	r3, r4
 800b5d2:	bf0c      	ite	eq
 800b5d4:	6032      	streq	r2, [r6, #0]
 800b5d6:	605a      	strne	r2, [r3, #4]
 800b5d8:	e7ec      	b.n	800b5b4 <_malloc_r+0xa0>
 800b5da:	4623      	mov	r3, r4
 800b5dc:	6864      	ldr	r4, [r4, #4]
 800b5de:	e7b2      	b.n	800b546 <_malloc_r+0x32>
 800b5e0:	4634      	mov	r4, r6
 800b5e2:	6876      	ldr	r6, [r6, #4]
 800b5e4:	e7b9      	b.n	800b55a <_malloc_r+0x46>
 800b5e6:	230c      	movs	r3, #12
 800b5e8:	4638      	mov	r0, r7
 800b5ea:	603b      	str	r3, [r7, #0]
 800b5ec:	f000 f9ea 	bl	800b9c4 <__malloc_unlock>
 800b5f0:	e7a1      	b.n	800b536 <_malloc_r+0x22>
 800b5f2:	6025      	str	r5, [r4, #0]
 800b5f4:	e7de      	b.n	800b5b4 <_malloc_r+0xa0>
 800b5f6:	bf00      	nop
 800b5f8:	2000032c 	.word	0x2000032c

0800b5fc <__ssputs_r>:
 800b5fc:	e92d 47f0 	stmdb	sp!, {r4, r5, r6, r7, r8, r9, sl, lr}
 800b600:	688e      	ldr	r6, [r1, #8]
 800b602:	4682      	mov	sl, r0
 800b604:	429e      	cmp	r6, r3
 800b606:	460c      	mov	r4, r1
 800b608:	4690      	mov	r8, r2
 800b60a:	461f      	mov	r7, r3
 800b60c:	d838      	bhi.n	800b680 <__ssputs_r+0x84>
 800b60e:	898a      	ldrh	r2, [r1, #12]
 800b610:	f412 6f90 	tst.w	r2, #1152	; 0x480
 800b614:	d032      	beq.n	800b67c <__ssputs_r+0x80>
 800b616:	6825      	ldr	r5, [r4, #0]
 800b618:	6909      	ldr	r1, [r1, #16]
 800b61a:	3301      	adds	r3, #1
 800b61c:	eba5 0901 	sub.w	r9, r5, r1
 800b620:	6965      	ldr	r5, [r4, #20]
 800b622:	444b      	add	r3, r9
 800b624:	eb05 0545 	add.w	r5, r5, r5, lsl #1
 800b628:	eb05 75d5 	add.w	r5, r5, r5, lsr #31
 800b62c:	106d      	asrs	r5, r5, #1
 800b62e:	429d      	cmp	r5, r3
 800b630:	bf38      	it	cc
 800b632:	461d      	movcc	r5, r3
 800b634:	0553      	lsls	r3, r2, #21
 800b636:	d531      	bpl.n	800b69c <__ssputs_r+0xa0>
 800b638:	4629      	mov	r1, r5
 800b63a:	f7ff ff6b 	bl	800b514 <_malloc_r>
 800b63e:	4606      	mov	r6, r0
 800b640:	b950      	cbnz	r0, 800b658 <__ssputs_r+0x5c>
 800b642:	230c      	movs	r3, #12
 800b644:	f04f 30ff 	mov.w	r0, #4294967295
 800b648:	f8ca 3000 	str.w	r3, [sl]
 800b64c:	89a3      	ldrh	r3, [r4, #12]
 800b64e:	f043 0340 	orr.w	r3, r3, #64	; 0x40
 800b652:	81a3      	strh	r3, [r4, #12]
 800b654:	e8bd 87f0 	ldmia.w	sp!, {r4, r5, r6, r7, r8, r9, sl, pc}
 800b658:	464a      	mov	r2, r9
 800b65a:	6921      	ldr	r1, [r4, #16]
 800b65c:	f7ff fa18 	bl	800aa90 <memcpy>
 800b660:	89a3      	ldrh	r3, [r4, #12]
 800b662:	f423 6390 	bic.w	r3, r3, #1152	; 0x480
 800b666:	f043 0380 	orr.w	r3, r3, #128	; 0x80
 800b66a:	81a3      	strh	r3, [r4, #12]
 800b66c:	6126      	str	r6, [r4, #16]
 800b66e:	444e      	add	r6, r9
 800b670:	6026      	str	r6, [r4, #0]
 800b672:	463e      	mov	r6, r7
 800b674:	6165      	str	r5, [r4, #20]
 800b676:	eba5 0509 	sub.w	r5, r5, r9
 800b67a:	60a5      	str	r5, [r4, #8]
 800b67c:	42be      	cmp	r6, r7
 800b67e:	d900      	bls.n	800b682 <__ssputs_r+0x86>
 800b680:	463e      	mov	r6, r7
 800b682:	4632      	mov	r2, r6
 800b684:	4641      	mov	r1, r8
 800b686:	6820      	ldr	r0, [r4, #0]
 800b688:	f000 f97c 	bl	800b984 <memmove>
 800b68c:	68a3      	ldr	r3, [r4, #8]
 800b68e:	2000      	movs	r0, #0
 800b690:	1b9b      	subs	r3, r3, r6
 800b692:	60a3      	str	r3, [r4, #8]
 800b694:	6823      	ldr	r3, [r4, #0]
 800b696:	4433      	add	r3, r6
 800b698:	6023      	str	r3, [r4, #0]
 800b69a:	e7db      	b.n	800b654 <__ssputs_r+0x58>
 800b69c:	462a      	mov	r2, r5
 800b69e:	f000 f997 	bl	800b9d0 <_realloc_r>
 800b6a2:	4606      	mov	r6, r0
 800b6a4:	2800      	cmp	r0, #0
 800b6a6:	d1e1      	bne.n	800b66c <__ssputs_r+0x70>
 800b6a8:	4650      	mov	r0, sl
 800b6aa:	6921      	ldr	r1, [r4, #16]
 800b6ac:	f7ff feca 	bl	800b444 <_free_r>
 800b6b0:	e7c7      	b.n	800b642 <__ssputs_r+0x46>
	...

0800b6b4 <_svfiprintf_r>:
 800b6b4:	e92d 4ff0 	stmdb	sp!, {r4, r5, r6, r7, r8, r9, sl, fp, lr}
 800b6b8:	4698      	mov	r8, r3
 800b6ba:	898b      	ldrh	r3, [r1, #12]
 800b6bc:	4607      	mov	r7, r0
 800b6be:	061b      	lsls	r3, r3, #24
 800b6c0:	460d      	mov	r5, r1
 800b6c2:	4614      	mov	r4, r2
 800b6c4:	b09d      	sub	sp, #116	; 0x74
 800b6c6:	d50e      	bpl.n	800b6e6 <_svfiprintf_r+0x32>
 800b6c8:	690b      	ldr	r3, [r1, #16]
 800b6ca:	b963      	cbnz	r3, 800b6e6 <_svfiprintf_r+0x32>
 800b6cc:	2140      	movs	r1, #64	; 0x40
 800b6ce:	f7ff ff21 	bl	800b514 <_malloc_r>
 800b6d2:	6028      	str	r0, [r5, #0]
 800b6d4:	6128      	str	r0, [r5, #16]
 800b6d6:	b920      	cbnz	r0, 800b6e2 <_svfiprintf_r+0x2e>
 800b6d8:	230c      	movs	r3, #12
 800b6da:	603b      	str	r3, [r7, #0]
 800b6dc:	f04f 30ff 	mov.w	r0, #4294967295
 800b6e0:	e0d1      	b.n	800b886 <_svfiprintf_r+0x1d2>
 800b6e2:	2340      	movs	r3, #64	; 0x40
 800b6e4:	616b      	str	r3, [r5, #20]
 800b6e6:	2300      	movs	r3, #0
 800b6e8:	9309      	str	r3, [sp, #36]	; 0x24
 800b6ea:	2320      	movs	r3, #32
 800b6ec:	f88d 3029 	strb.w	r3, [sp, #41]	; 0x29
 800b6f0:	2330      	movs	r3, #48	; 0x30
 800b6f2:	f04f 0901 	mov.w	r9, #1
 800b6f6:	f8cd 800c 	str.w	r8, [sp, #12]
 800b6fa:	f8df 81a4 	ldr.w	r8, [pc, #420]	; 800b8a0 <_svfiprintf_r+0x1ec>
 800b6fe:	f88d 302a 	strb.w	r3, [sp, #42]	; 0x2a
 800b702:	4623      	mov	r3, r4
 800b704:	469a      	mov	sl, r3
 800b706:	f813 2b01 	ldrb.w	r2, [r3], #1
 800b70a:	b10a      	cbz	r2, 800b710 <_svfiprintf_r+0x5c>
 800b70c:	2a25      	cmp	r2, #37	; 0x25
 800b70e:	d1f9      	bne.n	800b704 <_svfiprintf_r+0x50>
 800b710:	ebba 0b04 	subs.w	fp, sl, r4
 800b714:	d00b      	beq.n	800b72e <_svfiprintf_r+0x7a>
 800b716:	465b      	mov	r3, fp
 800b718:	4622      	mov	r2, r4
 800b71a:	4629      	mov	r1, r5
 800b71c:	4638      	mov	r0, r7
 800b71e:	f7ff ff6d 	bl	800b5fc <__ssputs_r>
 800b722:	3001      	adds	r0, #1
 800b724:	f000 80aa 	beq.w	800b87c <_svfiprintf_r+0x1c8>
 800b728:	9a09      	ldr	r2, [sp, #36]	; 0x24
 800b72a:	445a      	add	r2, fp
 800b72c:	9209      	str	r2, [sp, #36]	; 0x24
 800b72e:	f89a 3000 	ldrb.w	r3, [sl]
 800b732:	2b00      	cmp	r3, #0
 800b734:	f000 80a2 	beq.w	800b87c <_svfiprintf_r+0x1c8>
 800b738:	2300      	movs	r3, #0
 800b73a:	f04f 32ff 	mov.w	r2, #4294967295
 800b73e:	e9cd 2305 	strd	r2, r3, [sp, #20]
 800b742:	f10a 0a01 	add.w	sl, sl, #1
 800b746:	9304      	str	r3, [sp, #16]
 800b748:	9307      	str	r3, [sp, #28]
 800b74a:	f88d 3053 	strb.w	r3, [sp, #83]	; 0x53
 800b74e:	931a      	str	r3, [sp, #104]	; 0x68
 800b750:	4654      	mov	r4, sl
 800b752:	2205      	movs	r2, #5
 800b754:	f814 1b01 	ldrb.w	r1, [r4], #1
 800b758:	4851      	ldr	r0, [pc, #324]	; (800b8a0 <_svfiprintf_r+0x1ec>)
 800b75a:	f7ff f98b 	bl	800aa74 <memchr>
 800b75e:	9a04      	ldr	r2, [sp, #16]
 800b760:	b9d8      	cbnz	r0, 800b79a <_svfiprintf_r+0xe6>
 800b762:	06d0      	lsls	r0, r2, #27
 800b764:	bf44      	itt	mi
 800b766:	2320      	movmi	r3, #32
 800b768:	f88d 3053 	strbmi.w	r3, [sp, #83]	; 0x53
 800b76c:	0711      	lsls	r1, r2, #28
 800b76e:	bf44      	itt	mi
 800b770:	232b      	movmi	r3, #43	; 0x2b
 800b772:	f88d 3053 	strbmi.w	r3, [sp, #83]	; 0x53
 800b776:	f89a 3000 	ldrb.w	r3, [sl]
 800b77a:	2b2a      	cmp	r3, #42	; 0x2a
 800b77c:	d015      	beq.n	800b7aa <_svfiprintf_r+0xf6>
 800b77e:	4654      	mov	r4, sl
 800b780:	2000      	movs	r0, #0
 800b782:	f04f 0c0a 	mov.w	ip, #10
 800b786:	9a07      	ldr	r2, [sp, #28]
 800b788:	4621      	mov	r1, r4
 800b78a:	f811 3b01 	ldrb.w	r3, [r1], #1
 800b78e:	3b30      	subs	r3, #48	; 0x30
 800b790:	2b09      	cmp	r3, #9
 800b792:	d94e      	bls.n	800b832 <_svfiprintf_r+0x17e>
 800b794:	b1b0      	cbz	r0, 800b7c4 <_svfiprintf_r+0x110>
 800b796:	9207      	str	r2, [sp, #28]
 800b798:	e014      	b.n	800b7c4 <_svfiprintf_r+0x110>
 800b79a:	eba0 0308 	sub.w	r3, r0, r8
 800b79e:	fa09 f303 	lsl.w	r3, r9, r3
 800b7a2:	4313      	orrs	r3, r2
 800b7a4:	46a2      	mov	sl, r4
 800b7a6:	9304      	str	r3, [sp, #16]
 800b7a8:	e7d2      	b.n	800b750 <_svfiprintf_r+0x9c>
 800b7aa:	9b03      	ldr	r3, [sp, #12]
 800b7ac:	1d19      	adds	r1, r3, #4
 800b7ae:	681b      	ldr	r3, [r3, #0]
 800b7b0:	9103      	str	r1, [sp, #12]
 800b7b2:	2b00      	cmp	r3, #0
 800b7b4:	bfbb      	ittet	lt
 800b7b6:	425b      	neglt	r3, r3
 800b7b8:	f042 0202 	orrlt.w	r2, r2, #2
 800b7bc:	9307      	strge	r3, [sp, #28]
 800b7be:	9307      	strlt	r3, [sp, #28]
 800b7c0:	bfb8      	it	lt
 800b7c2:	9204      	strlt	r2, [sp, #16]
 800b7c4:	7823      	ldrb	r3, [r4, #0]
 800b7c6:	2b2e      	cmp	r3, #46	; 0x2e
 800b7c8:	d10c      	bne.n	800b7e4 <_svfiprintf_r+0x130>
 800b7ca:	7863      	ldrb	r3, [r4, #1]
 800b7cc:	2b2a      	cmp	r3, #42	; 0x2a
 800b7ce:	d135      	bne.n	800b83c <_svfiprintf_r+0x188>
 800b7d0:	9b03      	ldr	r3, [sp, #12]
 800b7d2:	3402      	adds	r4, #2
 800b7d4:	1d1a      	adds	r2, r3, #4
 800b7d6:	681b      	ldr	r3, [r3, #0]
 800b7d8:	9203      	str	r2, [sp, #12]
 800b7da:	2b00      	cmp	r3, #0
 800b7dc:	bfb8      	it	lt
 800b7de:	f04f 33ff 	movlt.w	r3, #4294967295
 800b7e2:	9305      	str	r3, [sp, #20]
 800b7e4:	f8df a0bc 	ldr.w	sl, [pc, #188]	; 800b8a4 <_svfiprintf_r+0x1f0>
 800b7e8:	2203      	movs	r2, #3
 800b7ea:	4650      	mov	r0, sl
 800b7ec:	7821      	ldrb	r1, [r4, #0]
 800b7ee:	f7ff f941 	bl	800aa74 <memchr>
 800b7f2:	b140      	cbz	r0, 800b806 <_svfiprintf_r+0x152>
 800b7f4:	2340      	movs	r3, #64	; 0x40
 800b7f6:	eba0 000a 	sub.w	r0, r0, sl
 800b7fa:	fa03 f000 	lsl.w	r0, r3, r0
 800b7fe:	9b04      	ldr	r3, [sp, #16]
 800b800:	3401      	adds	r4, #1
 800b802:	4303      	orrs	r3, r0
 800b804:	9304      	str	r3, [sp, #16]
 800b806:	f814 1b01 	ldrb.w	r1, [r4], #1
 800b80a:	2206      	movs	r2, #6
 800b80c:	4826      	ldr	r0, [pc, #152]	; (800b8a8 <_svfiprintf_r+0x1f4>)
 800b80e:	f88d 1028 	strb.w	r1, [sp, #40]	; 0x28
 800b812:	f7ff f92f 	bl	800aa74 <memchr>
 800b816:	2800      	cmp	r0, #0
 800b818:	d038      	beq.n	800b88c <_svfiprintf_r+0x1d8>
 800b81a:	4b24      	ldr	r3, [pc, #144]	; (800b8ac <_svfiprintf_r+0x1f8>)
 800b81c:	bb1b      	cbnz	r3, 800b866 <_svfiprintf_r+0x1b2>
 800b81e:	9b03      	ldr	r3, [sp, #12]
 800b820:	3307      	adds	r3, #7
 800b822:	f023 0307 	bic.w	r3, r3, #7
 800b826:	3308      	adds	r3, #8
 800b828:	9303      	str	r3, [sp, #12]
 800b82a:	9b09      	ldr	r3, [sp, #36]	; 0x24
 800b82c:	4433      	add	r3, r6
 800b82e:	9309      	str	r3, [sp, #36]	; 0x24
 800b830:	e767      	b.n	800b702 <_svfiprintf_r+0x4e>
 800b832:	460c      	mov	r4, r1
 800b834:	2001      	movs	r0, #1
 800b836:	fb0c 3202 	mla	r2, ip, r2, r3
 800b83a:	e7a5      	b.n	800b788 <_svfiprintf_r+0xd4>
 800b83c:	2300      	movs	r3, #0
 800b83e:	f04f 0c0a 	mov.w	ip, #10
 800b842:	4619      	mov	r1, r3
 800b844:	3401      	adds	r4, #1
 800b846:	9305      	str	r3, [sp, #20]
 800b848:	4620      	mov	r0, r4
 800b84a:	f810 2b01 	ldrb.w	r2, [r0], #1
 800b84e:	3a30      	subs	r2, #48	; 0x30
 800b850:	2a09      	cmp	r2, #9
 800b852:	d903      	bls.n	800b85c <_svfiprintf_r+0x1a8>
 800b854:	2b00      	cmp	r3, #0
 800b856:	d0c5      	beq.n	800b7e4 <_svfiprintf_r+0x130>
 800b858:	9105      	str	r1, [sp, #20]
 800b85a:	e7c3      	b.n	800b7e4 <_svfiprintf_r+0x130>
 800b85c:	4604      	mov	r4, r0
 800b85e:	2301      	movs	r3, #1
 800b860:	fb0c 2101 	mla	r1, ip, r1, r2
 800b864:	e7f0      	b.n	800b848 <_svfiprintf_r+0x194>
 800b866:	ab03      	add	r3, sp, #12
 800b868:	9300      	str	r3, [sp, #0]
 800b86a:	462a      	mov	r2, r5
 800b86c:	4638      	mov	r0, r7
 800b86e:	4b10      	ldr	r3, [pc, #64]	; (800b8b0 <_svfiprintf_r+0x1fc>)
 800b870:	a904      	add	r1, sp, #16
 800b872:	f7fc fa7d 	bl	8007d70 <_printf_float>
 800b876:	1c42      	adds	r2, r0, #1
 800b878:	4606      	mov	r6, r0
 800b87a:	d1d6      	bne.n	800b82a <_svfiprintf_r+0x176>
 800b87c:	89ab      	ldrh	r3, [r5, #12]
 800b87e:	065b      	lsls	r3, r3, #25
 800b880:	f53f af2c 	bmi.w	800b6dc <_svfiprintf_r+0x28>
 800b884:	9809      	ldr	r0, [sp, #36]	; 0x24
 800b886:	b01d      	add	sp, #116	; 0x74
 800b888:	e8bd 8ff0 	ldmia.w	sp!, {r4, r5, r6, r7, r8, r9, sl, fp, pc}
 800b88c:	ab03      	add	r3, sp, #12
 800b88e:	9300      	str	r3, [sp, #0]
 800b890:	462a      	mov	r2, r5
 800b892:	4638      	mov	r0, r7
 800b894:	4b06      	ldr	r3, [pc, #24]	; (800b8b0 <_svfiprintf_r+0x1fc>)
 800b896:	a904      	add	r1, sp, #16
 800b898:	f7fc fd06 	bl	80082a8 <_printf_i>
 800b89c:	e7eb      	b.n	800b876 <_svfiprintf_r+0x1c2>
 800b89e:	bf00      	nop
 800b8a0:	0800e144 	.word	0x0800e144
 800b8a4:	0800e14a 	.word	0x0800e14a
 800b8a8:	0800e14e 	.word	0x0800e14e
 800b8ac:	08007d71 	.word	0x08007d71
 800b8b0:	0800b5fd 	.word	0x0800b5fd

0800b8b4 <nan>:
 800b8b4:	2000      	movs	r0, #0
 800b8b6:	4901      	ldr	r1, [pc, #4]	; (800b8bc <nan+0x8>)
 800b8b8:	4770      	bx	lr
 800b8ba:	bf00      	nop
 800b8bc:	7ff80000 	.word	0x7ff80000

0800b8c0 <_sbrk_r>:
 800b8c0:	b538      	push	{r3, r4, r5, lr}
 800b8c2:	2300      	movs	r3, #0
 800b8c4:	4d05      	ldr	r5, [pc, #20]	; (800b8dc <_sbrk_r+0x1c>)
 800b8c6:	4604      	mov	r4, r0
 800b8c8:	4608      	mov	r0, r1
 800b8ca:	602b      	str	r3, [r5, #0]
 800b8cc:	f7f9 f8fe 	bl	8004acc <_sbrk>
 800b8d0:	1c43      	adds	r3, r0, #1
 800b8d2:	d102      	bne.n	800b8da <_sbrk_r+0x1a>
 800b8d4:	682b      	ldr	r3, [r5, #0]
 800b8d6:	b103      	cbz	r3, 800b8da <_sbrk_r+0x1a>
 800b8d8:	6023      	str	r3, [r4, #0]
 800b8da:	bd38      	pop	{r3, r4, r5, pc}
 800b8dc:	20000334 	.word	0x20000334

0800b8e0 <strncmp>:
 800b8e0:	4603      	mov	r3, r0
 800b8e2:	b510      	push	{r4, lr}
 800b8e4:	b172      	cbz	r2, 800b904 <strncmp+0x24>
 800b8e6:	3901      	subs	r1, #1
 800b8e8:	1884      	adds	r4, r0, r2
 800b8ea:	f813 0b01 	ldrb.w	r0, [r3], #1
 800b8ee:	f811 2f01 	ldrb.w	r2, [r1, #1]!
 800b8f2:	4290      	cmp	r0, r2
 800b8f4:	d101      	bne.n	800b8fa <strncmp+0x1a>
 800b8f6:	42a3      	cmp	r3, r4
 800b8f8:	d101      	bne.n	800b8fe <strncmp+0x1e>
 800b8fa:	1a80      	subs	r0, r0, r2
 800b8fc:	bd10      	pop	{r4, pc}
 800b8fe:	2800      	cmp	r0, #0
 800b900:	d1f3      	bne.n	800b8ea <strncmp+0xa>
 800b902:	e7fa      	b.n	800b8fa <strncmp+0x1a>
 800b904:	4610      	mov	r0, r2
 800b906:	e7f9      	b.n	800b8fc <strncmp+0x1c>

0800b908 <__ascii_wctomb>:
 800b908:	4603      	mov	r3, r0
 800b90a:	4608      	mov	r0, r1
 800b90c:	b141      	cbz	r1, 800b920 <__ascii_wctomb+0x18>
 800b90e:	2aff      	cmp	r2, #255	; 0xff
 800b910:	d904      	bls.n	800b91c <__ascii_wctomb+0x14>
 800b912:	228a      	movs	r2, #138	; 0x8a
 800b914:	f04f 30ff 	mov.w	r0, #4294967295
 800b918:	601a      	str	r2, [r3, #0]
 800b91a:	4770      	bx	lr
 800b91c:	2001      	movs	r0, #1
 800b91e:	700a      	strb	r2, [r1, #0]
 800b920:	4770      	bx	lr
	...

0800b924 <__assert_func>:
 800b924:	b51f      	push	{r0, r1, r2, r3, r4, lr}
 800b926:	4614      	mov	r4, r2
 800b928:	461a      	mov	r2, r3
 800b92a:	4b09      	ldr	r3, [pc, #36]	; (800b950 <__assert_func+0x2c>)
 800b92c:	4605      	mov	r5, r0
 800b92e:	681b      	ldr	r3, [r3, #0]
 800b930:	68d8      	ldr	r0, [r3, #12]
 800b932:	b14c      	cbz	r4, 800b948 <__assert_func+0x24>
 800b934:	4b07      	ldr	r3, [pc, #28]	; (800b954 <__assert_func+0x30>)
 800b936:	e9cd 3401 	strd	r3, r4, [sp, #4]
 800b93a:	9100      	str	r1, [sp, #0]
 800b93c:	462b      	mov	r3, r5
 800b93e:	4906      	ldr	r1, [pc, #24]	; (800b958 <__assert_func+0x34>)
 800b940:	f000 f80e 	bl	800b960 <fiprintf>
 800b944:	f000 fa8a 	bl	800be5c <abort>
 800b948:	4b04      	ldr	r3, [pc, #16]	; (800b95c <__assert_func+0x38>)
 800b94a:	461c      	mov	r4, r3
 800b94c:	e7f3      	b.n	800b936 <__assert_func+0x12>
 800b94e:	bf00      	nop
 800b950:	20000014 	.word	0x20000014
 800b954:	0800e155 	.word	0x0800e155
 800b958:	0800e162 	.word	0x0800e162
 800b95c:	0800e190 	.word	0x0800e190

0800b960 <fiprintf>:
 800b960:	b40e      	push	{r1, r2, r3}
 800b962:	b503      	push	{r0, r1, lr}
 800b964:	4601      	mov	r1, r0
 800b966:	ab03      	add	r3, sp, #12
 800b968:	4805      	ldr	r0, [pc, #20]	; (800b980 <fiprintf+0x20>)
 800b96a:	f853 2b04 	ldr.w	r2, [r3], #4
 800b96e:	6800      	ldr	r0, [r0, #0]
 800b970:	9301      	str	r3, [sp, #4]
 800b972:	f000 f883 	bl	800ba7c <_vfiprintf_r>
 800b976:	b002      	add	sp, #8
 800b978:	f85d eb04 	ldr.w	lr, [sp], #4
 800b97c:	b003      	add	sp, #12
 800b97e:	4770      	bx	lr
 800b980:	20000014 	.word	0x20000014

0800b984 <memmove>:
 800b984:	4288      	cmp	r0, r1
 800b986:	b510      	push	{r4, lr}
 800b988:	eb01 0402 	add.w	r4, r1, r2
 800b98c:	d902      	bls.n	800b994 <memmove+0x10>
 800b98e:	4284      	cmp	r4, r0
 800b990:	4623      	mov	r3, r4
 800b992:	d807      	bhi.n	800b9a4 <memmove+0x20>
 800b994:	1e43      	subs	r3, r0, #1
 800b996:	42a1      	cmp	r1, r4
 800b998:	d008      	beq.n	800b9ac <memmove+0x28>
 800b99a:	f811 2b01 	ldrb.w	r2, [r1], #1
 800b99e:	f803 2f01 	strb.w	r2, [r3, #1]!
 800b9a2:	e7f8      	b.n	800b996 <memmove+0x12>
 800b9a4:	4601      	mov	r1, r0
 800b9a6:	4402      	add	r2, r0
 800b9a8:	428a      	cmp	r2, r1
 800b9aa:	d100      	bne.n	800b9ae <memmove+0x2a>
 800b9ac:	bd10      	pop	{r4, pc}
 800b9ae:	f813 4d01 	ldrb.w	r4, [r3, #-1]!
 800b9b2:	f802 4d01 	strb.w	r4, [r2, #-1]!
 800b9b6:	e7f7      	b.n	800b9a8 <memmove+0x24>

0800b9b8 <__malloc_lock>:
 800b9b8:	4801      	ldr	r0, [pc, #4]	; (800b9c0 <__malloc_lock+0x8>)
 800b9ba:	f000 bc0b 	b.w	800c1d4 <__retarget_lock_acquire_recursive>
 800b9be:	bf00      	nop
 800b9c0:	20000338 	.word	0x20000338

0800b9c4 <__malloc_unlock>:
 800b9c4:	4801      	ldr	r0, [pc, #4]	; (800b9cc <__malloc_unlock+0x8>)
 800b9c6:	f000 bc06 	b.w	800c1d6 <__retarget_lock_release_recursive>
 800b9ca:	bf00      	nop
 800b9cc:	20000338 	.word	0x20000338

0800b9d0 <_realloc_r>:
 800b9d0:	e92d 41f0 	stmdb	sp!, {r4, r5, r6, r7, r8, lr}
 800b9d4:	4680      	mov	r8, r0
 800b9d6:	4614      	mov	r4, r2
 800b9d8:	460e      	mov	r6, r1
 800b9da:	b921      	cbnz	r1, 800b9e6 <_realloc_r+0x16>
 800b9dc:	4611      	mov	r1, r2
 800b9de:	e8bd 41f0 	ldmia.w	sp!, {r4, r5, r6, r7, r8, lr}
 800b9e2:	f7ff bd97 	b.w	800b514 <_malloc_r>
 800b9e6:	b92a      	cbnz	r2, 800b9f4 <_realloc_r+0x24>
 800b9e8:	f7ff fd2c 	bl	800b444 <_free_r>
 800b9ec:	4625      	mov	r5, r4
 800b9ee:	4628      	mov	r0, r5
 800b9f0:	e8bd 81f0 	ldmia.w	sp!, {r4, r5, r6, r7, r8, pc}
 800b9f4:	f000 fc56 	bl	800c2a4 <_malloc_usable_size_r>
 800b9f8:	4284      	cmp	r4, r0
 800b9fa:	4607      	mov	r7, r0
 800b9fc:	d802      	bhi.n	800ba04 <_realloc_r+0x34>
 800b9fe:	ebb4 0f50 	cmp.w	r4, r0, lsr #1
 800ba02:	d812      	bhi.n	800ba2a <_realloc_r+0x5a>
 800ba04:	4621      	mov	r1, r4
 800ba06:	4640      	mov	r0, r8
 800ba08:	f7ff fd84 	bl	800b514 <_malloc_r>
 800ba0c:	4605      	mov	r5, r0
 800ba0e:	2800      	cmp	r0, #0
 800ba10:	d0ed      	beq.n	800b9ee <_realloc_r+0x1e>
 800ba12:	42bc      	cmp	r4, r7
 800ba14:	4622      	mov	r2, r4
 800ba16:	4631      	mov	r1, r6
 800ba18:	bf28      	it	cs
 800ba1a:	463a      	movcs	r2, r7
 800ba1c:	f7ff f838 	bl	800aa90 <memcpy>
 800ba20:	4631      	mov	r1, r6
 800ba22:	4640      	mov	r0, r8
 800ba24:	f7ff fd0e 	bl	800b444 <_free_r>
 800ba28:	e7e1      	b.n	800b9ee <_realloc_r+0x1e>
 800ba2a:	4635      	mov	r5, r6
 800ba2c:	e7df      	b.n	800b9ee <_realloc_r+0x1e>

0800ba2e <__sfputc_r>:
 800ba2e:	6893      	ldr	r3, [r2, #8]
 800ba30:	b410      	push	{r4}
 800ba32:	3b01      	subs	r3, #1
 800ba34:	2b00      	cmp	r3, #0
 800ba36:	6093      	str	r3, [r2, #8]
 800ba38:	da07      	bge.n	800ba4a <__sfputc_r+0x1c>
 800ba3a:	6994      	ldr	r4, [r2, #24]
 800ba3c:	42a3      	cmp	r3, r4
 800ba3e:	db01      	blt.n	800ba44 <__sfputc_r+0x16>
 800ba40:	290a      	cmp	r1, #10
 800ba42:	d102      	bne.n	800ba4a <__sfputc_r+0x1c>
 800ba44:	bc10      	pop	{r4}
 800ba46:	f000 b949 	b.w	800bcdc <__swbuf_r>
 800ba4a:	6813      	ldr	r3, [r2, #0]
 800ba4c:	1c58      	adds	r0, r3, #1
 800ba4e:	6010      	str	r0, [r2, #0]
 800ba50:	7019      	strb	r1, [r3, #0]
 800ba52:	4608      	mov	r0, r1
 800ba54:	bc10      	pop	{r4}
 800ba56:	4770      	bx	lr

0800ba58 <__sfputs_r>:
 800ba58:	b5f8      	push	{r3, r4, r5, r6, r7, lr}
 800ba5a:	4606      	mov	r6, r0
 800ba5c:	460f      	mov	r7, r1
 800ba5e:	4614      	mov	r4, r2
 800ba60:	18d5      	adds	r5, r2, r3
 800ba62:	42ac      	cmp	r4, r5
 800ba64:	d101      	bne.n	800ba6a <__sfputs_r+0x12>
 800ba66:	2000      	movs	r0, #0
 800ba68:	e007      	b.n	800ba7a <__sfputs_r+0x22>
 800ba6a:	463a      	mov	r2, r7
 800ba6c:	4630      	mov	r0, r6
 800ba6e:	f814 1b01 	ldrb.w	r1, [r4], #1
 800ba72:	f7ff ffdc 	bl	800ba2e <__sfputc_r>
 800ba76:	1c43      	adds	r3, r0, #1
 800ba78:	d1f3      	bne.n	800ba62 <__sfputs_r+0xa>
 800ba7a:	bdf8      	pop	{r3, r4, r5, r6, r7, pc}

0800ba7c <_vfiprintf_r>:
 800ba7c:	e92d 4ff0 	stmdb	sp!, {r4, r5, r6, r7, r8, r9, sl, fp, lr}
 800ba80:	460d      	mov	r5, r1
 800ba82:	4614      	mov	r4, r2
 800ba84:	4698      	mov	r8, r3
 800ba86:	4606      	mov	r6, r0
 800ba88:	b09d      	sub	sp, #116	; 0x74
 800ba8a:	b118      	cbz	r0, 800ba94 <_vfiprintf_r+0x18>
 800ba8c:	6983      	ldr	r3, [r0, #24]
 800ba8e:	b90b      	cbnz	r3, 800ba94 <_vfiprintf_r+0x18>
 800ba90:	f000 fb02 	bl	800c098 <__sinit>
 800ba94:	4b89      	ldr	r3, [pc, #548]	; (800bcbc <_vfiprintf_r+0x240>)
 800ba96:	429d      	cmp	r5, r3
 800ba98:	d11b      	bne.n	800bad2 <_vfiprintf_r+0x56>
 800ba9a:	6875      	ldr	r5, [r6, #4]
 800ba9c:	6e6b      	ldr	r3, [r5, #100]	; 0x64
 800ba9e:	07d9      	lsls	r1, r3, #31
 800baa0:	d405      	bmi.n	800baae <_vfiprintf_r+0x32>
 800baa2:	89ab      	ldrh	r3, [r5, #12]
 800baa4:	059a      	lsls	r2, r3, #22
 800baa6:	d402      	bmi.n	800baae <_vfiprintf_r+0x32>
 800baa8:	6da8      	ldr	r0, [r5, #88]	; 0x58
 800baaa:	f000 fb93 	bl	800c1d4 <__retarget_lock_acquire_recursive>
 800baae:	89ab      	ldrh	r3, [r5, #12]
 800bab0:	071b      	lsls	r3, r3, #28
 800bab2:	d501      	bpl.n	800bab8 <_vfiprintf_r+0x3c>
 800bab4:	692b      	ldr	r3, [r5, #16]
 800bab6:	b9eb      	cbnz	r3, 800baf4 <_vfiprintf_r+0x78>
 800bab8:	4629      	mov	r1, r5
 800baba:	4630      	mov	r0, r6
 800babc:	f000 f960 	bl	800bd80 <__swsetup_r>
 800bac0:	b1c0      	cbz	r0, 800baf4 <_vfiprintf_r+0x78>
 800bac2:	6e6b      	ldr	r3, [r5, #100]	; 0x64
 800bac4:	07dc      	lsls	r4, r3, #31
 800bac6:	d50e      	bpl.n	800bae6 <_vfiprintf_r+0x6a>
 800bac8:	f04f 30ff 	mov.w	r0, #4294967295
 800bacc:	b01d      	add	sp, #116	; 0x74
 800bace:	e8bd 8ff0 	ldmia.w	sp!, {r4, r5, r6, r7, r8, r9, sl, fp, pc}
 800bad2:	4b7b      	ldr	r3, [pc, #492]	; (800bcc0 <_vfiprintf_r+0x244>)
 800bad4:	429d      	cmp	r5, r3
 800bad6:	d101      	bne.n	800badc <_vfiprintf_r+0x60>
 800bad8:	68b5      	ldr	r5, [r6, #8]
 800bada:	e7df      	b.n	800ba9c <_vfiprintf_r+0x20>
 800badc:	4b79      	ldr	r3, [pc, #484]	; (800bcc4 <_vfiprintf_r+0x248>)
 800bade:	429d      	cmp	r5, r3
 800bae0:	bf08      	it	eq
 800bae2:	68f5      	ldreq	r5, [r6, #12]
 800bae4:	e7da      	b.n	800ba9c <_vfiprintf_r+0x20>
 800bae6:	89ab      	ldrh	r3, [r5, #12]
 800bae8:	0598      	lsls	r0, r3, #22
 800baea:	d4ed      	bmi.n	800bac8 <_vfiprintf_r+0x4c>
 800baec:	6da8      	ldr	r0, [r5, #88]	; 0x58
 800baee:	f000 fb72 	bl	800c1d6 <__retarget_lock_release_recursive>
 800baf2:	e7e9      	b.n	800bac8 <_vfiprintf_r+0x4c>
 800baf4:	2300      	movs	r3, #0
 800baf6:	9309      	str	r3, [sp, #36]	; 0x24
 800baf8:	2320      	movs	r3, #32
 800bafa:	f88d 3029 	strb.w	r3, [sp, #41]	; 0x29
 800bafe:	2330      	movs	r3, #48	; 0x30
 800bb00:	f04f 0901 	mov.w	r9, #1
 800bb04:	f8cd 800c 	str.w	r8, [sp, #12]
 800bb08:	f8df 81bc 	ldr.w	r8, [pc, #444]	; 800bcc8 <_vfiprintf_r+0x24c>
 800bb0c:	f88d 302a 	strb.w	r3, [sp, #42]	; 0x2a
 800bb10:	4623      	mov	r3, r4
 800bb12:	469a      	mov	sl, r3
 800bb14:	f813 2b01 	ldrb.w	r2, [r3], #1
 800bb18:	b10a      	cbz	r2, 800bb1e <_vfiprintf_r+0xa2>
 800bb1a:	2a25      	cmp	r2, #37	; 0x25
 800bb1c:	d1f9      	bne.n	800bb12 <_vfiprintf_r+0x96>
 800bb1e:	ebba 0b04 	subs.w	fp, sl, r4
 800bb22:	d00b      	beq.n	800bb3c <_vfiprintf_r+0xc0>
 800bb24:	465b      	mov	r3, fp
 800bb26:	4622      	mov	r2, r4
 800bb28:	4629      	mov	r1, r5
 800bb2a:	4630      	mov	r0, r6
 800bb2c:	f7ff ff94 	bl	800ba58 <__sfputs_r>
 800bb30:	3001      	adds	r0, #1
 800bb32:	f000 80aa 	beq.w	800bc8a <_vfiprintf_r+0x20e>
 800bb36:	9a09      	ldr	r2, [sp, #36]	; 0x24
 800bb38:	445a      	add	r2, fp
 800bb3a:	9209      	str	r2, [sp, #36]	; 0x24
 800bb3c:	f89a 3000 	ldrb.w	r3, [sl]
 800bb40:	2b00      	cmp	r3, #0
 800bb42:	f000 80a2 	beq.w	800bc8a <_vfiprintf_r+0x20e>
 800bb46:	2300      	movs	r3, #0
 800bb48:	f04f 32ff 	mov.w	r2, #4294967295
 800bb4c:	e9cd 2305 	strd	r2, r3, [sp, #20]
 800bb50:	f10a 0a01 	add.w	sl, sl, #1
 800bb54:	9304      	str	r3, [sp, #16]
 800bb56:	9307      	str	r3, [sp, #28]
 800bb58:	f88d 3053 	strb.w	r3, [sp, #83]	; 0x53
 800bb5c:	931a      	str	r3, [sp, #104]	; 0x68
 800bb5e:	4654      	mov	r4, sl
 800bb60:	2205      	movs	r2, #5
 800bb62:	f814 1b01 	ldrb.w	r1, [r4], #1
 800bb66:	4858      	ldr	r0, [pc, #352]	; (800bcc8 <_vfiprintf_r+0x24c>)
 800bb68:	f7fe ff84 	bl	800aa74 <memchr>
 800bb6c:	9a04      	ldr	r2, [sp, #16]
 800bb6e:	b9d8      	cbnz	r0, 800bba8 <_vfiprintf_r+0x12c>
 800bb70:	06d1      	lsls	r1, r2, #27
 800bb72:	bf44      	itt	mi
 800bb74:	2320      	movmi	r3, #32
 800bb76:	f88d 3053 	strbmi.w	r3, [sp, #83]	; 0x53
 800bb7a:	0713      	lsls	r3, r2, #28
 800bb7c:	bf44      	itt	mi
 800bb7e:	232b      	movmi	r3, #43	; 0x2b
 800bb80:	f88d 3053 	strbmi.w	r3, [sp, #83]	; 0x53
 800bb84:	f89a 3000 	ldrb.w	r3, [sl]
 800bb88:	2b2a      	cmp	r3, #42	; 0x2a
 800bb8a:	d015      	beq.n	800bbb8 <_vfiprintf_r+0x13c>
 800bb8c:	4654      	mov	r4, sl
 800bb8e:	2000      	movs	r0, #0
 800bb90:	f04f 0c0a 	mov.w	ip, #10
 800bb94:	9a07      	ldr	r2, [sp, #28]
 800bb96:	4621      	mov	r1, r4
 800bb98:	f811 3b01 	ldrb.w	r3, [r1], #1
 800bb9c:	3b30      	subs	r3, #48	; 0x30
 800bb9e:	2b09      	cmp	r3, #9
 800bba0:	d94e      	bls.n	800bc40 <_vfiprintf_r+0x1c4>
 800bba2:	b1b0      	cbz	r0, 800bbd2 <_vfiprintf_r+0x156>
 800bba4:	9207      	str	r2, [sp, #28]
 800bba6:	e014      	b.n	800bbd2 <_vfiprintf_r+0x156>
 800bba8:	eba0 0308 	sub.w	r3, r0, r8
 800bbac:	fa09 f303 	lsl.w	r3, r9, r3
 800bbb0:	4313      	orrs	r3, r2
 800bbb2:	46a2      	mov	sl, r4
 800bbb4:	9304      	str	r3, [sp, #16]
 800bbb6:	e7d2      	b.n	800bb5e <_vfiprintf_r+0xe2>
 800bbb8:	9b03      	ldr	r3, [sp, #12]
 800bbba:	1d19      	adds	r1, r3, #4
 800bbbc:	681b      	ldr	r3, [r3, #0]
 800bbbe:	9103      	str	r1, [sp, #12]
 800bbc0:	2b00      	cmp	r3, #0
 800bbc2:	bfbb      	ittet	lt
 800bbc4:	425b      	neglt	r3, r3
 800bbc6:	f042 0202 	orrlt.w	r2, r2, #2
 800bbca:	9307      	strge	r3, [sp, #28]
 800bbcc:	9307      	strlt	r3, [sp, #28]
 800bbce:	bfb8      	it	lt
 800bbd0:	9204      	strlt	r2, [sp, #16]
 800bbd2:	7823      	ldrb	r3, [r4, #0]
 800bbd4:	2b2e      	cmp	r3, #46	; 0x2e
 800bbd6:	d10c      	bne.n	800bbf2 <_vfiprintf_r+0x176>
 800bbd8:	7863      	ldrb	r3, [r4, #1]
 800bbda:	2b2a      	cmp	r3, #42	; 0x2a
 800bbdc:	d135      	bne.n	800bc4a <_vfiprintf_r+0x1ce>
 800bbde:	9b03      	ldr	r3, [sp, #12]
 800bbe0:	3402      	adds	r4, #2
 800bbe2:	1d1a      	adds	r2, r3, #4
 800bbe4:	681b      	ldr	r3, [r3, #0]
 800bbe6:	9203      	str	r2, [sp, #12]
 800bbe8:	2b00      	cmp	r3, #0
 800bbea:	bfb8      	it	lt
 800bbec:	f04f 33ff 	movlt.w	r3, #4294967295
 800bbf0:	9305      	str	r3, [sp, #20]
 800bbf2:	f8df a0d8 	ldr.w	sl, [pc, #216]	; 800bccc <_vfiprintf_r+0x250>
 800bbf6:	2203      	movs	r2, #3
 800bbf8:	4650      	mov	r0, sl
 800bbfa:	7821      	ldrb	r1, [r4, #0]
 800bbfc:	f7fe ff3a 	bl	800aa74 <memchr>
 800bc00:	b140      	cbz	r0, 800bc14 <_vfiprintf_r+0x198>
 800bc02:	2340      	movs	r3, #64	; 0x40
 800bc04:	eba0 000a 	sub.w	r0, r0, sl
 800bc08:	fa03 f000 	lsl.w	r0, r3, r0
 800bc0c:	9b04      	ldr	r3, [sp, #16]
 800bc0e:	3401      	adds	r4, #1
 800bc10:	4303      	orrs	r3, r0
 800bc12:	9304      	str	r3, [sp, #16]
 800bc14:	f814 1b01 	ldrb.w	r1, [r4], #1
 800bc18:	2206      	movs	r2, #6
 800bc1a:	482d      	ldr	r0, [pc, #180]	; (800bcd0 <_vfiprintf_r+0x254>)
 800bc1c:	f88d 1028 	strb.w	r1, [sp, #40]	; 0x28
 800bc20:	f7fe ff28 	bl	800aa74 <memchr>
 800bc24:	2800      	cmp	r0, #0
 800bc26:	d03f      	beq.n	800bca8 <_vfiprintf_r+0x22c>
 800bc28:	4b2a      	ldr	r3, [pc, #168]	; (800bcd4 <_vfiprintf_r+0x258>)
 800bc2a:	bb1b      	cbnz	r3, 800bc74 <_vfiprintf_r+0x1f8>
 800bc2c:	9b03      	ldr	r3, [sp, #12]
 800bc2e:	3307      	adds	r3, #7
 800bc30:	f023 0307 	bic.w	r3, r3, #7
 800bc34:	3308      	adds	r3, #8
 800bc36:	9303      	str	r3, [sp, #12]
 800bc38:	9b09      	ldr	r3, [sp, #36]	; 0x24
 800bc3a:	443b      	add	r3, r7
 800bc3c:	9309      	str	r3, [sp, #36]	; 0x24
 800bc3e:	e767      	b.n	800bb10 <_vfiprintf_r+0x94>
 800bc40:	460c      	mov	r4, r1
 800bc42:	2001      	movs	r0, #1
 800bc44:	fb0c 3202 	mla	r2, ip, r2, r3
 800bc48:	e7a5      	b.n	800bb96 <_vfiprintf_r+0x11a>
 800bc4a:	2300      	movs	r3, #0
 800bc4c:	f04f 0c0a 	mov.w	ip, #10
 800bc50:	4619      	mov	r1, r3
 800bc52:	3401      	adds	r4, #1
 800bc54:	9305      	str	r3, [sp, #20]
 800bc56:	4620      	mov	r0, r4
 800bc58:	f810 2b01 	ldrb.w	r2, [r0], #1
 800bc5c:	3a30      	subs	r2, #48	; 0x30
 800bc5e:	2a09      	cmp	r2, #9
 800bc60:	d903      	bls.n	800bc6a <_vfiprintf_r+0x1ee>
 800bc62:	2b00      	cmp	r3, #0
 800bc64:	d0c5      	beq.n	800bbf2 <_vfiprintf_r+0x176>
 800bc66:	9105      	str	r1, [sp, #20]
 800bc68:	e7c3      	b.n	800bbf2 <_vfiprintf_r+0x176>
 800bc6a:	4604      	mov	r4, r0
 800bc6c:	2301      	movs	r3, #1
 800bc6e:	fb0c 2101 	mla	r1, ip, r1, r2
 800bc72:	e7f0      	b.n	800bc56 <_vfiprintf_r+0x1da>
 800bc74:	ab03      	add	r3, sp, #12
 800bc76:	9300      	str	r3, [sp, #0]
 800bc78:	462a      	mov	r2, r5
 800bc7a:	4630      	mov	r0, r6
 800bc7c:	4b16      	ldr	r3, [pc, #88]	; (800bcd8 <_vfiprintf_r+0x25c>)
 800bc7e:	a904      	add	r1, sp, #16
 800bc80:	f7fc f876 	bl	8007d70 <_printf_float>
 800bc84:	4607      	mov	r7, r0
 800bc86:	1c78      	adds	r0, r7, #1
 800bc88:	d1d6      	bne.n	800bc38 <_vfiprintf_r+0x1bc>
 800bc8a:	6e6b      	ldr	r3, [r5, #100]	; 0x64
 800bc8c:	07d9      	lsls	r1, r3, #31
 800bc8e:	d405      	bmi.n	800bc9c <_vfiprintf_r+0x220>
 800bc90:	89ab      	ldrh	r3, [r5, #12]
 800bc92:	059a      	lsls	r2, r3, #22
 800bc94:	d402      	bmi.n	800bc9c <_vfiprintf_r+0x220>
 800bc96:	6da8      	ldr	r0, [r5, #88]	; 0x58
 800bc98:	f000 fa9d 	bl	800c1d6 <__retarget_lock_release_recursive>
 800bc9c:	89ab      	ldrh	r3, [r5, #12]
 800bc9e:	065b      	lsls	r3, r3, #25
 800bca0:	f53f af12 	bmi.w	800bac8 <_vfiprintf_r+0x4c>
 800bca4:	9809      	ldr	r0, [sp, #36]	; 0x24
 800bca6:	e711      	b.n	800bacc <_vfiprintf_r+0x50>
 800bca8:	ab03      	add	r3, sp, #12
 800bcaa:	9300      	str	r3, [sp, #0]
 800bcac:	462a      	mov	r2, r5
 800bcae:	4630      	mov	r0, r6
 800bcb0:	4b09      	ldr	r3, [pc, #36]	; (800bcd8 <_vfiprintf_r+0x25c>)
 800bcb2:	a904      	add	r1, sp, #16
 800bcb4:	f7fc faf8 	bl	80082a8 <_printf_i>
 800bcb8:	e7e4      	b.n	800bc84 <_vfiprintf_r+0x208>
 800bcba:	bf00      	nop
 800bcbc:	0800e1b4 	.word	0x0800e1b4
 800bcc0:	0800e1d4 	.word	0x0800e1d4
 800bcc4:	0800e194 	.word	0x0800e194
 800bcc8:	0800e144 	.word	0x0800e144
 800bccc:	0800e14a 	.word	0x0800e14a
 800bcd0:	0800e14e 	.word	0x0800e14e
 800bcd4:	08007d71 	.word	0x08007d71
 800bcd8:	0800ba59 	.word	0x0800ba59

0800bcdc <__swbuf_r>:
 800bcdc:	b5f8      	push	{r3, r4, r5, r6, r7, lr}
 800bcde:	460e      	mov	r6, r1
 800bce0:	4614      	mov	r4, r2
 800bce2:	4605      	mov	r5, r0
 800bce4:	b118      	cbz	r0, 800bcee <__swbuf_r+0x12>
 800bce6:	6983      	ldr	r3, [r0, #24]
 800bce8:	b90b      	cbnz	r3, 800bcee <__swbuf_r+0x12>
 800bcea:	f000 f9d5 	bl	800c098 <__sinit>
 800bcee:	4b21      	ldr	r3, [pc, #132]	; (800bd74 <__swbuf_r+0x98>)
 800bcf0:	429c      	cmp	r4, r3
 800bcf2:	d12b      	bne.n	800bd4c <__swbuf_r+0x70>
 800bcf4:	686c      	ldr	r4, [r5, #4]
 800bcf6:	69a3      	ldr	r3, [r4, #24]
 800bcf8:	60a3      	str	r3, [r4, #8]
 800bcfa:	89a3      	ldrh	r3, [r4, #12]
 800bcfc:	071a      	lsls	r2, r3, #28
 800bcfe:	d52f      	bpl.n	800bd60 <__swbuf_r+0x84>
 800bd00:	6923      	ldr	r3, [r4, #16]
 800bd02:	b36b      	cbz	r3, 800bd60 <__swbuf_r+0x84>
 800bd04:	6923      	ldr	r3, [r4, #16]
 800bd06:	6820      	ldr	r0, [r4, #0]
 800bd08:	b2f6      	uxtb	r6, r6
 800bd0a:	1ac0      	subs	r0, r0, r3
 800bd0c:	6963      	ldr	r3, [r4, #20]
 800bd0e:	4637      	mov	r7, r6
 800bd10:	4283      	cmp	r3, r0
 800bd12:	dc04      	bgt.n	800bd1e <__swbuf_r+0x42>
 800bd14:	4621      	mov	r1, r4
 800bd16:	4628      	mov	r0, r5
 800bd18:	f000 f92a 	bl	800bf70 <_fflush_r>
 800bd1c:	bb30      	cbnz	r0, 800bd6c <__swbuf_r+0x90>
 800bd1e:	68a3      	ldr	r3, [r4, #8]
 800bd20:	3001      	adds	r0, #1
 800bd22:	3b01      	subs	r3, #1
 800bd24:	60a3      	str	r3, [r4, #8]
 800bd26:	6823      	ldr	r3, [r4, #0]
 800bd28:	1c5a      	adds	r2, r3, #1
 800bd2a:	6022      	str	r2, [r4, #0]
 800bd2c:	701e      	strb	r6, [r3, #0]
 800bd2e:	6963      	ldr	r3, [r4, #20]
 800bd30:	4283      	cmp	r3, r0
 800bd32:	d004      	beq.n	800bd3e <__swbuf_r+0x62>
 800bd34:	89a3      	ldrh	r3, [r4, #12]
 800bd36:	07db      	lsls	r3, r3, #31
 800bd38:	d506      	bpl.n	800bd48 <__swbuf_r+0x6c>
 800bd3a:	2e0a      	cmp	r6, #10
 800bd3c:	d104      	bne.n	800bd48 <__swbuf_r+0x6c>
 800bd3e:	4621      	mov	r1, r4
 800bd40:	4628      	mov	r0, r5
 800bd42:	f000 f915 	bl	800bf70 <_fflush_r>
 800bd46:	b988      	cbnz	r0, 800bd6c <__swbuf_r+0x90>
 800bd48:	4638      	mov	r0, r7
 800bd4a:	bdf8      	pop	{r3, r4, r5, r6, r7, pc}
 800bd4c:	4b0a      	ldr	r3, [pc, #40]	; (800bd78 <__swbuf_r+0x9c>)
 800bd4e:	429c      	cmp	r4, r3
 800bd50:	d101      	bne.n	800bd56 <__swbuf_r+0x7a>
 800bd52:	68ac      	ldr	r4, [r5, #8]
 800bd54:	e7cf      	b.n	800bcf6 <__swbuf_r+0x1a>
 800bd56:	4b09      	ldr	r3, [pc, #36]	; (800bd7c <__swbuf_r+0xa0>)
 800bd58:	429c      	cmp	r4, r3
 800bd5a:	bf08      	it	eq
 800bd5c:	68ec      	ldreq	r4, [r5, #12]
 800bd5e:	e7ca      	b.n	800bcf6 <__swbuf_r+0x1a>
 800bd60:	4621      	mov	r1, r4
 800bd62:	4628      	mov	r0, r5
 800bd64:	f000 f80c 	bl	800bd80 <__swsetup_r>
 800bd68:	2800      	cmp	r0, #0
 800bd6a:	d0cb      	beq.n	800bd04 <__swbuf_r+0x28>
 800bd6c:	f04f 37ff 	mov.w	r7, #4294967295
 800bd70:	e7ea      	b.n	800bd48 <__swbuf_r+0x6c>
 800bd72:	bf00      	nop
 800bd74:	0800e1b4 	.word	0x0800e1b4
 800bd78:	0800e1d4 	.word	0x0800e1d4
 800bd7c:	0800e194 	.word	0x0800e194

0800bd80 <__swsetup_r>:
 800bd80:	4b32      	ldr	r3, [pc, #200]	; (800be4c <__swsetup_r+0xcc>)
 800bd82:	b570      	push	{r4, r5, r6, lr}
 800bd84:	681d      	ldr	r5, [r3, #0]
 800bd86:	4606      	mov	r6, r0
 800bd88:	460c      	mov	r4, r1
 800bd8a:	b125      	cbz	r5, 800bd96 <__swsetup_r+0x16>
 800bd8c:	69ab      	ldr	r3, [r5, #24]
 800bd8e:	b913      	cbnz	r3, 800bd96 <__swsetup_r+0x16>
 800bd90:	4628      	mov	r0, r5
 800bd92:	f000 f981 	bl	800c098 <__sinit>
 800bd96:	4b2e      	ldr	r3, [pc, #184]	; (800be50 <__swsetup_r+0xd0>)
 800bd98:	429c      	cmp	r4, r3
 800bd9a:	d10f      	bne.n	800bdbc <__swsetup_r+0x3c>
 800bd9c:	686c      	ldr	r4, [r5, #4]
 800bd9e:	89a3      	ldrh	r3, [r4, #12]
 800bda0:	f9b4 200c 	ldrsh.w	r2, [r4, #12]
 800bda4:	0719      	lsls	r1, r3, #28
 800bda6:	d42c      	bmi.n	800be02 <__swsetup_r+0x82>
 800bda8:	06dd      	lsls	r5, r3, #27
 800bdaa:	d411      	bmi.n	800bdd0 <__swsetup_r+0x50>
 800bdac:	2309      	movs	r3, #9
 800bdae:	6033      	str	r3, [r6, #0]
 800bdb0:	f042 0340 	orr.w	r3, r2, #64	; 0x40
 800bdb4:	f04f 30ff 	mov.w	r0, #4294967295
 800bdb8:	81a3      	strh	r3, [r4, #12]
 800bdba:	e03e      	b.n	800be3a <__swsetup_r+0xba>
 800bdbc:	4b25      	ldr	r3, [pc, #148]	; (800be54 <__swsetup_r+0xd4>)
 800bdbe:	429c      	cmp	r4, r3
 800bdc0:	d101      	bne.n	800bdc6 <__swsetup_r+0x46>
 800bdc2:	68ac      	ldr	r4, [r5, #8]
 800bdc4:	e7eb      	b.n	800bd9e <__swsetup_r+0x1e>
 800bdc6:	4b24      	ldr	r3, [pc, #144]	; (800be58 <__swsetup_r+0xd8>)
 800bdc8:	429c      	cmp	r4, r3
 800bdca:	bf08      	it	eq
 800bdcc:	68ec      	ldreq	r4, [r5, #12]
 800bdce:	e7e6      	b.n	800bd9e <__swsetup_r+0x1e>
 800bdd0:	0758      	lsls	r0, r3, #29
 800bdd2:	d512      	bpl.n	800bdfa <__swsetup_r+0x7a>
 800bdd4:	6b61      	ldr	r1, [r4, #52]	; 0x34
 800bdd6:	b141      	cbz	r1, 800bdea <__swsetup_r+0x6a>
 800bdd8:	f104 0344 	add.w	r3, r4, #68	; 0x44
 800bddc:	4299      	cmp	r1, r3
 800bdde:	d002      	beq.n	800bde6 <__swsetup_r+0x66>
 800bde0:	4630      	mov	r0, r6
 800bde2:	f7ff fb2f 	bl	800b444 <_free_r>
 800bde6:	2300      	movs	r3, #0
 800bde8:	6363      	str	r3, [r4, #52]	; 0x34
 800bdea:	89a3      	ldrh	r3, [r4, #12]
 800bdec:	f023 0324 	bic.w	r3, r3, #36	; 0x24
 800bdf0:	81a3      	strh	r3, [r4, #12]
 800bdf2:	2300      	movs	r3, #0
 800bdf4:	6063      	str	r3, [r4, #4]
 800bdf6:	6923      	ldr	r3, [r4, #16]
 800bdf8:	6023      	str	r3, [r4, #0]
 800bdfa:	89a3      	ldrh	r3, [r4, #12]
 800bdfc:	f043 0308 	orr.w	r3, r3, #8
 800be00:	81a3      	strh	r3, [r4, #12]
 800be02:	6923      	ldr	r3, [r4, #16]
 800be04:	b94b      	cbnz	r3, 800be1a <__swsetup_r+0x9a>
 800be06:	89a3      	ldrh	r3, [r4, #12]
 800be08:	f403 7320 	and.w	r3, r3, #640	; 0x280
 800be0c:	f5b3 7f00 	cmp.w	r3, #512	; 0x200
 800be10:	d003      	beq.n	800be1a <__swsetup_r+0x9a>
 800be12:	4621      	mov	r1, r4
 800be14:	4630      	mov	r0, r6
 800be16:	f000 fa05 	bl	800c224 <__smakebuf_r>
 800be1a:	89a0      	ldrh	r0, [r4, #12]
 800be1c:	f9b4 200c 	ldrsh.w	r2, [r4, #12]
 800be20:	f010 0301 	ands.w	r3, r0, #1
 800be24:	d00a      	beq.n	800be3c <__swsetup_r+0xbc>
 800be26:	2300      	movs	r3, #0
 800be28:	60a3      	str	r3, [r4, #8]
 800be2a:	6963      	ldr	r3, [r4, #20]
 800be2c:	425b      	negs	r3, r3
 800be2e:	61a3      	str	r3, [r4, #24]
 800be30:	6923      	ldr	r3, [r4, #16]
 800be32:	b943      	cbnz	r3, 800be46 <__swsetup_r+0xc6>
 800be34:	f010 0080 	ands.w	r0, r0, #128	; 0x80
 800be38:	d1ba      	bne.n	800bdb0 <__swsetup_r+0x30>
 800be3a:	bd70      	pop	{r4, r5, r6, pc}
 800be3c:	0781      	lsls	r1, r0, #30
 800be3e:	bf58      	it	pl
 800be40:	6963      	ldrpl	r3, [r4, #20]
 800be42:	60a3      	str	r3, [r4, #8]
 800be44:	e7f4      	b.n	800be30 <__swsetup_r+0xb0>
 800be46:	2000      	movs	r0, #0
 800be48:	e7f7      	b.n	800be3a <__swsetup_r+0xba>
 800be4a:	bf00      	nop
 800be4c:	20000014 	.word	0x20000014
 800be50:	0800e1b4 	.word	0x0800e1b4
 800be54:	0800e1d4 	.word	0x0800e1d4
 800be58:	0800e194 	.word	0x0800e194

0800be5c <abort>:
 800be5c:	2006      	movs	r0, #6
 800be5e:	b508      	push	{r3, lr}
 800be60:	f000 fa50 	bl	800c304 <raise>
 800be64:	2001      	movs	r0, #1
 800be66:	f7f8 fdbe 	bl	80049e6 <_exit>
	...

0800be6c <__sflush_r>:
 800be6c:	898a      	ldrh	r2, [r1, #12]
 800be6e:	b5f8      	push	{r3, r4, r5, r6, r7, lr}
 800be70:	4605      	mov	r5, r0
 800be72:	0710      	lsls	r0, r2, #28
 800be74:	460c      	mov	r4, r1
 800be76:	d457      	bmi.n	800bf28 <__sflush_r+0xbc>
 800be78:	684b      	ldr	r3, [r1, #4]
 800be7a:	2b00      	cmp	r3, #0
 800be7c:	dc04      	bgt.n	800be88 <__sflush_r+0x1c>
 800be7e:	6c0b      	ldr	r3, [r1, #64]	; 0x40
 800be80:	2b00      	cmp	r3, #0
 800be82:	dc01      	bgt.n	800be88 <__sflush_r+0x1c>
 800be84:	2000      	movs	r0, #0
 800be86:	bdf8      	pop	{r3, r4, r5, r6, r7, pc}
 800be88:	6ae6      	ldr	r6, [r4, #44]	; 0x2c
 800be8a:	2e00      	cmp	r6, #0
 800be8c:	d0fa      	beq.n	800be84 <__sflush_r+0x18>
 800be8e:	2300      	movs	r3, #0
 800be90:	f412 5280 	ands.w	r2, r2, #4096	; 0x1000
 800be94:	682f      	ldr	r7, [r5, #0]
 800be96:	602b      	str	r3, [r5, #0]
 800be98:	d032      	beq.n	800bf00 <__sflush_r+0x94>
 800be9a:	6d60      	ldr	r0, [r4, #84]	; 0x54
 800be9c:	89a3      	ldrh	r3, [r4, #12]
 800be9e:	075a      	lsls	r2, r3, #29
 800bea0:	d505      	bpl.n	800beae <__sflush_r+0x42>
 800bea2:	6863      	ldr	r3, [r4, #4]
 800bea4:	1ac0      	subs	r0, r0, r3
 800bea6:	6b63      	ldr	r3, [r4, #52]	; 0x34
 800bea8:	b10b      	cbz	r3, 800beae <__sflush_r+0x42>
 800beaa:	6c23      	ldr	r3, [r4, #64]	; 0x40
 800beac:	1ac0      	subs	r0, r0, r3
 800beae:	2300      	movs	r3, #0
 800beb0:	4602      	mov	r2, r0
 800beb2:	6ae6      	ldr	r6, [r4, #44]	; 0x2c
 800beb4:	4628      	mov	r0, r5
 800beb6:	6a21      	ldr	r1, [r4, #32]
 800beb8:	47b0      	blx	r6
 800beba:	1c43      	adds	r3, r0, #1
 800bebc:	89a3      	ldrh	r3, [r4, #12]
 800bebe:	d106      	bne.n	800bece <__sflush_r+0x62>
 800bec0:	6829      	ldr	r1, [r5, #0]
 800bec2:	291d      	cmp	r1, #29
 800bec4:	d82c      	bhi.n	800bf20 <__sflush_r+0xb4>
 800bec6:	4a29      	ldr	r2, [pc, #164]	; (800bf6c <__sflush_r+0x100>)
 800bec8:	40ca      	lsrs	r2, r1
 800beca:	07d6      	lsls	r6, r2, #31
 800becc:	d528      	bpl.n	800bf20 <__sflush_r+0xb4>
 800bece:	2200      	movs	r2, #0
 800bed0:	6062      	str	r2, [r4, #4]
 800bed2:	6922      	ldr	r2, [r4, #16]
 800bed4:	04d9      	lsls	r1, r3, #19
 800bed6:	6022      	str	r2, [r4, #0]
 800bed8:	d504      	bpl.n	800bee4 <__sflush_r+0x78>
 800beda:	1c42      	adds	r2, r0, #1
 800bedc:	d101      	bne.n	800bee2 <__sflush_r+0x76>
 800bede:	682b      	ldr	r3, [r5, #0]
 800bee0:	b903      	cbnz	r3, 800bee4 <__sflush_r+0x78>
 800bee2:	6560      	str	r0, [r4, #84]	; 0x54
 800bee4:	6b61      	ldr	r1, [r4, #52]	; 0x34
 800bee6:	602f      	str	r7, [r5, #0]
 800bee8:	2900      	cmp	r1, #0
 800beea:	d0cb      	beq.n	800be84 <__sflush_r+0x18>
 800beec:	f104 0344 	add.w	r3, r4, #68	; 0x44
 800bef0:	4299      	cmp	r1, r3
 800bef2:	d002      	beq.n	800befa <__sflush_r+0x8e>
 800bef4:	4628      	mov	r0, r5
 800bef6:	f7ff faa5 	bl	800b444 <_free_r>
 800befa:	2000      	movs	r0, #0
 800befc:	6360      	str	r0, [r4, #52]	; 0x34
 800befe:	e7c2      	b.n	800be86 <__sflush_r+0x1a>
 800bf00:	6a21      	ldr	r1, [r4, #32]
 800bf02:	2301      	movs	r3, #1
 800bf04:	4628      	mov	r0, r5
 800bf06:	47b0      	blx	r6
 800bf08:	1c41      	adds	r1, r0, #1
 800bf0a:	d1c7      	bne.n	800be9c <__sflush_r+0x30>
 800bf0c:	682b      	ldr	r3, [r5, #0]
 800bf0e:	2b00      	cmp	r3, #0
 800bf10:	d0c4      	beq.n	800be9c <__sflush_r+0x30>
 800bf12:	2b1d      	cmp	r3, #29
 800bf14:	d001      	beq.n	800bf1a <__sflush_r+0xae>
 800bf16:	2b16      	cmp	r3, #22
 800bf18:	d101      	bne.n	800bf1e <__sflush_r+0xb2>
 800bf1a:	602f      	str	r7, [r5, #0]
 800bf1c:	e7b2      	b.n	800be84 <__sflush_r+0x18>
 800bf1e:	89a3      	ldrh	r3, [r4, #12]
 800bf20:	f043 0340 	orr.w	r3, r3, #64	; 0x40
 800bf24:	81a3      	strh	r3, [r4, #12]
 800bf26:	e7ae      	b.n	800be86 <__sflush_r+0x1a>
 800bf28:	690f      	ldr	r7, [r1, #16]
 800bf2a:	2f00      	cmp	r7, #0
 800bf2c:	d0aa      	beq.n	800be84 <__sflush_r+0x18>
 800bf2e:	0793      	lsls	r3, r2, #30
 800bf30:	bf18      	it	ne
 800bf32:	2300      	movne	r3, #0
 800bf34:	680e      	ldr	r6, [r1, #0]
 800bf36:	bf08      	it	eq
 800bf38:	694b      	ldreq	r3, [r1, #20]
 800bf3a:	1bf6      	subs	r6, r6, r7
 800bf3c:	600f      	str	r7, [r1, #0]
 800bf3e:	608b      	str	r3, [r1, #8]
 800bf40:	2e00      	cmp	r6, #0
 800bf42:	dd9f      	ble.n	800be84 <__sflush_r+0x18>
 800bf44:	4633      	mov	r3, r6
 800bf46:	463a      	mov	r2, r7
 800bf48:	4628      	mov	r0, r5
 800bf4a:	6a21      	ldr	r1, [r4, #32]
 800bf4c:	f8d4 c028 	ldr.w	ip, [r4, #40]	; 0x28
 800bf50:	47e0      	blx	ip
 800bf52:	2800      	cmp	r0, #0
 800bf54:	dc06      	bgt.n	800bf64 <__sflush_r+0xf8>
 800bf56:	89a3      	ldrh	r3, [r4, #12]
 800bf58:	f04f 30ff 	mov.w	r0, #4294967295
 800bf5c:	f043 0340 	orr.w	r3, r3, #64	; 0x40
 800bf60:	81a3      	strh	r3, [r4, #12]
 800bf62:	e790      	b.n	800be86 <__sflush_r+0x1a>
 800bf64:	4407      	add	r7, r0
 800bf66:	1a36      	subs	r6, r6, r0
 800bf68:	e7ea      	b.n	800bf40 <__sflush_r+0xd4>
 800bf6a:	bf00      	nop
 800bf6c:	20400001 	.word	0x20400001

0800bf70 <_fflush_r>:
 800bf70:	b538      	push	{r3, r4, r5, lr}
 800bf72:	690b      	ldr	r3, [r1, #16]
 800bf74:	4605      	mov	r5, r0
 800bf76:	460c      	mov	r4, r1
 800bf78:	b913      	cbnz	r3, 800bf80 <_fflush_r+0x10>
 800bf7a:	2500      	movs	r5, #0
 800bf7c:	4628      	mov	r0, r5
 800bf7e:	bd38      	pop	{r3, r4, r5, pc}
 800bf80:	b118      	cbz	r0, 800bf8a <_fflush_r+0x1a>
 800bf82:	6983      	ldr	r3, [r0, #24]
 800bf84:	b90b      	cbnz	r3, 800bf8a <_fflush_r+0x1a>
 800bf86:	f000 f887 	bl	800c098 <__sinit>
 800bf8a:	4b14      	ldr	r3, [pc, #80]	; (800bfdc <_fflush_r+0x6c>)
 800bf8c:	429c      	cmp	r4, r3
 800bf8e:	d11b      	bne.n	800bfc8 <_fflush_r+0x58>
 800bf90:	686c      	ldr	r4, [r5, #4]
 800bf92:	f9b4 300c 	ldrsh.w	r3, [r4, #12]
 800bf96:	2b00      	cmp	r3, #0
 800bf98:	d0ef      	beq.n	800bf7a <_fflush_r+0xa>
 800bf9a:	6e62      	ldr	r2, [r4, #100]	; 0x64
 800bf9c:	07d0      	lsls	r0, r2, #31
 800bf9e:	d404      	bmi.n	800bfaa <_fflush_r+0x3a>
 800bfa0:	0599      	lsls	r1, r3, #22
 800bfa2:	d402      	bmi.n	800bfaa <_fflush_r+0x3a>
 800bfa4:	6da0      	ldr	r0, [r4, #88]	; 0x58
 800bfa6:	f000 f915 	bl	800c1d4 <__retarget_lock_acquire_recursive>
 800bfaa:	4628      	mov	r0, r5
 800bfac:	4621      	mov	r1, r4
 800bfae:	f7ff ff5d 	bl	800be6c <__sflush_r>
 800bfb2:	6e63      	ldr	r3, [r4, #100]	; 0x64
 800bfb4:	4605      	mov	r5, r0
 800bfb6:	07da      	lsls	r2, r3, #31
 800bfb8:	d4e0      	bmi.n	800bf7c <_fflush_r+0xc>
 800bfba:	89a3      	ldrh	r3, [r4, #12]
 800bfbc:	059b      	lsls	r3, r3, #22
 800bfbe:	d4dd      	bmi.n	800bf7c <_fflush_r+0xc>
 800bfc0:	6da0      	ldr	r0, [r4, #88]	; 0x58
 800bfc2:	f000 f908 	bl	800c1d6 <__retarget_lock_release_recursive>
 800bfc6:	e7d9      	b.n	800bf7c <_fflush_r+0xc>
 800bfc8:	4b05      	ldr	r3, [pc, #20]	; (800bfe0 <_fflush_r+0x70>)
 800bfca:	429c      	cmp	r4, r3
 800bfcc:	d101      	bne.n	800bfd2 <_fflush_r+0x62>
 800bfce:	68ac      	ldr	r4, [r5, #8]
 800bfd0:	e7df      	b.n	800bf92 <_fflush_r+0x22>
 800bfd2:	4b04      	ldr	r3, [pc, #16]	; (800bfe4 <_fflush_r+0x74>)
 800bfd4:	429c      	cmp	r4, r3
 800bfd6:	bf08      	it	eq
 800bfd8:	68ec      	ldreq	r4, [r5, #12]
 800bfda:	e7da      	b.n	800bf92 <_fflush_r+0x22>
 800bfdc:	0800e1b4 	.word	0x0800e1b4
 800bfe0:	0800e1d4 	.word	0x0800e1d4
 800bfe4:	0800e194 	.word	0x0800e194

0800bfe8 <std>:
 800bfe8:	2300      	movs	r3, #0
 800bfea:	b510      	push	{r4, lr}
 800bfec:	4604      	mov	r4, r0
 800bfee:	e9c0 3300 	strd	r3, r3, [r0]
 800bff2:	e9c0 3304 	strd	r3, r3, [r0, #16]
 800bff6:	6083      	str	r3, [r0, #8]
 800bff8:	8181      	strh	r1, [r0, #12]
 800bffa:	6643      	str	r3, [r0, #100]	; 0x64
 800bffc:	81c2      	strh	r2, [r0, #14]
 800bffe:	6183      	str	r3, [r0, #24]
 800c000:	4619      	mov	r1, r3
 800c002:	2208      	movs	r2, #8
 800c004:	305c      	adds	r0, #92	; 0x5c
 800c006:	f7fb fe0d 	bl	8007c24 <memset>
 800c00a:	4b05      	ldr	r3, [pc, #20]	; (800c020 <std+0x38>)
 800c00c:	6224      	str	r4, [r4, #32]
 800c00e:	6263      	str	r3, [r4, #36]	; 0x24
 800c010:	4b04      	ldr	r3, [pc, #16]	; (800c024 <std+0x3c>)
 800c012:	62a3      	str	r3, [r4, #40]	; 0x28
 800c014:	4b04      	ldr	r3, [pc, #16]	; (800c028 <std+0x40>)
 800c016:	62e3      	str	r3, [r4, #44]	; 0x2c
 800c018:	4b04      	ldr	r3, [pc, #16]	; (800c02c <std+0x44>)
 800c01a:	6323      	str	r3, [r4, #48]	; 0x30
 800c01c:	bd10      	pop	{r4, pc}
 800c01e:	bf00      	nop
 800c020:	0800c33d 	.word	0x0800c33d
 800c024:	0800c35f 	.word	0x0800c35f
 800c028:	0800c397 	.word	0x0800c397
 800c02c:	0800c3bb 	.word	0x0800c3bb

0800c030 <_cleanup_r>:
 800c030:	4901      	ldr	r1, [pc, #4]	; (800c038 <_cleanup_r+0x8>)
 800c032:	f000 b8af 	b.w	800c194 <_fwalk_reent>
 800c036:	bf00      	nop
 800c038:	0800bf71 	.word	0x0800bf71

0800c03c <__sfmoreglue>:
 800c03c:	2268      	movs	r2, #104	; 0x68
 800c03e:	b570      	push	{r4, r5, r6, lr}
 800c040:	1e4d      	subs	r5, r1, #1
 800c042:	4355      	muls	r5, r2
 800c044:	460e      	mov	r6, r1
 800c046:	f105 0174 	add.w	r1, r5, #116	; 0x74
 800c04a:	f7ff fa63 	bl	800b514 <_malloc_r>
 800c04e:	4604      	mov	r4, r0
 800c050:	b140      	cbz	r0, 800c064 <__sfmoreglue+0x28>
 800c052:	2100      	movs	r1, #0
 800c054:	e9c0 1600 	strd	r1, r6, [r0]
 800c058:	300c      	adds	r0, #12
 800c05a:	60a0      	str	r0, [r4, #8]
 800c05c:	f105 0268 	add.w	r2, r5, #104	; 0x68
 800c060:	f7fb fde0 	bl	8007c24 <memset>
 800c064:	4620      	mov	r0, r4
 800c066:	bd70      	pop	{r4, r5, r6, pc}

0800c068 <__sfp_lock_acquire>:
 800c068:	4801      	ldr	r0, [pc, #4]	; (800c070 <__sfp_lock_acquire+0x8>)
 800c06a:	f000 b8b3 	b.w	800c1d4 <__retarget_lock_acquire_recursive>
 800c06e:	bf00      	nop
 800c070:	20000339 	.word	0x20000339

0800c074 <__sfp_lock_release>:
 800c074:	4801      	ldr	r0, [pc, #4]	; (800c07c <__sfp_lock_release+0x8>)
 800c076:	f000 b8ae 	b.w	800c1d6 <__retarget_lock_release_recursive>
 800c07a:	bf00      	nop
 800c07c:	20000339 	.word	0x20000339

0800c080 <__sinit_lock_acquire>:
 800c080:	4801      	ldr	r0, [pc, #4]	; (800c088 <__sinit_lock_acquire+0x8>)
 800c082:	f000 b8a7 	b.w	800c1d4 <__retarget_lock_acquire_recursive>
 800c086:	bf00      	nop
 800c088:	2000033a 	.word	0x2000033a

0800c08c <__sinit_lock_release>:
 800c08c:	4801      	ldr	r0, [pc, #4]	; (800c094 <__sinit_lock_release+0x8>)
 800c08e:	f000 b8a2 	b.w	800c1d6 <__retarget_lock_release_recursive>
 800c092:	bf00      	nop
 800c094:	2000033a 	.word	0x2000033a

0800c098 <__sinit>:
 800c098:	b510      	push	{r4, lr}
 800c09a:	4604      	mov	r4, r0
 800c09c:	f7ff fff0 	bl	800c080 <__sinit_lock_acquire>
 800c0a0:	69a3      	ldr	r3, [r4, #24]
 800c0a2:	b11b      	cbz	r3, 800c0ac <__sinit+0x14>
 800c0a4:	e8bd 4010 	ldmia.w	sp!, {r4, lr}
 800c0a8:	f7ff bff0 	b.w	800c08c <__sinit_lock_release>
 800c0ac:	e9c4 3312 	strd	r3, r3, [r4, #72]	; 0x48
 800c0b0:	6523      	str	r3, [r4, #80]	; 0x50
 800c0b2:	4b13      	ldr	r3, [pc, #76]	; (800c100 <__sinit+0x68>)
 800c0b4:	4a13      	ldr	r2, [pc, #76]	; (800c104 <__sinit+0x6c>)
 800c0b6:	681b      	ldr	r3, [r3, #0]
 800c0b8:	62a2      	str	r2, [r4, #40]	; 0x28
 800c0ba:	42a3      	cmp	r3, r4
 800c0bc:	bf08      	it	eq
 800c0be:	2301      	moveq	r3, #1
 800c0c0:	4620      	mov	r0, r4
 800c0c2:	bf08      	it	eq
 800c0c4:	61a3      	streq	r3, [r4, #24]
 800c0c6:	f000 f81f 	bl	800c108 <__sfp>
 800c0ca:	6060      	str	r0, [r4, #4]
 800c0cc:	4620      	mov	r0, r4
 800c0ce:	f000 f81b 	bl	800c108 <__sfp>
 800c0d2:	60a0      	str	r0, [r4, #8]
 800c0d4:	4620      	mov	r0, r4
 800c0d6:	f000 f817 	bl	800c108 <__sfp>
 800c0da:	2200      	movs	r2, #0
 800c0dc:	2104      	movs	r1, #4
 800c0de:	60e0      	str	r0, [r4, #12]
 800c0e0:	6860      	ldr	r0, [r4, #4]
 800c0e2:	f7ff ff81 	bl	800bfe8 <std>
 800c0e6:	2201      	movs	r2, #1
 800c0e8:	2109      	movs	r1, #9
 800c0ea:	68a0      	ldr	r0, [r4, #8]
 800c0ec:	f7ff ff7c 	bl	800bfe8 <std>
 800c0f0:	2202      	movs	r2, #2
 800c0f2:	2112      	movs	r1, #18
 800c0f4:	68e0      	ldr	r0, [r4, #12]
 800c0f6:	f7ff ff77 	bl	800bfe8 <std>
 800c0fa:	2301      	movs	r3, #1
 800c0fc:	61a3      	str	r3, [r4, #24]
 800c0fe:	e7d1      	b.n	800c0a4 <__sinit+0xc>
 800c100:	0800dd4c 	.word	0x0800dd4c
 800c104:	0800c031 	.word	0x0800c031

0800c108 <__sfp>:
 800c108:	b5f8      	push	{r3, r4, r5, r6, r7, lr}
 800c10a:	4607      	mov	r7, r0
 800c10c:	f7ff ffac 	bl	800c068 <__sfp_lock_acquire>
 800c110:	4b1e      	ldr	r3, [pc, #120]	; (800c18c <__sfp+0x84>)
 800c112:	681e      	ldr	r6, [r3, #0]
 800c114:	69b3      	ldr	r3, [r6, #24]
 800c116:	b913      	cbnz	r3, 800c11e <__sfp+0x16>
 800c118:	4630      	mov	r0, r6
 800c11a:	f7ff ffbd 	bl	800c098 <__sinit>
 800c11e:	3648      	adds	r6, #72	; 0x48
 800c120:	e9d6 3401 	ldrd	r3, r4, [r6, #4]
 800c124:	3b01      	subs	r3, #1
 800c126:	d503      	bpl.n	800c130 <__sfp+0x28>
 800c128:	6833      	ldr	r3, [r6, #0]
 800c12a:	b30b      	cbz	r3, 800c170 <__sfp+0x68>
 800c12c:	6836      	ldr	r6, [r6, #0]
 800c12e:	e7f7      	b.n	800c120 <__sfp+0x18>
 800c130:	f9b4 500c 	ldrsh.w	r5, [r4, #12]
 800c134:	b9d5      	cbnz	r5, 800c16c <__sfp+0x64>
 800c136:	4b16      	ldr	r3, [pc, #88]	; (800c190 <__sfp+0x88>)
 800c138:	f104 0058 	add.w	r0, r4, #88	; 0x58
 800c13c:	60e3      	str	r3, [r4, #12]
 800c13e:	6665      	str	r5, [r4, #100]	; 0x64
 800c140:	f000 f847 	bl	800c1d2 <__retarget_lock_init_recursive>
 800c144:	f7ff ff96 	bl	800c074 <__sfp_lock_release>
 800c148:	2208      	movs	r2, #8
 800c14a:	4629      	mov	r1, r5
 800c14c:	e9c4 5501 	strd	r5, r5, [r4, #4]
 800c150:	e9c4 5504 	strd	r5, r5, [r4, #16]
 800c154:	6025      	str	r5, [r4, #0]
 800c156:	61a5      	str	r5, [r4, #24]
 800c158:	f104 005c 	add.w	r0, r4, #92	; 0x5c
 800c15c:	f7fb fd62 	bl	8007c24 <memset>
 800c160:	e9c4 550d 	strd	r5, r5, [r4, #52]	; 0x34
 800c164:	e9c4 5512 	strd	r5, r5, [r4, #72]	; 0x48
 800c168:	4620      	mov	r0, r4
 800c16a:	bdf8      	pop	{r3, r4, r5, r6, r7, pc}
 800c16c:	3468      	adds	r4, #104	; 0x68
 800c16e:	e7d9      	b.n	800c124 <__sfp+0x1c>
 800c170:	2104      	movs	r1, #4
 800c172:	4638      	mov	r0, r7
 800c174:	f7ff ff62 	bl	800c03c <__sfmoreglue>
 800c178:	4604      	mov	r4, r0
 800c17a:	6030      	str	r0, [r6, #0]
 800c17c:	2800      	cmp	r0, #0
 800c17e:	d1d5      	bne.n	800c12c <__sfp+0x24>
 800c180:	f7ff ff78 	bl	800c074 <__sfp_lock_release>
 800c184:	230c      	movs	r3, #12
 800c186:	603b      	str	r3, [r7, #0]
 800c188:	e7ee      	b.n	800c168 <__sfp+0x60>
 800c18a:	bf00      	nop
 800c18c:	0800dd4c 	.word	0x0800dd4c
 800c190:	ffff0001 	.word	0xffff0001

0800c194 <_fwalk_reent>:
 800c194:	e92d 43f8 	stmdb	sp!, {r3, r4, r5, r6, r7, r8, r9, lr}
 800c198:	4606      	mov	r6, r0
 800c19a:	4688      	mov	r8, r1
 800c19c:	2700      	movs	r7, #0
 800c19e:	f100 0448 	add.w	r4, r0, #72	; 0x48
 800c1a2:	e9d4 9501 	ldrd	r9, r5, [r4, #4]
 800c1a6:	f1b9 0901 	subs.w	r9, r9, #1
 800c1aa:	d505      	bpl.n	800c1b8 <_fwalk_reent+0x24>
 800c1ac:	6824      	ldr	r4, [r4, #0]
 800c1ae:	2c00      	cmp	r4, #0
 800c1b0:	d1f7      	bne.n	800c1a2 <_fwalk_reent+0xe>
 800c1b2:	4638      	mov	r0, r7
 800c1b4:	e8bd 83f8 	ldmia.w	sp!, {r3, r4, r5, r6, r7, r8, r9, pc}
 800c1b8:	89ab      	ldrh	r3, [r5, #12]
 800c1ba:	2b01      	cmp	r3, #1
 800c1bc:	d907      	bls.n	800c1ce <_fwalk_reent+0x3a>
 800c1be:	f9b5 300e 	ldrsh.w	r3, [r5, #14]
 800c1c2:	3301      	adds	r3, #1
 800c1c4:	d003      	beq.n	800c1ce <_fwalk_reent+0x3a>
 800c1c6:	4629      	mov	r1, r5
 800c1c8:	4630      	mov	r0, r6
 800c1ca:	47c0      	blx	r8
 800c1cc:	4307      	orrs	r7, r0
 800c1ce:	3568      	adds	r5, #104	; 0x68
 800c1d0:	e7e9      	b.n	800c1a6 <_fwalk_reent+0x12>

0800c1d2 <__retarget_lock_init_recursive>:
 800c1d2:	4770      	bx	lr

0800c1d4 <__retarget_lock_acquire_recursive>:
 800c1d4:	4770      	bx	lr

0800c1d6 <__retarget_lock_release_recursive>:
 800c1d6:	4770      	bx	lr

0800c1d8 <__swhatbuf_r>:
 800c1d8:	b570      	push	{r4, r5, r6, lr}
 800c1da:	460e      	mov	r6, r1
 800c1dc:	f9b1 100e 	ldrsh.w	r1, [r1, #14]
 800c1e0:	4614      	mov	r4, r2
 800c1e2:	2900      	cmp	r1, #0
 800c1e4:	461d      	mov	r5, r3
 800c1e6:	b096      	sub	sp, #88	; 0x58
 800c1e8:	da08      	bge.n	800c1fc <__swhatbuf_r+0x24>
 800c1ea:	2200      	movs	r2, #0
 800c1ec:	f9b6 300c 	ldrsh.w	r3, [r6, #12]
 800c1f0:	602a      	str	r2, [r5, #0]
 800c1f2:	061a      	lsls	r2, r3, #24
 800c1f4:	d410      	bmi.n	800c218 <__swhatbuf_r+0x40>
 800c1f6:	f44f 6380 	mov.w	r3, #1024	; 0x400
 800c1fa:	e00e      	b.n	800c21a <__swhatbuf_r+0x42>
 800c1fc:	466a      	mov	r2, sp
 800c1fe:	f000 f903 	bl	800c408 <_fstat_r>
 800c202:	2800      	cmp	r0, #0
 800c204:	dbf1      	blt.n	800c1ea <__swhatbuf_r+0x12>
 800c206:	9a01      	ldr	r2, [sp, #4]
 800c208:	f402 4270 	and.w	r2, r2, #61440	; 0xf000
 800c20c:	f5a2 5300 	sub.w	r3, r2, #8192	; 0x2000
 800c210:	425a      	negs	r2, r3
 800c212:	415a      	adcs	r2, r3
 800c214:	602a      	str	r2, [r5, #0]
 800c216:	e7ee      	b.n	800c1f6 <__swhatbuf_r+0x1e>
 800c218:	2340      	movs	r3, #64	; 0x40
 800c21a:	2000      	movs	r0, #0
 800c21c:	6023      	str	r3, [r4, #0]
 800c21e:	b016      	add	sp, #88	; 0x58
 800c220:	bd70      	pop	{r4, r5, r6, pc}
	...

0800c224 <__smakebuf_r>:
 800c224:	898b      	ldrh	r3, [r1, #12]
 800c226:	b573      	push	{r0, r1, r4, r5, r6, lr}
 800c228:	079d      	lsls	r5, r3, #30
 800c22a:	4606      	mov	r6, r0
 800c22c:	460c      	mov	r4, r1
 800c22e:	d507      	bpl.n	800c240 <__smakebuf_r+0x1c>
 800c230:	f104 0347 	add.w	r3, r4, #71	; 0x47
 800c234:	6023      	str	r3, [r4, #0]
 800c236:	6123      	str	r3, [r4, #16]
 800c238:	2301      	movs	r3, #1
 800c23a:	6163      	str	r3, [r4, #20]
 800c23c:	b002      	add	sp, #8
 800c23e:	bd70      	pop	{r4, r5, r6, pc}
 800c240:	466a      	mov	r2, sp
 800c242:	ab01      	add	r3, sp, #4
 800c244:	f7ff ffc8 	bl	800c1d8 <__swhatbuf_r>
 800c248:	9900      	ldr	r1, [sp, #0]
 800c24a:	4605      	mov	r5, r0
 800c24c:	4630      	mov	r0, r6
 800c24e:	f7ff f961 	bl	800b514 <_malloc_r>
 800c252:	b948      	cbnz	r0, 800c268 <__smakebuf_r+0x44>
 800c254:	f9b4 300c 	ldrsh.w	r3, [r4, #12]
 800c258:	059a      	lsls	r2, r3, #22
 800c25a:	d4ef      	bmi.n	800c23c <__smakebuf_r+0x18>
 800c25c:	f023 0303 	bic.w	r3, r3, #3
 800c260:	f043 0302 	orr.w	r3, r3, #2
 800c264:	81a3      	strh	r3, [r4, #12]
 800c266:	e7e3      	b.n	800c230 <__smakebuf_r+0xc>
 800c268:	4b0d      	ldr	r3, [pc, #52]	; (800c2a0 <__smakebuf_r+0x7c>)
 800c26a:	62b3      	str	r3, [r6, #40]	; 0x28
 800c26c:	89a3      	ldrh	r3, [r4, #12]
 800c26e:	6020      	str	r0, [r4, #0]
 800c270:	f043 0380 	orr.w	r3, r3, #128	; 0x80
 800c274:	81a3      	strh	r3, [r4, #12]
 800c276:	9b00      	ldr	r3, [sp, #0]
 800c278:	6120      	str	r0, [r4, #16]
 800c27a:	6163      	str	r3, [r4, #20]
 800c27c:	9b01      	ldr	r3, [sp, #4]
 800c27e:	b15b      	cbz	r3, 800c298 <__smakebuf_r+0x74>
 800c280:	4630      	mov	r0, r6
 800c282:	f9b4 100e 	ldrsh.w	r1, [r4, #14]
 800c286:	f000 f8d1 	bl	800c42c <_isatty_r>
 800c28a:	b128      	cbz	r0, 800c298 <__smakebuf_r+0x74>
 800c28c:	89a3      	ldrh	r3, [r4, #12]
 800c28e:	f023 0303 	bic.w	r3, r3, #3
 800c292:	f043 0301 	orr.w	r3, r3, #1
 800c296:	81a3      	strh	r3, [r4, #12]
 800c298:	89a0      	ldrh	r0, [r4, #12]
 800c29a:	4305      	orrs	r5, r0
 800c29c:	81a5      	strh	r5, [r4, #12]
 800c29e:	e7cd      	b.n	800c23c <__smakebuf_r+0x18>
 800c2a0:	0800c031 	.word	0x0800c031

0800c2a4 <_malloc_usable_size_r>:
 800c2a4:	f851 3c04 	ldr.w	r3, [r1, #-4]
 800c2a8:	1f18      	subs	r0, r3, #4
 800c2aa:	2b00      	cmp	r3, #0
 800c2ac:	bfbc      	itt	lt
 800c2ae:	580b      	ldrlt	r3, [r1, r0]
 800c2b0:	18c0      	addlt	r0, r0, r3
 800c2b2:	4770      	bx	lr

0800c2b4 <_raise_r>:
 800c2b4:	291f      	cmp	r1, #31
 800c2b6:	b538      	push	{r3, r4, r5, lr}
 800c2b8:	4604      	mov	r4, r0
 800c2ba:	460d      	mov	r5, r1
 800c2bc:	d904      	bls.n	800c2c8 <_raise_r+0x14>
 800c2be:	2316      	movs	r3, #22
 800c2c0:	6003      	str	r3, [r0, #0]
 800c2c2:	f04f 30ff 	mov.w	r0, #4294967295
 800c2c6:	bd38      	pop	{r3, r4, r5, pc}
 800c2c8:	6c42      	ldr	r2, [r0, #68]	; 0x44
 800c2ca:	b112      	cbz	r2, 800c2d2 <_raise_r+0x1e>
 800c2cc:	f852 3021 	ldr.w	r3, [r2, r1, lsl #2]
 800c2d0:	b94b      	cbnz	r3, 800c2e6 <_raise_r+0x32>
 800c2d2:	4620      	mov	r0, r4
 800c2d4:	f000 f830 	bl	800c338 <_getpid_r>
 800c2d8:	462a      	mov	r2, r5
 800c2da:	4601      	mov	r1, r0
 800c2dc:	4620      	mov	r0, r4
 800c2de:	e8bd 4038 	ldmia.w	sp!, {r3, r4, r5, lr}
 800c2e2:	f000 b817 	b.w	800c314 <_kill_r>
 800c2e6:	2b01      	cmp	r3, #1
 800c2e8:	d00a      	beq.n	800c300 <_raise_r+0x4c>
 800c2ea:	1c59      	adds	r1, r3, #1
 800c2ec:	d103      	bne.n	800c2f6 <_raise_r+0x42>
 800c2ee:	2316      	movs	r3, #22
 800c2f0:	6003      	str	r3, [r0, #0]
 800c2f2:	2001      	movs	r0, #1
 800c2f4:	e7e7      	b.n	800c2c6 <_raise_r+0x12>
 800c2f6:	2400      	movs	r4, #0
 800c2f8:	4628      	mov	r0, r5
 800c2fa:	f842 4025 	str.w	r4, [r2, r5, lsl #2]
 800c2fe:	4798      	blx	r3
 800c300:	2000      	movs	r0, #0
 800c302:	e7e0      	b.n	800c2c6 <_raise_r+0x12>

0800c304 <raise>:
 800c304:	4b02      	ldr	r3, [pc, #8]	; (800c310 <raise+0xc>)
 800c306:	4601      	mov	r1, r0
 800c308:	6818      	ldr	r0, [r3, #0]
 800c30a:	f7ff bfd3 	b.w	800c2b4 <_raise_r>
 800c30e:	bf00      	nop
 800c310:	20000014 	.word	0x20000014

0800c314 <_kill_r>:
 800c314:	b538      	push	{r3, r4, r5, lr}
 800c316:	2300      	movs	r3, #0
 800c318:	4d06      	ldr	r5, [pc, #24]	; (800c334 <_kill_r+0x20>)
 800c31a:	4604      	mov	r4, r0
 800c31c:	4608      	mov	r0, r1
 800c31e:	4611      	mov	r1, r2
 800c320:	602b      	str	r3, [r5, #0]
 800c322:	f7f8 fb50 	bl	80049c6 <_kill>
 800c326:	1c43      	adds	r3, r0, #1
 800c328:	d102      	bne.n	800c330 <_kill_r+0x1c>
 800c32a:	682b      	ldr	r3, [r5, #0]
 800c32c:	b103      	cbz	r3, 800c330 <_kill_r+0x1c>
 800c32e:	6023      	str	r3, [r4, #0]
 800c330:	bd38      	pop	{r3, r4, r5, pc}
 800c332:	bf00      	nop
 800c334:	20000334 	.word	0x20000334

0800c338 <_getpid_r>:
 800c338:	f7f8 bb3e 	b.w	80049b8 <_getpid>

0800c33c <__sread>:
 800c33c:	b510      	push	{r4, lr}
 800c33e:	460c      	mov	r4, r1
 800c340:	f9b1 100e 	ldrsh.w	r1, [r1, #14]
 800c344:	f000 f894 	bl	800c470 <_read_r>
 800c348:	2800      	cmp	r0, #0
 800c34a:	bfab      	itete	ge
 800c34c:	6d63      	ldrge	r3, [r4, #84]	; 0x54
 800c34e:	89a3      	ldrhlt	r3, [r4, #12]
 800c350:	181b      	addge	r3, r3, r0
 800c352:	f423 5380 	biclt.w	r3, r3, #4096	; 0x1000
 800c356:	bfac      	ite	ge
 800c358:	6563      	strge	r3, [r4, #84]	; 0x54
 800c35a:	81a3      	strhlt	r3, [r4, #12]
 800c35c:	bd10      	pop	{r4, pc}

0800c35e <__swrite>:
 800c35e:	e92d 41f0 	stmdb	sp!, {r4, r5, r6, r7, r8, lr}
 800c362:	461f      	mov	r7, r3
 800c364:	898b      	ldrh	r3, [r1, #12]
 800c366:	4605      	mov	r5, r0
 800c368:	05db      	lsls	r3, r3, #23
 800c36a:	460c      	mov	r4, r1
 800c36c:	4616      	mov	r6, r2
 800c36e:	d505      	bpl.n	800c37c <__swrite+0x1e>
 800c370:	2302      	movs	r3, #2
 800c372:	2200      	movs	r2, #0
 800c374:	f9b1 100e 	ldrsh.w	r1, [r1, #14]
 800c378:	f000 f868 	bl	800c44c <_lseek_r>
 800c37c:	89a3      	ldrh	r3, [r4, #12]
 800c37e:	4632      	mov	r2, r6
 800c380:	f423 5380 	bic.w	r3, r3, #4096	; 0x1000
 800c384:	81a3      	strh	r3, [r4, #12]
 800c386:	4628      	mov	r0, r5
 800c388:	463b      	mov	r3, r7
 800c38a:	f9b4 100e 	ldrsh.w	r1, [r4, #14]
 800c38e:	e8bd 41f0 	ldmia.w	sp!, {r4, r5, r6, r7, r8, lr}
 800c392:	f000 b817 	b.w	800c3c4 <_write_r>

0800c396 <__sseek>:
 800c396:	b510      	push	{r4, lr}
 800c398:	460c      	mov	r4, r1
 800c39a:	f9b1 100e 	ldrsh.w	r1, [r1, #14]
 800c39e:	f000 f855 	bl	800c44c <_lseek_r>
 800c3a2:	1c43      	adds	r3, r0, #1
 800c3a4:	89a3      	ldrh	r3, [r4, #12]
 800c3a6:	bf15      	itete	ne
 800c3a8:	6560      	strne	r0, [r4, #84]	; 0x54
 800c3aa:	f423 5380 	biceq.w	r3, r3, #4096	; 0x1000
 800c3ae:	f443 5380 	orrne.w	r3, r3, #4096	; 0x1000
 800c3b2:	81a3      	strheq	r3, [r4, #12]
 800c3b4:	bf18      	it	ne
 800c3b6:	81a3      	strhne	r3, [r4, #12]
 800c3b8:	bd10      	pop	{r4, pc}

0800c3ba <__sclose>:
 800c3ba:	f9b1 100e 	ldrsh.w	r1, [r1, #14]
 800c3be:	f000 b813 	b.w	800c3e8 <_close_r>
	...

0800c3c4 <_write_r>:
 800c3c4:	b538      	push	{r3, r4, r5, lr}
 800c3c6:	4604      	mov	r4, r0
 800c3c8:	4608      	mov	r0, r1
 800c3ca:	4611      	mov	r1, r2
 800c3cc:	2200      	movs	r2, #0
 800c3ce:	4d05      	ldr	r5, [pc, #20]	; (800c3e4 <_write_r+0x20>)
 800c3d0:	602a      	str	r2, [r5, #0]
 800c3d2:	461a      	mov	r2, r3
 800c3d4:	f7f8 fb2e 	bl	8004a34 <_write>
 800c3d8:	1c43      	adds	r3, r0, #1
 800c3da:	d102      	bne.n	800c3e2 <_write_r+0x1e>
 800c3dc:	682b      	ldr	r3, [r5, #0]
 800c3de:	b103      	cbz	r3, 800c3e2 <_write_r+0x1e>
 800c3e0:	6023      	str	r3, [r4, #0]
 800c3e2:	bd38      	pop	{r3, r4, r5, pc}
 800c3e4:	20000334 	.word	0x20000334

0800c3e8 <_close_r>:
 800c3e8:	b538      	push	{r3, r4, r5, lr}
 800c3ea:	2300      	movs	r3, #0
 800c3ec:	4d05      	ldr	r5, [pc, #20]	; (800c404 <_close_r+0x1c>)
 800c3ee:	4604      	mov	r4, r0
 800c3f0:	4608      	mov	r0, r1
 800c3f2:	602b      	str	r3, [r5, #0]
 800c3f4:	f7f8 fb3a 	bl	8004a6c <_close>
 800c3f8:	1c43      	adds	r3, r0, #1
 800c3fa:	d102      	bne.n	800c402 <_close_r+0x1a>
 800c3fc:	682b      	ldr	r3, [r5, #0]
 800c3fe:	b103      	cbz	r3, 800c402 <_close_r+0x1a>
 800c400:	6023      	str	r3, [r4, #0]
 800c402:	bd38      	pop	{r3, r4, r5, pc}
 800c404:	20000334 	.word	0x20000334

0800c408 <_fstat_r>:
 800c408:	b538      	push	{r3, r4, r5, lr}
 800c40a:	2300      	movs	r3, #0
 800c40c:	4d06      	ldr	r5, [pc, #24]	; (800c428 <_fstat_r+0x20>)
 800c40e:	4604      	mov	r4, r0
 800c410:	4608      	mov	r0, r1
 800c412:	4611      	mov	r1, r2
 800c414:	602b      	str	r3, [r5, #0]
 800c416:	f7f8 fb34 	bl	8004a82 <_fstat>
 800c41a:	1c43      	adds	r3, r0, #1
 800c41c:	d102      	bne.n	800c424 <_fstat_r+0x1c>
 800c41e:	682b      	ldr	r3, [r5, #0]
 800c420:	b103      	cbz	r3, 800c424 <_fstat_r+0x1c>
 800c422:	6023      	str	r3, [r4, #0]
 800c424:	bd38      	pop	{r3, r4, r5, pc}
 800c426:	bf00      	nop
 800c428:	20000334 	.word	0x20000334

0800c42c <_isatty_r>:
 800c42c:	b538      	push	{r3, r4, r5, lr}
 800c42e:	2300      	movs	r3, #0
 800c430:	4d05      	ldr	r5, [pc, #20]	; (800c448 <_isatty_r+0x1c>)
 800c432:	4604      	mov	r4, r0
 800c434:	4608      	mov	r0, r1
 800c436:	602b      	str	r3, [r5, #0]
 800c438:	f7f8 fb32 	bl	8004aa0 <_isatty>
 800c43c:	1c43      	adds	r3, r0, #1
 800c43e:	d102      	bne.n	800c446 <_isatty_r+0x1a>
 800c440:	682b      	ldr	r3, [r5, #0]
 800c442:	b103      	cbz	r3, 800c446 <_isatty_r+0x1a>
 800c444:	6023      	str	r3, [r4, #0]
 800c446:	bd38      	pop	{r3, r4, r5, pc}
 800c448:	20000334 	.word	0x20000334

0800c44c <_lseek_r>:
 800c44c:	b538      	push	{r3, r4, r5, lr}
 800c44e:	4604      	mov	r4, r0
 800c450:	4608      	mov	r0, r1
 800c452:	4611      	mov	r1, r2
 800c454:	2200      	movs	r2, #0
 800c456:	4d05      	ldr	r5, [pc, #20]	; (800c46c <_lseek_r+0x20>)
 800c458:	602a      	str	r2, [r5, #0]
 800c45a:	461a      	mov	r2, r3
 800c45c:	f7f8 fb2a 	bl	8004ab4 <_lseek>
 800c460:	1c43      	adds	r3, r0, #1
 800c462:	d102      	bne.n	800c46a <_lseek_r+0x1e>
 800c464:	682b      	ldr	r3, [r5, #0]
 800c466:	b103      	cbz	r3, 800c46a <_lseek_r+0x1e>
 800c468:	6023      	str	r3, [r4, #0]
 800c46a:	bd38      	pop	{r3, r4, r5, pc}
 800c46c:	20000334 	.word	0x20000334

0800c470 <_read_r>:
 800c470:	b538      	push	{r3, r4, r5, lr}
 800c472:	4604      	mov	r4, r0
 800c474:	4608      	mov	r0, r1
 800c476:	4611      	mov	r1, r2
 800c478:	2200      	movs	r2, #0
 800c47a:	4d05      	ldr	r5, [pc, #20]	; (800c490 <_read_r+0x20>)
 800c47c:	602a      	str	r2, [r5, #0]
 800c47e:	461a      	mov	r2, r3
 800c480:	f7f8 fabb 	bl	80049fa <_read>
 800c484:	1c43      	adds	r3, r0, #1
 800c486:	d102      	bne.n	800c48e <_read_r+0x1e>
 800c488:	682b      	ldr	r3, [r5, #0]
 800c48a:	b103      	cbz	r3, 800c48e <_read_r+0x1e>
 800c48c:	6023      	str	r3, [r4, #0]
 800c48e:	bd38      	pop	{r3, r4, r5, pc}
 800c490:	20000334 	.word	0x20000334

0800c494 <_init>:
 800c494:	b5f8      	push	{r3, r4, r5, r6, r7, lr}
 800c496:	bf00      	nop
 800c498:	bcf8      	pop	{r3, r4, r5, r6, r7}
 800c49a:	bc08      	pop	{r3}
 800c49c:	469e      	mov	lr, r3
 800c49e:	4770      	bx	lr

0800c4a0 <_fini>:
 800c4a0:	b5f8      	push	{r3, r4, r5, r6, r7, lr}
 800c4a2:	bf00      	nop
 800c4a4:	bcf8      	pop	{r3, r4, r5, r6, r7}
 800c4a6:	bc08      	pop	{r3}
 800c4a8:	469e      	mov	lr, r3
 800c4aa:	4770      	bx	lr
